  Thu Dec  3 2020 22:25                                                Page 1


                     ***************************************
                     **      WDC 65C816 Macro Assembler   **
                     **                                   **
                     **     Version 3.49.1- Feb  6 2006    **
                     ***************************************

     1                        ;:ts=8
     2             00000001   R0	equ	1
     3             00000005   R1	equ	5
     4             00000009   R2	equ	9
     5             0000000D   R3	equ	13
     6                        	.file	"G:\devprojects\c256Foenix\fxos\FXOSWork
                    space\FXOSv1\src\fx_ctl_scrollbar.c",0
     7                        ;#include "fxwindowmanager.h"
     8                        	.file	"G:\devprojects\c256Foenix\fxos\FXOSWork
                    space\FXOSv1\src\fxwindowmanager.h",0
     9                        	.file	"G:\devprojects\c256Foenix\fxos\FXOSWork
                    space\FXOSv1\src\fxtypes.h",0
    10                        	.stag	_fx_bytebits,8,1
    11                        	.member	b7,0,14,17,1
    12                        	.member	b6,1,14,17,1
    13                        	.member	b5,2,14,17,1
    14                        	.member	b4,3,14,17,1
    15                        	.member	b3,4,14,17,1
    16                        	.member	b2,5,14,17,1
    17                        	.member	b1,6,14,17,1
    18                        	.member	b0,7,14,17,1
    19                        	.eos
    20                        	.stag	_fx_node,384,2
    21                        	.member	type,0,14,8,8
    22                        	.member	Reserved0,8,14,8,8
    23                        	.member	data,16,129,8,32
    24                        	.member	last,48,138,8,32,2
    25                        	.member	next,80,138,8,32,2
    26                        	.member	name,112,110,8,0,32
    27                        	.member	Reserved1,368,16,8,16
    28                        	.eos
    29                        	.stag	_fx_nodelist,96,3
    30                        	.member	listhead,0,138,8,32,2
    31                        	.member	listData,32,129,8,32
    32                        	.member	deallocator,64,641,8,32
    33                        	.eos
    34                        	.stag	_fx_queue,80,4
    35                        	.member	count,0,5,8,16
    36                        	.member	front,16,138,8,32,2
    37                        	.member	rear,48,138,8,32,2
    38                        	.eos
    39                        	.stag	fake5_,32,5
    40                        	.member	subsystem,0,14,8,8
    41                        	.member	level,8,14,8,8
    42                        	.member	error,16,16,8,16
    43                        	.eos
    44                        	.stag	_fx_process_signal,16,6
    45                        	.member	cbSize,0,16,8,16
    46                        	.eos
    47                        	.stag	_fx_semaphore,16,7
    48                        	.member	reserved,0,5,8,16
    49                        	.eos
  Thu Dec  3 2020 22:25                                                Page 2


    50                        	.stag	_fx_fileBlock,552,8
    51                        	.member	openCount,0,16,8,16
    52                        	.member	lockCount,16,16,8,16
    53                        	.member	dirty,32,14,8,8
    54                        	.member	fileBuffer,40,110,8,0,64
    55                        	.eos
    56                        	.stag	_fx_irq_data,48,9
    57                        	.member	line,0,5,8,16
    58                        	.member	keycode,16,142,8,32
    59                        	.eos
    60                        	.stag	_task,48,10
    61                        	.member	SPL,0,14,8,8
    62                        	.member	SPH,8,14,8,8
    63                        	.member	pstack,16,142,8,32
    64                        	.eos
    65                        	.stag	_task_stack,32,11
    66                        	.member	SS,0,142,8,32
    67                        	.eos
    68                        	.stag	int_regs,104,12
    69                        	.member	PB,0,14,8,8
    70                        	.member	PH,8,14,8,8
    71                        	.member	PL,16,14,8,8
    72                        	.member	PP,24,14,8,8
    73                        	.member	DB,32,14,8,8
    74                        	.member	DH,40,14,8,8
    75                        	.member	DL,48,14,8,8
    76                        	.member	AH,56,14,8,8
    77                        	.member	AL,64,14,8,8
    78                        	.member	XH,72,14,8,8
    79                        	.member	XL,80,14,8,8
    80                        	.member	YH,88,14,8,8
    81                        	.member	YL,96,14,8,8
    82                        	.eos
    83                        	.stag	_fx_eventMessage,304,13
    84                        	.member	src,0,18,8,32
    85                        	.member	dest,32,18,8,32
    86                        	.member	type,64,16,8,16
    87                        	.member	hwnd,80,129,8,32
    88                        	.member	pheap,112,129,8,32
    89                        	.member	msgTime,144,18,8,32
    90                        	.member	data,176,110,8,0,16
    91                        	.eos
    92                        	.stag	_fx_cmdMessage,304,14
    93                        	.member	src,0,18,8,32
    94                        	.member	dest,32,18,8,32
    95                        	.member	type,64,16,8,16
    96                        	.member	hwnd,80,129,8,32
    97                        	.member	pheap,112,129,8,32
    98                        	.member	msgTime,144,18,8,32
    99                        	.member	cmdCId,176,16,8,16
   100                        	.member	cmdMId,192,16,8,16
   101                        	.member	parameter1,208,18,8,32
   102                        	.member	parameter2,240,18,8,32
   103                        	.member	parameter3,272,18,8,32
   104                        	.eos
   105                        	.stag	_fx_console_ctl,448,15
   106                        	.member	maxCols,0,5,8,16
   107                        	.member	maxRows,16,5,8,16
  Thu Dec  3 2020 22:25                                                Page 3


   108                        	.member	curX,32,5,8,16
   109                        	.member	curY,48,5,8,16
   110                        	.member	fgColor,64,5,8,16
   111                        	.member	bgColor,80,5,8,16
   112                        	.member	mode,96,14,8,8
   113                        	.member	kbBuffer,104,101,8,0,16
   114                        	.member	screenBuffer,360,142,8,32
   115                        	.member	desktopMode,392,14,8,8
   116                        	.member	lastMouseButton,400,5,8,16
   117                        	.member	lastMouseX,416,5,8,16
   118                        	.member	lastMouseY,432,5,8,16
   119                        	.eos
   120                        	.stag	_fx_desktop_ctl,392,16
   121                        	.member	desktopMode,0,14,8,8
   122                        	.member	cursorCtl,8,5,8,16
   123                        	.member	cursorState,24,5,8,16
   124                        	.member	backgroundColor,40,5,8,16
   125                        	.member	foregroundColor,56,5,8,16
   126                        	.member	menuMode,72,5,8,16
   127                        	.member	lastMouseButton,88,5,8,16
   128                        	.member	lastMouseX,104,5,8,16
   129                        	.member	lastMouseY,120,5,8,16
   130                        	.member	currentDiskName,136,142,8,32
   131                        	.member	diskNodes,168,129,8,32
   132                        	.member	titleNodes,200,129,8,32
   133                        	.member	menuNodes,232,129,8,32
   134                        	.member	iconNodes,264,129,8,32
   135                        	.member	windowNodes,296,129,8,32
   136                        	.member	fontNodes,328,129,8,32
   137                        	.member	wndProc,360,138,8,32,3
   138                        	.eos
   139                        	.stag	_fx_process,800,17
   140                        	.member	cbSize,0,5,8,16
   141                        	.member	procId,16,18,8,32
   142                        	.member	parentId,48,18,8,32
   143                        	.member	ctx,80,129,8,32
   144                        	.member	userId,112,16,8,16
   145                        	.member	status,128,16,8,16
   146                        	.member	foregroundActive,144,14,8,8
   147                        	.member	tls,152,1121,8,32,8
   148                        	.member	commandLine,408,142,8,32
   149                        	.member	semaphores,440,138,8,32,3
   150                        	.member	fileHandles,472,138,8,32,3
   151                        	.member	pathList,504,138,8,32,3
   152                        	.member	resources,536,138,8,32,3
   153                        	.member	timerAware,568,14,8,8
   154                        	.member	timerTicks,576,112,8,0,2
   155                        	.member	timerTickCount,608,112,8,0,2
   156                        	.member	kernelError,640,10,8,32,5
   157                        	.member	consoleCtl,672,138,8,32,15
   158                        	.member	desktopCtl,704,138,8,32,16
   159                        	.member	execProc,736,641,8,32
   160                        	.member	startupArgs,768,129,8,32
   161                        	.eos
   162                        	.stag	_fxProcessMessage,112,18
   163                        	.member	src,0,18,8,32
   164                        	.member	dest,32,18,8,32
   165                        	.member	type,64,16,8,16
  Thu Dec  3 2020 22:25                                                Page 4


   166                        	.member	processInfo,80,138,8,32,17
   167                        	.eos
   168                        	.stag	_fx_property,384,19
   169                        	.member	name,0,110,8,0,16
   170                        	.member	value,128,110,8,0,32
   171                        	.eos
   172                        	.utag	_24bitPointer,32,20
   173                        	.member	address,0,142,11,32
   174                        	.member	bytes,0,110,11,0,4
   175                        	.eos
   176                        	.stag	_PointStruct,32,21
   177                        	.member	x,0,5,8,16
   178                        	.member	y,16,5,8,16
   179                        	.eos
   180                        	.stag	_RectStruct,64,22
   181                        	.member	x,0,5,8,16
   182                        	.member	y,16,5,8,16
   183                        	.member	width,32,5,8,16
   184                        	.member	height,48,5,8,16
   185                        	.eos
   186                        	.stag	_k_WindowClass,256,23
   187                        	.member	cbSize,0,16,8,16
   188                        	.member	style,16,16,8,16
   189                        	.member	pWndProc,32,654,8,32
   190                        	.member	hInstance,64,129,8,32
   191                        	.member	hIcon,96,129,8,32
   192                        	.member	hCursor,128,129,8,32
   193                        	.member	hbrBackground,160,129,8,32
   194                        	.member	lpszMenuName,192,142,8,32
   195                        	.member	lpszClassName,224,142,8,32
   196                        	.eos
   197                        	.stag	_ClickableRect,88,24
   198                        	.member	area,0,10,8,64,22
   199                        	.member	z,64,5,8,16
   200                        	.member	enabled,80,14,8,8
   201                        	.eos
   202                        	.stag	_NCClickableRect,88,25
   203                        	.member	area,0,10,8,64,22
   204                        	.member	msgType,64,16,8,16
   205                        	.member	enabled,80,14,8,8
   206                        	.eos
   207                        	.stag	_DragData,136,26
   208                        	.member	area,0,10,8,64,22
   209                        	.member	xoffset,64,5,8,16
   210                        	.member	yoffset,80,5,8,16
   211                        	.member	msgType,96,16,8,16
   212                        	.member	isDrag,112,14,8,8
   213                        	.member	canDrag,120,14,8,8
   214                        	.member	canDrop,128,14,8,8
   215                        	.eos
   216                        	.stag	_k_WindowStruct,2808,27
   217                        	.member	cbSize,0,16,8,16
   218                        	.member	style,16,18,8,32
   219                        	.member	win_id,48,5,8,16
   220                        	.member	win_x,64,5,8,16
   221                        	.member	win_y,80,5,8,16
   222                        	.member	win_width,96,5,8,16
   223                        	.member	win_height,112,5,8,16
  Thu Dec  3 2020 22:25                                                Page 5


   224                        	.member	wndRect,128,10,8,64,22
   225                        	.member	clientRect,192,10,8,64,22
   226                        	.member	nonclientGadgets,256,106,8,0,25,16
   227                        	.member	clickable,1664,129,8,32
   228                        	.member	win_title,1696,110,8,0,32
   229                        	.member	Reserved0,1952,16,8,16
   230                        	.member	win_class,1968,110,8,0,16
   231                        	.member	win_class_name,2096,110,8,0,32
   232                        	.member	nBitmapLayer,2352,16,8,16
   233                        	.member	procid,2368,18,8,32
   234                        	.member	pWndClass,2400,138,8,32,23
   235                        	.member	pParentWindow,2432,129,8,32
   236                        	.member	hMenu,2464,129,8,32
   237                        	.member	pChildWindows,2496,138,8,32,3
   238                        	.member	pChildHitList,2528,138,8,32,3
   239                        	.member	isVisible,2560,14,8,8
   240                        	.member	windowData,2568,129,8,32
   241                        	.member	clientData,2600,1121,8,32,6
   242                        	.member	isClosed,2792,14,8,8
   243                        	.member	isClosing,2800,14,8,8
   244                        	.eos
   245                        	.stag	_k_WindowStructEx,2704,28
   246                        	.member	cbSize,0,16,8,16
   247                        	.member	style,16,18,8,32
   248                        	.member	win_id,48,5,8,16
   249                        	.member	win_x,64,5,8,16
   250                        	.member	win_y,80,5,8,16
   251                        	.member	win_width,96,5,8,16
   252                        	.member	win_height,112,5,8,16
   253                        	.member	wndRect,128,10,8,64,22
   254                        	.member	clientRect,192,10,8,64,22
   255                        	.member	nonclientGadgets,256,106,8,0,25,16
   256                        	.member	clickable,1664,129,8,32
   257                        	.member	win_title,1696,110,8,0,32
   258                        	.member	Reserved0,1952,16,8,16
   259                        	.member	win_class,1968,110,8,0,16
   260                        	.member	nBitmapLayer,2096,16,8,16
   261                        	.member	procid,2112,18,8,32
   262                        	.member	pWndClass,2144,138,8,32,23
   263                        	.member	pParentWindow,2176,129,8,32
   264                        	.member	hMenu,2208,129,8,32
   265                        	.member	pChildWindows,2240,138,8,32,3
   266                        	.member	pChildHitList,2272,138,8,32,3
   267                        	.member	isVisible,2304,14,8,8
   268                        	.member	windowData,2312,129,8,32
   269                        	.member	clientData,2344,1121,8,32,4
   270                        	.member	isClosed,2472,14,8,8
   271                        	.member	hWnd,2480,129,8,32
   272                        	.member	localRect,2512,10,8,64,22
   273                        	.member	globalRect,2576,10,8,64,22
   274                        	.member	clientOffsetRect,2640,10,8,64,22
   275                        	.eos
   276                        	.stag	_FontMetric,32,29
   277                        	.member	width,0,5,8,16
   278                        	.member	height,16,5,8,16
   279                        	.eos
   280                        	.stag	_ctl_Textbox,112,30
   281                        	.member	win_id,0,5,8,16
  Thu Dec  3 2020 22:25                                                Page 6


   282                        	.member	win_x,16,5,8,16
   283                        	.member	win_y,32,5,8,16
   284                        	.member	win_width,48,5,8,16
   285                        	.member	win_height,64,5,8,16
   286                        	.member	content,80,1166,8,32
   287                        	.eos
   288                        	.stag	_MenuStruct,248,31
   289                        	.member	cx,0,5,8,16
   290                        	.member	cy,16,5,8,16
   291                        	.member	width,32,5,8,16
   292                        	.member	height,48,5,8,16
   293                        	.member	fcolor,64,14,8,8
   294                        	.member	bcolor,72,14,8,8
   295                        	.member	chromeLeft,80,14,8,8
   296                        	.member	chromeRight1,88,14,8,8
   297                        	.member	chromeRight2,96,14,8,8
   298                        	.member	itemId,104,16,8,16
   299                        	.member	pCaption,120,142,8,32
   300                        	.member	subMenus,152,138,8,32,3
   301                        	.member	pBackground,184,129,8,32
   302                        	.member	hWndOwner,216,129,8,32
   303                        	.eos
   304                        	.stag	fake32_,112,32
   305                        	.member	menuId,0,16,8,16
   306                        	.member	caption,16,142,8,32
   307                        	.member	rect,48,10,8,64,22
   308                        	.eos
   309                        	.stag	fake33_,3568,33
   310                        	.member	pParent,0,138,8,32,27
   311                        	.member	rect,32,10,8,64,22
   312                        	.member	captions,96,1134,8,32,24
   313                        	.member	chrome,864,110,8,0,24
   314                        	.member	ids,1056,112,8,0,24
   315                        	.member	clickable,1440,106,8,0,24,24
   316                        	.member	selected,3552,16,8,16
   317                        	.eos
   318                        	.stag	_fx_button_t,80,34
   319                        	.member	pCaption,0,142,8,32
   320                        	.member	data,32,129,8,32
   321                        	.member	captionPixelWidth,64,16,8,16
   322                        	.eos
   323                        	.stag	_fx_scrollbar_t,192,35
   324                        	.member	min,0,16,8,16
   325                        	.member	max,16,16,8,16
   326                        	.member	increment,32,16,8,16
   327                        	.member	stopsize,48,16,8,16
   328                        	.member	location,64,5,8,16
   329                        	.member	state,80,5,8,16
   330                        	.member	rectThumb,96,10,8,64,22
   331                        	.member	data,160,129,8,32
   332                        	.eos
   333                        	.stag	_fx_listbox_t,240,36
   334                        	.member	pos,0,5,8,16
   335                        	.member	selected,16,16,8,16
   336                        	.member	offsetX,32,5,8,16
   337                        	.member	offsetY,48,5,8,16
   338                        	.member	inc,64,5,8,16
   339                        	.member	direction,80,5,8,16
  Thu Dec  3 2020 22:25                                                Page 7


   340                        	.member	top,96,5,8,16
   341                        	.member	bottom,112,5,8,16
   342                        	.member	indexTop,128,5,8,16
   343                        	.member	indexBottom,144,5,8,16
   344                        	.member	maxItems,160,16,8,16
   345                        	.member	fontSet,176,142,8,32
   346                        	.member	data,208,129,8,32
   347                        	.eos
   348                        	.stag	_fx_textbox_t,144,37
   349                        	.member	pos,0,5,8,16
   350                        	.member	selected,16,16,8,16
   351                        	.member	offsetX,32,5,8,16
   352                        	.member	offsetY,48,5,8,16
   353                        	.member	isShifted,64,14,8,8
   354                        	.member	cursorState,72,14,8,8
   355                        	.member	fontSet,80,142,8,32
   356                        	.member	data,112,129,8,32
   357                        	.eos
   358                        	.stag	_fx_menuAnchor_t,144,38
   359                        	.member	pCaption,0,142,8,32
   360                        	.member	renderLayoutX,32,16,8,16
   361                        	.member	renderLayoutY,48,16,8,16
   362                        	.member	captionPixelWidth,64,16,8,16
   363                        	.member	data,80,129,8,32
   364                        	.member	droppedWindow,112,138,8,32,27
   365                        	.eos
   366                        	.stag	_SubMenuStruct,64,39
   367                        	.member	caption,0,142,8,32
   368                        	.member	action,32,641,8,32
   369                        	.eos
   370                        	.stag	_SubMenuListStruct,40,40
   371                        	.member	cMenus,0,14,8,8
   372                        	.member	psubmenus,8,9354,8,32,39
   373                        	.eos
   374                        	.stag	_fx_ComBuffer,2080,41
   375                        	.member	cbSize,0,16,8,16
   376                        	.member	cbBuffer,16,16,8,16
   377                        	.member	buffer,32,110,8,0,256
   378                        	.eos
   379                        	.line	708
   380                        	.file	"G:\devprojects\c256Foenix\fxos\FXOSWork
                    space\FXOSv1\src\fxwindowmanager.h",5
   381                        	.file	"G:\devprojects\c256Foenix\fxos\FXOSWork
                    space\FXOSv1\src\fxos.h",0
   382                        	.file	"G:\devtools\WDCTools\wdc\Tools\include\
                    stdlib.h",0
   383                        	.file	"G:\devtools\WDCTools\wdc\Tools\include\
                    stddef.h",0
   384                        	.line	88
   385                        	.file	"G:\devtools\WDCTools\wdc\Tools\include\
                    stdlib.h",43
   386                        	.stag	fake42_,32,42
   387                        	.member	quot,0,5,8,16
   388                        	.member	rem,16,5,8,16
   389                        	.eos
   390                        	.stag	fake43_,64,43
   391                        	.member	quot,0,7,8,32
   392                        	.member	rem,32,7,8,32
  Thu Dec  3 2020 22:25                                                Page 8


   393                        	.eos
   394                        	.stag	int_sqrt,32,44
   395                        	.member	sqrt,0,16,8,16
   396                        	.member	frac,16,16,8,16
   397                        	.eos
   398                        	.line	205
   399                        	.file	"G:\devprojects\c256Foenix\fxos\FXOSWork
                    space\FXOSv1\src\fxos.h",4
   400                        	.file	"G:\devtools\WDCTools\wdc\Tools\include\
                    string.h",0
   401                        	.line	134
   402                        	.file	"G:\devprojects\c256Foenix\fxos\FXOSWork
                    space\FXOSv1\src\fxos.h",5
   403                        	.file	"G:\devtools\WDCTools\wdc\Tools\include\
                    ctype.h",0
   404                        	.line	103
   405                        	.file	"G:\devprojects\c256Foenix\fxos\FXOSWork
                    space\FXOSv1\src\fxos.h",6
   406                        	.file	"G:\devprojects\c256Foenix\fxos\FXOSWork
                    space\FXOSv1\src\fxtypes.h",0
   407                        	.line	708
   408                        	.file	"G:\devprojects\c256Foenix\fxos\FXOSWork
                    space\FXOSv1\src\fxos.h",8
   409                        	.file	"G:\devprojects\c256Foenix\fxos\FXOSWork
                    space\FXOSv1\src\fxstringtable.h",0
   410                        	.line	89
   411                        	.file	"G:\devprojects\c256Foenix\fxos\FXOSWork
                    space\FXOSv1\src\fxos.h",9
   412                        	.file	"G:\devprojects\c256Foenix\fxos\FXOSWork
                    space\FXOSv1\src\fxc256fmx.h",0
   413                        	.file	"G:\devprojects\c256Foenix\fxos\FXOSWork
                    space\FXOSv1\src\fxtypes.h",0
   414                        	.line	708
   415                        	.file	"G:\devprojects\c256Foenix\fxos\FXOSWork
                    space\FXOSv1\src\fxc256fmx.h",5
   416                        	.file	"G:\devprojects\c256Foenix\fxos\FXOSWork
                    space\FXOSv1\src\fmx_vicky.h",0
   417                        	.file	"G:\devprojects\c256Foenix\fxos\FXOSWork
                    space\FXOSv1\src\fxtypes.h",0
   418                        	.line	708
   419                        	.file	"G:\devprojects\c256Foenix\fxos\FXOSWork
                    space\FXOSv1\src\fmx_vicky.h",11
   420                        	.line	72
   421                        	.file	"G:\devprojects\c256Foenix\fxos\FXOSWork
                    space\FXOSv1\src\fxc256fmx.h",6
   422                        	.line	1325
   423                        	.file	"G:\devprojects\c256Foenix\fxos\FXOSWork
                    space\FXOSv1\src\fxos.h",13
   424                        	.file	"G:\devprojects\c256Foenix\fxos\FXOSWork
                    space\FXOSv1\src\fxkernel.h",0
   425                        	.file	"G:\devprojects\c256Foenix\fxos\FXOSWork
                    space\FXOSv1\src\fxos.h",0
   426                        	.line	25
   427                        	.file	"G:\devprojects\c256Foenix\fxos\FXOSWork
                    space\FXOSv1\src\fxkernel.h",5
   428                        	.file	"G:\devprojects\c256Foenix\fxos\FXOSWork
                    space\FXOSv1\src\fxnode.h",0
   429                        	.file	"G:\devprojects\c256Foenix\fxos\FXOSWork
  Thu Dec  3 2020 22:25                                                Page 9


                    space\FXOSv1\src\fxtypes.h",0
   430                        	.line	708
   431                        	.file	"G:\devprojects\c256Foenix\fxos\FXOSWork
                    space\FXOSv1\src\fxnode.h",5
   432                        	.line	61
   433                        	.file	"G:\devprojects\c256Foenix\fxos\FXOSWork
                    space\FXOSv1\src\fxkernel.h",6
   434                        	.stag	_fx_zero_page,448,45
   435                        	.member	fxos_mouse_byte_0,0,14,8,8
   436                        	.member	fxos_mouse_byte_1,8,14,8,8
   437                        	.member	fxos_mouse_byte_2,16,14,8,8
   438                        	.member	fxos_mouse_byte_t,24,14,8,8
   439                        	.member	fxos_mouse_byte_x_l,32,14,8,8
   440                        	.member	fxos_mouse_byte_x_h,40,14,8,8
   441                        	.member	fxos_mouse_byte_y_l,48,14,8,8
   442                        	.member	fxos_mouse_byte_y_h,56,14,8,8
   443                        	.member	fxos_key_byte_0,64,14,8,8
   444                        	.member	fxos_key_byte_1,72,14,8,8
   445                        	.member	fxos_key_byte_2,80,14,8,8
   446                        	.member	fxos_mouse_ctl,88,14,8,8
   447                        	.member	fxos_mouse_index,96,14,8,8
   448                        	.member	fxos_mouse_status,104,14,8,8
   449                        	.member	VersionMajor,112,16,8,16
   450                        	.member	VersionMinor,128,16,8,16
   451                        	.member	VersionRelease,144,16,8,16
   452                        	.member	topMemory,160,18,8,32
   453                        	.member	bottomMemory,192,18,8,32
   454                        	.member	availableMemory,224,18,8,32
   455                        	.member	availableMemoryK,256,18,8,32
   456                        	.member	availableHeapMemory,288,18,8,32
   457                        	.member	availableHeapMemoryK,320,18,8,32
   458                        	.member	kernelFunctionCallId,352,16,8,16
   459                        	.member	kernelFunctionCallBank,368,14,8,8
   460                        	.member	kernelFunctionCallReserved,376,14,8,8
   461                        	.member	kernelFunctionCallParameter,384,129,8,32
   462                        	.member	kernelFunctionCallReturn,416,129,8,32
   463                        	.eos
   464                        	.stag	_fx_environment,96,46
   465                        	.member	variables,0,142,8,32
   466                        	.member	reserved1,32,5,8,16
   467                        	.member	reserved2,48,5,8,16
   468                        	.member	reserved3,64,5,8,16
   469                        	.member	reserved4,80,5,8,16
   470                        	.eos
   471                        	.stag	_debug_byte_bits,8,47
   472                        	.member	bit7,0,14,17,1
   473                        	.member	bit6,1,14,17,1
   474                        	.member	bit5,2,14,17,1
   475                        	.member	bit4,3,14,17,1
   476                        	.member	bit3,4,14,17,1
   477                        	.member	bit2,5,14,17,1
   478                        	.member	bit1,6,14,17,1
   479                        	.member	bit0,7,14,17,1
   480                        	.eos
   481                        	.stag	_fx_device_driver,1416,48
   482                        	.member	name,0,110,8,0,64
   483                        	.member	version,512,110,8,0,64
   484                        	.member	hmajor,1024,110,8,0,16
  Thu Dec  3 2020 22:25                                                Page 10


   485                        	.member	hminor,1152,110,8,0,16
   486                        	.member	type,1280,14,8,8
   487                        	.member	f_driver_load,1288,129,8,32
   488                        	.member	f_driver_read,1320,129,8,32
   489                        	.member	f_driver_write,1352,129,8,32
   490                        	.member	f_driver_unload,1384,129,8,32
   491                        	.eos
   492                        	.stag	_fx_block_device_driver,1448,49
   493                        	.member	name,0,110,8,0,64
   494                        	.member	version,512,110,8,0,64
   495                        	.member	hmajor,1024,110,8,0,16
   496                        	.member	hminor,1152,110,8,0,16
   497                        	.member	type,1280,14,8,8
   498                        	.member	f_driver_load,1288,129,8,32
   499                        	.member	f_driver_read,1320,129,8,32
   500                        	.member	f_driver_write,1352,129,8,32
   501                        	.member	f_driver_unload,1384,129,8,32
   502                        	.member	f_driver_command,1416,129,8,32
   503                        	.eos
   504                        	.line	270
   505                        	.file	"G:\devprojects\c256Foenix\fxos\FXOSWork
                    space\FXOSv1\src\fxos.h",19
   506                        	.file	"G:\devprojects\c256Foenix\fxos\FXOSWork
                    space\FXOSv1\src\fxconsole.h",0
   507                        	.file	"G:\devtools\WDCTools\wdc\Tools\include\
                    string.h",0
   508                        	.line	134
   509                        	.file	"G:\devprojects\c256Foenix\fxos\FXOSWork
                    space\FXOSv1\src\fxconsole.h",5
   510                        	.file	"G:\devtools\WDCTools\wdc\Tools\include\
                    stdlib.h",0
   511                        	.line	205
   512                        	.file	"G:\devprojects\c256Foenix\fxos\FXOSWork
                    space\FXOSv1\src\fxconsole.h",6
   513                        	.file	"G:\devprojects\c256Foenix\fxos\FXOSWork
                    space\FXOSv1\src\fxtypes.h",0
   514                        	.line	708
   515                        	.file	"G:\devprojects\c256Foenix\fxos\FXOSWork
                    space\FXOSv1\src\fxconsole.h",7
   516                        	.file	"G:\devprojects\c256Foenix\fxos\FXOSWork
                    space\FXOSv1\src\fxc256fmx.h",0
   517                        	.line	1325
   518                        	.file	"G:\devprojects\c256Foenix\fxos\FXOSWork
                    space\FXOSv1\src\fxconsole.h",10
   519                        	.file	"G:\devprojects\c256Foenix\fxos\FXOSWork
                    space\FXOSv1\src\fxstring.h",0
   520                        	.file	"G:\devtools\WDCTools\wdc\Tools\include\
                    stdlib.h",0
   521                        	.line	205
   522                        	.file	"G:\devprojects\c256Foenix\fxos\FXOSWork
                    space\FXOSv1\src\fxstring.h",5
   523                        	.file	"G:\devtools\WDCTools\wdc\Tools\include\
                    string.h",0
   524                        	.line	134
   525                        	.file	"G:\devprojects\c256Foenix\fxos\FXOSWork
                    space\FXOSv1\src\fxstring.h",6
   526                        	.file	"G:\devprojects\c256Foenix\fxos\FXOSWork
                    space\FXOSv1\src\fxtypes.h",0
  Thu Dec  3 2020 22:25                                                Page 11


   527                        	.line	708
   528                        	.file	"G:\devprojects\c256Foenix\fxos\FXOSWork
                    space\FXOSv1\src\fxstring.h",7
   529                        	.stag	_fx_string,64,50
   530                        	.member	size,0,16,8,16
   531                        	.member	pos,16,5,8,16
   532                        	.member	buffer,32,142,8,32
   533                        	.eos
   534                        	.line	71
   535                        	.file	"G:\devprojects\c256Foenix\fxos\FXOSWork
                    space\FXOSv1\src\fxconsole.h",15
   536                        	.file	"G:\devprojects\c256Foenix\fxos\FXOSWork
                    space\FXOSv1\src\fxeventmanager.h",0
   537                        	.file	"G:\devprojects\c256Foenix\fxos\FXOSWork
                    space\FXOSv1\src\fxos.h",0
   538                        	.line	25
   539                        	.file	"G:\devprojects\c256Foenix\fxos\FXOSWork
                    space\FXOSv1\src\fxeventmanager.h",5
   540                        	.file	"G:\devprojects\c256Foenix\fxos\FXOSWork
                    space\FXOSv1\src\fxexec.h",0
   541                        	.file	"G:\devprojects\c256Foenix\fxos\FXOSWork
                    space\FXOSv1\src\fxtypes.h",0
   542                        	.line	708
   543                        	.file	"G:\devprojects\c256Foenix\fxos\FXOSWork
                    space\FXOSv1\src\fxexec.h",5
   544                        	.line	52
   545                        	.file	"G:\devprojects\c256Foenix\fxos\FXOSWork
                    space\FXOSv1\src\fxeventmanager.h",6
   546                        	.file	"G:\devprojects\c256Foenix\fxos\FXOSWork
                    space\FXOSv1\src\fxnode.h",0
   547                        	.line	61
   548                        	.file	"G:\devprojects\c256Foenix\fxos\FXOSWork
                    space\FXOSv1\src\fxeventmanager.h",7
   549                        	.file	"G:\devprojects\c256Foenix\fxos\FXOSWork
                    space\FXOSv1\src\fxconsole.h",0
   550                        	.line	171
   551                        	.file	"G:\devprojects\c256Foenix\fxos\FXOSWork
                    space\FXOSv1\src\fxeventmanager.h",8
   552                        	.file	"G:\devprojects\c256Foenix\fxos\FXOSWork
                    space\FXOSv1\src\fxwindowmanager.h",0
   553                        	.line	362
   554                        	.file	"G:\devprojects\c256Foenix\fxos\FXOSWork
                    space\FXOSv1\src\fxeventmanager.h",9
   555                        	.stag	_fx_main_loopvars,16,51
   556                        	.member	dummy,0,5,8,16
   557                        	.eos
   558                        	.stag	_fxMouseMessageData,64,52
   559                        	.member	button1,0,14,8,8
   560                        	.member	button2,8,14,8,8
   561                        	.member	button3,16,14,8,8
   562                        	.member	button4,24,14,8,8
   563                        	.member	x,32,16,8,16
   564                        	.member	y,48,16,8,16
   565                        	.eos
   566                        	.stag	_fx_eventProcess,64,53
   567                        	.member	process,0,138,8,32,17
   568                        	.member	eventProc,32,641,8,32
   569                        	.eos
  Thu Dec  3 2020 22:25                                                Page 12


   570                        	.stag	_mouse_msg_state,184,54
   571                        	.member	lastEvent,0,18,8,32
   572                        	.member	buttonLeftDown,32,14,8,8
   573                        	.member	lastLeftDown,40,18,8,32
   574                        	.member	buttonRightDown,72,14,8,8
   575                        	.member	lastRightDown,80,18,8,32
   576                        	.member	buttonMiddleDown,112,14,8,8
   577                        	.member	lastMiddleDown,120,18,8,32
   578                        	.member	lastX,152,16,8,16
   579                        	.member	lastY,168,16,8,16
   580                        	.eos
   581                        	.line	743
   582                        	.file	"G:\devprojects\c256Foenix\fxos\FXOSWork
                    space\FXOSv1\src\fxconsole.h",16
   583                        	.stag	_fx_spinner_ctx,48,55
   584                        	.member	index,0,5,8,16
   585                        	.member	spinner,16,142,8,32
   586                        	.eos
   587                        	.stag	_fx_console_ctx,1144,56
   588                        	.member	lineBufferIndex,0,5,8,16
   589                        	.member	lineBuffer,16,110,8,0,128
   590                        	.member	isShifted,1040,14,8,8
   591                        	.member	userData,1048,129,8,32
   592                        	.member	screenBuffer,1080,129,8,32
   593                        	.member	Reserved1,1112,129,8,32
   594                        	.eos
   595                        	.stag	_token,64,57
   596                        	.member	type,0,5,8,16
   597                        	.member	depth,16,16,8,16
   598                        	.member	text,32,142,8,32
   599                        	.eos
   600                        	.stag	_command_args,64,58
   601                        	.member	proc,0,656,8,32
   602                        	.member	tokens,32,138,8,32,2
   603                        	.eos
   604                        	.line	171
   605                        	.file	"G:\devprojects\c256Foenix\fxos\FXOSWork
                    space\FXOSv1\src\fxos.h",20
   606                        	.file	"G:\devprojects\c256Foenix\fxos\FXOSWork
                    space\FXOSv1\src\fxstring.h",0
   607                        	.line	71
   608                        	.file	"G:\devprojects\c256Foenix\fxos\FXOSWork
                    space\FXOSv1\src\fxos.h",21
   609                        	.file	"G:\devprojects\c256Foenix\fxos\FXOSWork
                    space\FXOSv1\src\fxnode.h",0
   610                        	.line	61
   611                        	.file	"G:\devprojects\c256Foenix\fxos\FXOSWork
                    space\FXOSv1\src\fxos.h",22
   612                        	.line	25
   613                        	.file	"G:\devprojects\c256Foenix\fxos\FXOSWork
                    space\FXOSv1\src\fxwindowmanager.h",6
   614                        	.file	"G:\devprojects\c256Foenix\fxos\FXOSWork
                    space\FXOSv1\src\fxmemorymanager.h",0
   615                        	.file	"G:\devprojects\c256Foenix\fxos\FXOSWork
                    space\FXOSv1\src\fxos.h",0
   616                        	.line	25
   617                        	.file	"G:\devprojects\c256Foenix\fxos\FXOSWork
                    space\FXOSv1\src\fxmemorymanager.h",5
  Thu Dec  3 2020 22:25                                                Page 13


   618                        	.file	"G:\devprojects\c256Foenix\fxos\FXOSWork
                    space\FXOSv1\src\umm_malloc_cfg.h",0
   619                        	.file	"G:\devprojects\c256Foenix\fxos\FXOSWork
                    space\FXOSv1\src\fxos_build_parameters.h",0
   620                        	.line	32
   621                        	.file	"G:\devprojects\c256Foenix\fxos\FXOSWork
                    space\FXOSv1\src\umm_malloc_cfg.h",8
   622                        	.stag	UMM_HEAP_INFO_t,256,59
   623                        	.member	totalEntries,0,18,8,32
   624                        	.member	usedEntries,32,18,8,32
   625                        	.member	freeEntries,64,18,8,32
   626                        	.member	totalBlocks,96,18,8,32
   627                        	.member	usedBlocks,128,18,8,32
   628                        	.member	freeBlocks,160,18,8,32
   629                        	.member	maxFreeContiguousBlocks,192,18,8,32
   630                        	.member	blockSize,224,18,8,32
   631                        	.eos
   632                        	.line	199
   633                        	.file	"G:\devprojects\c256Foenix\fxos\FXOSWork
                    space\FXOSv1\src\fxmemorymanager.h",6
   634                        	.file	"G:\devprojects\c256Foenix\fxos\FXOSWork
                    space\FXOSv1\src\umm_malloc.h",0
   635                        	.file	"G:\devprojects\c256Foenix\fxos\FXOSWork
                    space\FXOSv1\src\fxtypes.h",0
   636                        	.line	708
   637                        	.file	"G:\devprojects\c256Foenix\fxos\FXOSWork
                    space\FXOSv1\src\umm_malloc.h",11
   638                        	.line	24
   639                        	.file	"G:\devprojects\c256Foenix\fxos\FXOSWork
                    space\FXOSv1\src\fxmemorymanager.h",7
   640                        	.stag	_fx_memory_map,2072,60
   641                        	.member	availableMemory,0,18,8,32
   642                        	.member	valid_segments,32,110,8,0,255
   643                        	.eos
   644                        	.line	39
   645                        	.file	"G:\devprojects\c256Foenix\fxos\FXOSWork
                    space\FXOSv1\src\fxwindowmanager.h",7
   646                        	.file	"G:\devprojects\c256Foenix\fxos\FXOSWork
                    space\FXOSv1\src\fxeventmanager.h",0
   647                        	.line	743
   648                        	.file	"G:\devprojects\c256Foenix\fxos\FXOSWork
                    space\FXOSv1\src\fxwindowmanager.h",8
   649                        	.file	"G:\devprojects\c256Foenix\fxos\FXOSWork
                    space\FXOSv1\src\fxgui.h",0
   650                        	.file	"G:\devprojects\c256Foenix\fxos\FXOSWork
                    space\FXOSv1\src\fxfont.h",0
   651                        	.file	"G:\devprojects\c256Foenix\fxos\FXOSWork
                    space\FXOSv1\src\fxtypes.h",0
   652                        	.line	708
   653                        	.file	"G:\devprojects\c256Foenix\fxos\FXOSWork
                    space\FXOSv1\src\fxfont.h",6
   654                        	.line	64
   655                        	.file	"G:\devprojects\c256Foenix\fxos\FXOSWork
                    space\FXOSv1\src\fxgui.h",4
   656                        	.stag	_click_detected,64,61
   657                        	.member	window,0,138,8,32,27
   658                        	.member	handler,32,641,8,32
   659                        	.eos
  Thu Dec  3 2020 22:25                                                Page 14


   660                        	.stag	_current_palette_map,400,62
   661                        	.member	CUR_DESKTOP,0,5,8,16
   662                        	.member	CUR_BACKGROUND,16,5,8,16
   663                        	.member	CUR_FONT,32,5,8,16
   664                        	.member	CUR_SELECTED_FONT,48,5,8,16
   665                        	.member	CUR_HIGHLIGHT_COLOR,64,5,8,16
   666                        	.member	CUR_WINDOWFRAME,80,5,8,16
   667                        	.member	CUR_WINDOWBORDER,96,5,8,16
   668                        	.member	CUR_WINDOWSHADOW,112,5,8,16
   669                        	.member	CUR_MENU,128,5,8,16
   670                        	.member	CUR_GADGET,144,5,8,16
   671                        	.member	CUR_COLOR,160,101,8,0,15
   672                        	.eos
   673                        	.line	264
   674                        	.file	"G:\devprojects\c256Foenix\fxos\FXOSWork
                    space\FXOSv1\src\fxwindowmanager.h",9
   675                        	.stag	_childMessage_t,64,63
   676                        	.member	msgType,0,16,8,16
   677                        	.member	msgData,16,129,8,32
   678                        	.member	dataSize,48,16,8,16
   679                        	.eos
   680                        	.line	362
   681                        	.file	"G:\devprojects\c256Foenix\fxos\FXOSWork
                    space\FXOSv1\src\fx_ctl_scrollbar.c",1
   682                        ;#include "fxfont.h"
   683                        	.file	"G:\devprojects\c256Foenix\fxos\FXOSWork
                    space\FXOSv1\src\fxfont.h",0
   684                        	.line	64
   685                        	.file	"G:\devprojects\c256Foenix\fxos\FXOSWork
                    space\FXOSv1\src\fx_ctl_scrollbar.c",2
   686                        ;
   687                        ;VOID processSBCommand(PWINDOW pWin, UINT cmdCId,U
                    INT cmdMId,ULONG parameter1);
   688                        ;
   689                        ;
   690                        ;PWINDOW	k_user_CreateVerticalScrollBar(HWND hWnd
                    Parent,LPCSTR caption,UINT buttonId)
   691                        ;{
   692                        	.line	7
   693                        	.line	8
   694                        	code
   695                        	xdef	~~k_user_CreateVerticalScrollBar
   696                        	func
   697                        	.function	8
   698                        ~~k_user_CreateVerticalScrollBar:
   699                        	longa	on
   700                        	longi	on
   701 00:0000: 3B           	tsc
   702 00:0001: 38           	sec
   703 00:0002: E9 18 00     	sbc	#L2
   704 00:0005: 1B           	tcs
   705 00:0006: 0B           	phd
   706 00:0007: 5B           	tcd
   707             00000004   hWndParent_0	set	4
   708             00000008   caption_0	set	8
   709             0000000C   buttonId_0	set	12
   710                        	.block	8
   711                        ;	PWINDOW pWin = NULL;
  Thu Dec  3 2020 22:25                                                Page 15


   712                        ;	PWINDOW pParent = NULL;
   713                        ;
   714                        ;	int x;
   715                        ;	int y;
   716                        ;	int width;
   717                        ;	int height;
   718                        ;
   719                        ;
   720                        ;
   721                        ;	pParent = k_getWindowFromHandle(hWndParent);
   722             00000000   pWin_1	set	0
   723             00000004   pParent_1	set	4
   724             00000008   x_1	set	8
   725             0000000A   y_1	set	10
   726             0000000C   width_1	set	12
   727             0000000E   height_1	set	14
   728                        	.sym	pWin,0,138,1,32,27
   729                        	.sym	pParent,4,138,1,32,27
   730                        	.sym	x,8,5,1,16
   731                        	.sym	y,10,5,1,16
   732                        	.sym	width,12,5,1,16
   733                        	.sym	height,14,5,1,16
   734                        	.sym	hWndParent,4,129,6,32
   735                        	.sym	caption,8,142,6,32
   736                        	.sym	buttonId,12,16,6,16
   737 00:0008: 64 09        	stz	<L3+pWin_1
   738 00:000A: 64 0B        	stz	<L3+pWin_1+2
   739 00:000C: 64 0D        	stz	<L3+pParent_1
   740 00:000E: 64 0F        	stz	<L3+pParent_1+2
   741                        	.line	19
   742 00:0010: D4 1E        	pei	<L2+hWndParent_0+2
   743 00:0012: D4 1C        	pei	<L2+hWndParent_0
   744 00:0014: 22 xx xx xx  	jsl	~~k_getWindowFromHandle
   745 00:0018: 85 0D        	sta	<L3+pParent_1
   746 00:001A: 86 0F        	stx	<L3+pParent_1+2
   747                        ;
   748                        ;	width = k_user_getSystemMetric(SM_CXVSCROLL);
   749                        	.line	21
   750 00:001C: F4 02 00     	pea	#<$2
   751 00:001F: 22 xx xx xx  	jsl	~~k_user_getSystemMetric
   752 00:0023: 85 15        	sta	<L3+width_1
   753                        ;
   754                        ;	if(pParent->style & FXWS_THICKFRAME)
   755                        	.line	23
   756                        ;	{
   757 00:0025: A0 04 00     	ldy	#$4
   758 00:0028: B7 0D        	lda	[<L3+pParent_1],Y
   759 00:002A: 29 02 00     	and	#^$20000
   760 00:002D: D0 03        	bne	L5
   761 00:002F: 82 1D 00     	brl	L10001
   762                        L5:
   763                        	.line	24
   764                        ;		//k_debug_integer("k_user_CreateVertScro
                    llBar:SM_CXFRAME:" , k_user_getSystemMetric(SM_CXFRAME) );
   765                        ;		x = pParent->win_width - width - k_user_
                    getSystemMetric(SM_CXFRAME) ;// + 2;
   766                        	.line	26
   767 00:0032: F4 20 00     	pea	#<$20
  Thu Dec  3 2020 22:25                                                Page 16


   768 00:0035: 22 xx xx xx  	jsl	~~k_user_getSystemMetric
   769 00:0039: 85 01        	sta	<R0
   770 00:003B: 38           	sec
   771 00:003C: A0 0C 00     	ldy	#$c
   772 00:003F: B7 0D        	lda	[<L3+pParent_1],Y
   773 00:0041: E5 15        	sbc	<L3+width_1
   774 00:0043: 85 05        	sta	<R1
   775 00:0045: 38           	sec
   776 00:0046: A5 05        	lda	<R1
   777 00:0048: E5 01        	sbc	<R0
   778 00:004A: 85 11        	sta	<L3+x_1
   779                        ;	}
   780                        	.line	27
   781                        ;	else if(pParent->style & FXWS_BORDER)
   782 00:004C: 82 44 00     	brl	L10002
   783                        L10001:
   784                        	.line	28
   785                        ;	{
   786 00:004F: A0 04 00     	ldy	#$4
   787 00:0052: B7 0D        	lda	[<L3+pParent_1],Y
   788 00:0054: 29 01 00     	and	#^$10000
   789 00:0057: D0 03        	bne	L6
   790 00:0059: 82 1D 00     	brl	L10003
   791                        L6:
   792                        	.line	29
   793                        ;		//k_debug_integer("k_user_CreateVertScro
                    llBar:FXWS_BORDER:" , k_user_getSystemMetric(SM_CXBORDER) );
   794                        ;		x = pParent->win_width - width - k_user_
                    getSystemMetric(SM_CXBORDER);// + 2;
   795                        	.line	31
   796 00:005C: F4 05 00     	pea	#<$5
   797 00:005F: 22 xx xx xx  	jsl	~~k_user_getSystemMetric
   798 00:0063: 85 01        	sta	<R0
   799 00:0065: 38           	sec
   800 00:0066: A0 0C 00     	ldy	#$c
   801 00:0069: B7 0D        	lda	[<L3+pParent_1],Y
   802 00:006B: E5 15        	sbc	<L3+width_1
   803 00:006D: 85 05        	sta	<R1
   804 00:006F: 38           	sec
   805 00:0070: A5 05        	lda	<R1
   806 00:0072: E5 01        	sbc	<R0
   807 00:0074: 85 11        	sta	<L3+x_1
   808                        ;	}
   809                        	.line	32
   810                        ;	else
   811 00:0076: 82 1A 00     	brl	L10004
   812                        L10003:
   813                        ;	{
   814                        	.line	34
   815                        ;		//k_debug_integer("k_user_CreateVertScro
                    llBar:SM_CXBORDER:" , k_user_getSystemMetric(SM_CXBORDER) );
   816                        ;		x = pParent->win_width - width -  k_user
                    _getSystemMetric(SM_CXBORDER) ;
   817                        	.line	36
   818 00:0079: F4 05 00     	pea	#<$5
   819 00:007C: 22 xx xx xx  	jsl	~~k_user_getSystemMetric
   820 00:0080: 85 01        	sta	<R0
   821 00:0082: 38           	sec
  Thu Dec  3 2020 22:25                                                Page 17


   822 00:0083: A0 0C 00     	ldy	#$c
   823 00:0086: B7 0D        	lda	[<L3+pParent_1],Y
   824 00:0088: E5 15        	sbc	<L3+width_1
   825 00:008A: 85 05        	sta	<R1
   826 00:008C: 38           	sec
   827 00:008D: A5 05        	lda	<R1
   828 00:008F: E5 01        	sbc	<R0
   829 00:0091: 85 11        	sta	<L3+x_1
   830                        ;	}
   831                        	.line	37
   832                        L10004:
   833                        L10002:
   834                        ;
   835                        ;	if(pParent->style & FXWS_THICKFRAME)
   836                        	.line	39
   837                        ;		y = k_user_getSystemMetric(SM_CYFRAME);/
                    / + 2;
   838 00:0093: A0 04 00     	ldy	#$4
   839 00:0096: B7 0D        	lda	[<L3+pParent_1],Y
   840 00:0098: 29 02 00     	and	#^$20000
   841 00:009B: D0 03        	bne	L7
   842 00:009D: 82 0C 00     	brl	L10005
   843                        L7:
   844                        	.line	40
   845 00:00A0: F4 21 00     	pea	#<$21
   846 00:00A3: 22 xx xx xx  	jsl	~~k_user_getSystemMetric
   847 00:00A7: 85 13        	sta	<L3+y_1
   848                        ;	else if(pParent->style & FXWS_BORDER)
   849 00:00A9: 82 27 00     	brl	L10006
   850                        L10005:
   851                        	.line	41
   852                        ;		y = k_user_getSystemMetric(SM_CYBORDER);
                    // + 2;
   853 00:00AC: A0 04 00     	ldy	#$4
   854 00:00AF: B7 0D        	lda	[<L3+pParent_1],Y
   855 00:00B1: 29 01 00     	and	#^$10000
   856 00:00B4: D0 03        	bne	L8
   857 00:00B6: 82 0C 00     	brl	L10007
   858                        L8:
   859                        	.line	42
   860 00:00B9: F4 06 00     	pea	#<$6
   861 00:00BC: 22 xx xx xx  	jsl	~~k_user_getSystemMetric
   862 00:00C0: 85 13        	sta	<L3+y_1
   863                        ;	else
   864 00:00C2: 82 0E 00     	brl	L10008
   865                        L10007:
   866                        ;		y = FONTH + 2;
   867                        	.line	44
   868 00:00C5: 22 xx xx xx  	jsl	~~k_font_getFontHeight
   869 00:00C9: 85 01        	sta	<R0
   870 00:00CB: 18           	clc
   871 00:00CC: A9 02 00     	lda	#$2
   872 00:00CF: 65 01        	adc	<R0
   873 00:00D1: 85 13        	sta	<L3+y_1
   874                        L10008:
   875                        L10006:
   876                        ;
   877                        ;	if(pParent->style & FXWS_CAPTION)
  Thu Dec  3 2020 22:25                                                Page 18


   878                        	.line	46
   879                        ;		y = k_user_getSystemMetric(SM_CYSMCAPTIO
                    N);
   880 00:00D3: A0 02 00     	ldy	#$2
   881 00:00D6: B7 0D        	lda	[<L3+pParent_1],Y
   882 00:00D8: 29 04 00     	and	#<$4
   883 00:00DB: D0 03        	bne	L9
   884 00:00DD: 82 09 00     	brl	L10009
   885                        L9:
   886                        	.line	47
   887 00:00E0: F4 33 00     	pea	#<$33
   888 00:00E3: 22 xx xx xx  	jsl	~~k_user_getSystemMetric
   889 00:00E7: 85 13        	sta	<L3+y_1
   890                        ;
   891                        ;
   892                        ;	height = pParent->win_height - y;
   893                        L10009:
   894                        	.line	50
   895 00:00E9: 38           	sec
   896 00:00EA: A0 0E 00     	ldy	#$e
   897 00:00ED: B7 0D        	lda	[<L3+pParent_1],Y
   898 00:00EF: E5 13        	sbc	<L3+y_1
   899 00:00F1: 85 17        	sta	<L3+height_1
   900                        ;
   901                        ;	if(pParent->style & FXWS_THICKFRAME)
   902                        	.line	52
   903                        ;		height -=  k_user_getSystemMetric(SM_CXF
                    RAME);// + 2;
   904 00:00F3: A0 04 00     	ldy	#$4
   905 00:00F6: B7 0D        	lda	[<L3+pParent_1],Y
   906 00:00F8: 29 02 00     	and	#^$20000
   907 00:00FB: D0 03        	bne	L10
   908 00:00FD: 82 13 00     	brl	L10010
   909                        L10:
   910                        	.line	53
   911 00:0100: F4 20 00     	pea	#<$20
   912 00:0103: 22 xx xx xx  	jsl	~~k_user_getSystemMetric
   913 00:0107: 85 01        	sta	<R0
   914 00:0109: 38           	sec
   915 00:010A: A5 17        	lda	<L3+height_1
   916 00:010C: E5 01        	sbc	<R0
   917 00:010E: 85 17        	sta	<L3+height_1
   918                        ;	else if(pParent->style & FXWS_BORDER)
   919 00:0110: 82 30 00     	brl	L10011
   920                        L10010:
   921                        	.line	54
   922                        ;		height -= k_user_getSystemMetric(SM_CYBO
                    RDER);// + 2;
   923 00:0113: A0 04 00     	ldy	#$4
   924 00:0116: B7 0D        	lda	[<L3+pParent_1],Y
   925 00:0118: 29 01 00     	and	#^$10000
   926 00:011B: D0 03        	bne	L11
   927 00:011D: 82 13 00     	brl	L10012
   928                        L11:
   929                        	.line	55
   930 00:0120: F4 06 00     	pea	#<$6
   931 00:0123: 22 xx xx xx  	jsl	~~k_user_getSystemMetric
   932 00:0127: 85 01        	sta	<R0
  Thu Dec  3 2020 22:25                                                Page 19


   933 00:0129: 38           	sec
   934 00:012A: A5 17        	lda	<L3+height_1
   935 00:012C: E5 01        	sbc	<R0
   936 00:012E: 85 17        	sta	<L3+height_1
   937                        ;	else
   938 00:0130: 82 10 00     	brl	L10013
   939                        L10012:
   940                        ;		height -= k_user_getSystemMetric(SM_CYBO
                    RDER);
   941                        	.line	57
   942 00:0133: F4 06 00     	pea	#<$6
   943 00:0136: 22 xx xx xx  	jsl	~~k_user_getSystemMetric
   944 00:013A: 85 01        	sta	<R0
   945 00:013C: 38           	sec
   946 00:013D: A5 17        	lda	<L3+height_1
   947 00:013F: E5 01        	sbc	<R0
   948 00:0141: 85 17        	sta	<L3+height_1
   949                        L10013:
   950                        L10011:
   951                        ;
   952                        ;
   953                        ;	/*
   954                        ;	//y = FONTH + 2;
   955                        ;	height = pParent->win_height - FONTH - k_user_ge
                    tSystemMetric(SM_CYBORDER)*2 - 1;
   956                        ;	//height = pParent->win_height;
   957                        ;	*/
   958                        ;
   959                        ;	k_debug_integer("k_user_CreateVertScrollBar:cx:"
                    ,x);
   960                        	.line	66
   961 00:0143: D4 11        	pei	<L3+x_1
   962 00:0145: F4 xx xx     	pea	#^L1
   963 00:0148: F4 xx xx     	pea	#<L1
   964 00:014B: 22 xx xx xx  	jsl	~~k_debug_integer
   965                        ;	k_debug_integer("k_user_CreateVertScrollBar:cy:"
                    ,y);
   966                        	.line	67
   967 00:014F: D4 13        	pei	<L3+y_1
   968 00:0151: F4 xx xx     	pea	#^L1+31
   969 00:0154: F4 xx xx     	pea	#<L1+31
   970 00:0157: 22 xx xx xx  	jsl	~~k_debug_integer
   971                        ;	k_debug_integer("k_user_CreateVertScrollBar:widt
                    h:",width);
   972                        	.line	68
   973 00:015B: D4 15        	pei	<L3+width_1
   974 00:015D: F4 xx xx     	pea	#^L1+62
   975 00:0160: F4 xx xx     	pea	#<L1+62
   976 00:0163: 22 xx xx xx  	jsl	~~k_debug_integer
   977                        ;	k_debug_integer("k_user_CreateVertScrollBar:heig
                    ht:",height);
   978                        	.line	69
   979 00:0167: D4 17        	pei	<L3+height_1
   980 00:0169: F4 xx xx     	pea	#^L1+96
   981 00:016C: F4 xx xx     	pea	#<L1+96
   982 00:016F: 22 xx xx xx  	jsl	~~k_debug_integer
   983                        ;
   984                        ;	k_debug_integer("k_user_CreateVertScrollBar:k_us
  Thu Dec  3 2020 22:25                                                Page 20


                    er_getSystemMetric(SM_CXVSCROLL):",k_user_getSystemMetric(SM
                    _CXVSCROLL));
   985                        	.line	71
   986 00:0173: F4 02 00     	pea	#<$2
   987 00:0176: 22 xx xx xx  	jsl	~~k_user_getSystemMetric
   988 00:017A: 48           	pha
   989 00:017B: F4 xx xx     	pea	#^L1+131
   990 00:017E: F4 xx xx     	pea	#<L1+131
   991 00:0181: 22 xx xx xx  	jsl	~~k_debug_integer
   992                        ;
   993                        ;
   994                        ;	pWin = k_user_CreateWindow(FXWS_BORDER | FXWS_VI
                    SIBLE | FXWS_PARENT_HEIGHT,
   995                        	.line	74
   996                        ;							
                       "vscrollWindowClass",
   997                        ;							
                    	caption,
   998                        ;							
                    	x,y,
   999                        ;							
                    	width,height,
  1000                        ;							
                    	hWndParent,
  1001                        ;							
                    	(HMENU)buttonId,
  1002                        ;							
                    	NULL);
  1003 00:0185: F4 00 00     	pea	#^$0
  1004 00:0188: F4 00 00     	pea	#<$0
  1005 00:018B: A0 00 00     	ldy	#$0
  1006 00:018E: A5 24        	lda	<L2+buttonId_0
  1007 00:0190: 10 01        	bpl	L12
  1008 00:0192: 88           	dey
  1009                        L12:
  1010 00:0193: 85 01        	sta	<R0
  1011 00:0195: 84 03        	sty	<R0+2
  1012 00:0197: D4 03        	pei	<R0+2
  1013 00:0199: D4 01        	pei	<R0
  1014 00:019B: D4 1E        	pei	<L2+hWndParent_0+2
  1015 00:019D: D4 1C        	pei	<L2+hWndParent_0
  1016 00:019F: D4 17        	pei	<L3+height_1
  1017 00:01A1: D4 15        	pei	<L3+width_1
  1018 00:01A3: D4 13        	pei	<L3+y_1
  1019 00:01A5: D4 11        	pei	<L3+x_1
  1020 00:01A7: D4 22        	pei	<L2+caption_0+2
  1021 00:01A9: D4 20        	pei	<L2+caption_0
  1022 00:01AB: F4 xx xx     	pea	#^L1+196
  1023 00:01AE: F4 xx xx     	pea	#<L1+196
  1024 00:01B1: F4 01 04     	pea	#^$4010001
  1025 00:01B4: F4 01 00     	pea	#<$4010001
  1026 00:01B7: 22 xx xx xx  	jsl	~~k_user_CreateWindow
  1027 00:01BB: 85 09        	sta	<L3+pWin_1
  1028 00:01BD: 86 0B        	stx	<L3+pWin_1+2
  1029                        ;
  1030                        ;	if(pWin)
  1031                        	.line	83
  1032                        ;	{
  Thu Dec  3 2020 22:25                                                Page 21


  1033 00:01BF: A5 09        	lda	<L3+pWin_1
  1034 00:01C1: 05 0B        	ora	<L3+pWin_1+2
  1035 00:01C3: D0 03        	bne	L13
  1036 00:01C5: 82 1E 00     	brl	L10014
  1037                        L13:
  1038                        	.line	84
  1039                        ;		k_send_window_message(k_getHandleFromWin
                    dow(pWin),FX_CREATE_WINDOW,NULL,0);
  1040                        	.line	85
  1041 00:01C8: F4 00 00     	pea	#<$0
  1042 00:01CB: F4 00 00     	pea	#^$0
  1043 00:01CE: F4 00 00     	pea	#<$0
  1044 00:01D1: F4 03 FF     	pea	#<$ff03
  1045 00:01D4: D4 0B        	pei	<L3+pWin_1+2
  1046 00:01D6: D4 09        	pei	<L3+pWin_1
  1047 00:01D8: 22 xx xx xx  	jsl	~~k_getHandleFromWindow
  1048 00:01DC: 85 01        	sta	<R0
  1049 00:01DE: 86 03        	stx	<R0+2
  1050 00:01E0: DA           	phx
  1051 00:01E1: 48           	pha
  1052 00:01E2: 22 xx xx xx  	jsl	~~k_send_window_message
  1053                        ;	}
  1054                        	.line	86
  1055                        ;
  1056                        ;	return pWin;
  1057                        L10014:
  1058                        	.line	88
  1059 00:01E6: A6 0B        	ldx	<L3+pWin_1+2
  1060 00:01E8: A5 09        	lda	<L3+pWin_1
  1061                        L14:
  1062 00:01EA: A8           	tay
  1063 00:01EB: A5 1A        	lda	<L2+2
  1064 00:01ED: 85 24        	sta	<L2+2+10
  1065 00:01EF: A5 19        	lda	<L2+1
  1066 00:01F1: 85 23        	sta	<L2+1+10
  1067 00:01F3: 2B           	pld
  1068 00:01F4: 3B           	tsc
  1069 00:01F5: 18           	clc
  1070 00:01F6: 69 22 00     	adc	#L2+10
  1071 00:01F9: 1B           	tcs
  1072 00:01FA: 98           	tya
  1073 00:01FB: 6B           	rtl
  1074                        ;}
  1075                        	.line	89
  1076                        	.endblock	89
  1077             00000018   L2	equ	24
  1078             00000009   L3	equ	9
  1079                        	ends
  1080                        	efunc
  1081                        	.endfunc	89,9,24
  1082                        	.line	89
  1083                        	data
  1084                        L1:
  1085 00:0000: 6B 5F 75 73  	db	$6B,$5F,$75,$73,$65,$72,$5F,$43,$72,$65,
                    $61,$74,$65,$56,$65
       00:0004: 65 72 5F 43 
       00:0008: 72 65 61 74 
       00:000C: 65 56 65 
  Thu Dec  3 2020 22:25                                                Page 22


  1086 00:000F: 72 74 53 63  	db	$72,$74,$53,$63,$72,$6F,$6C,$6C,$42,$61,
                    $72,$3A,$63,$78,$3A
       00:0013: 72 6F 6C 6C 
       00:0017: 42 61 72 3A 
       00:001B: 63 78 3A 
  1087 00:001E: 00 6B 5F 75  	db	$00,$6B,$5F,$75,$73,$65,$72,$5F,$43,$72,
                    $65,$61,$74,$65,$56
       00:0022: 73 65 72 5F 
       00:0026: 43 72 65 61 
       00:002A: 74 65 56 
  1088 00:002D: 65 72 74 53  	db	$65,$72,$74,$53,$63,$72,$6F,$6C,$6C,$42,
                    $61,$72,$3A,$63,$79
       00:0031: 63 72 6F 6C 
       00:0035: 6C 42 61 72 
       00:0039: 3A 63 79 
  1089 00:003C: 3A 00 6B 5F  	db	$3A,$00,$6B,$5F,$75,$73,$65,$72,$5F,$43,
                    $72,$65,$61,$74,$65
       00:0040: 75 73 65 72 
       00:0044: 5F 43 72 65 
       00:0048: 61 74 65 
  1090 00:004B: 56 65 72 74  	db	$56,$65,$72,$74,$53,$63,$72,$6F,$6C,$6C,
                    $42,$61,$72,$3A,$77
       00:004F: 53 63 72 6F 
       00:0053: 6C 6C 42 61 
       00:0057: 72 3A 77 
  1091 00:005A: 69 64 74 68  	db	$69,$64,$74,$68,$3A,$00,$6B,$5F,$75,$73,
                    $65,$72,$5F,$43,$72
       00:005E: 3A 00 6B 5F 
       00:0062: 75 73 65 72 
       00:0066: 5F 43 72 
  1092 00:0069: 65 61 74 65  	db	$65,$61,$74,$65,$56,$65,$72,$74,$53,$63,
                    $72,$6F,$6C,$6C,$42
       00:006D: 56 65 72 74 
       00:0071: 53 63 72 6F 
       00:0075: 6C 6C 42 
  1093 00:0078: 61 72 3A 68  	db	$61,$72,$3A,$68,$65,$69,$67,$68,$74,$3A,
                    $00,$6B,$5F,$75,$73
       00:007C: 65 69 67 68 
       00:0080: 74 3A 00 6B 
       00:0084: 5F 75 73 
  1094 00:0087: 65 72 5F 43  	db	$65,$72,$5F,$43,$72,$65,$61,$74,$65,$56,
                    $65,$72,$74,$53,$63
       00:008B: 72 65 61 74 
       00:008F: 65 56 65 72 
       00:0093: 74 53 63 
  1095 00:0096: 72 6F 6C 6C  	db	$72,$6F,$6C,$6C,$42,$61,$72,$3A,$6B,$5F,
                    $75,$73,$65,$72,$5F
       00:009A: 42 61 72 3A 
       00:009E: 6B 5F 75 73 
       00:00A2: 65 72 5F 
  1096 00:00A5: 67 65 74 53  	db	$67,$65,$74,$53,$79,$73,$74,$65,$6D,$4D,
                    $65,$74,$72,$69,$63
       00:00A9: 79 73 74 65 
       00:00AD: 6D 4D 65 74 
       00:00B1: 72 69 63 
  1097 00:00B4: 28 53 4D 5F  	db	$28,$53,$4D,$5F,$43,$58,$56,$53,$43,$52,
                    $4F,$4C,$4C,$29,$3A
       00:00B8: 43 58 56 53 
  Thu Dec  3 2020 22:25                                                Page 23


       00:00BC: 43 52 4F 4C 
       00:00C0: 4C 29 3A 
  1098 00:00C3: 00 76 73 63  	db	$00,$76,$73,$63,$72,$6F,$6C,$6C,$57,$69,
                    $6E,$64,$6F,$77,$43
       00:00C7: 72 6F 6C 6C 
       00:00CB: 57 69 6E 64 
       00:00CF: 6F 77 43 
  1099 00:00D2: 6C 61 73 73  	db	$6C,$61,$73,$73,$00
       00:00D6: 00 
  1100 00:00D7:              	ends
  1101                        ;
  1102                        ;BOOL vscrollbarWindowProc(PFXOSMESSAGE pMsg)
  1103                        ;{
  1104                        	.line	91
  1105                        	.line	92
  1106                        	code
  1107                        	xdef	~~vscrollbarWindowProc
  1108                        	func
  1109                        	.function	92
  1110                        ~~vscrollbarWindowProc:
  1111                        	longa	on
  1112                        	longi	on
  1113 00:01FC: 3B           	tsc
  1114 00:01FD: 38           	sec
  1115 00:01FE: E9 3A 00     	sbc	#L16
  1116 00:0201: 1B           	tcs
  1117 00:0202: 0B           	phd
  1118 00:0203: 5B           	tcd
  1119             00000004   pMsg_0	set	4
  1120                        	.block	92
  1121                        ;	HWND hWnd = NULL;
  1122                        ;	PFXPROCESS p = NULL;
  1123                        ;	PWINDOW	   pWin = NULL;
  1124                        ;	PSCROLLBAR	   scrollbar = NULL;
  1125                        ;	UINT	   size = 0;
  1126                        ;	RECT rect;
  1127                        ;	INT cx,cy;
  1128                        ;
  1129                        ;	ULONG direction = 0L;
  1130                        ;
  1131                        ;	INT cMenu;
  1132                        ;	INT cGadget;
  1133                        ;
  1134                        ;	LPCSTR pFont = (LPCSTR)k_user_getFontClass("FXOS
                    8x8");
  1135                        ;
  1136                        ;	if(pMsg!=NULL)
  1137             00000000   hWnd_1	set	0
  1138             00000004   p_1	set	4
  1139             00000008   pWin_1	set	8
  1140             0000000C   scrollbar_1	set	12
  1141             00000010   size_1	set	16
  1142             00000012   rect_1	set	18
  1143             0000001A   cx_1	set	26
  1144             0000001C   cy_1	set	28
  1145             0000001E   direction_1	set	30
  1146             00000022   cMenu_1	set	34
  1147             00000024   cGadget_1	set	36
  Thu Dec  3 2020 22:25                                                Page 24


  1148             00000026   pFont_1	set	38
  1149                        	.sym	hWnd,0,129,1,32
  1150                        	.sym	p,4,138,1,32,17
  1151                        	.sym	pWin,8,138,1,32,27
  1152                        	.sym	scrollbar,12,138,1,32,35
  1153                        	.sym	size,16,16,1,16
  1154                        	.sym	rect,18,10,1,64,22
  1155                        	.sym	cx,26,5,1,16
  1156                        	.sym	cy,28,5,1,16
  1157                        	.sym	direction,30,18,1,32
  1158                        	.sym	cMenu,34,5,1,16
  1159                        	.sym	cGadget,36,5,1,16
  1160                        	.sym	pFont,38,142,1,32
  1161                        	.sym	pMsg,4,138,6,32,13
  1162 00:0204: 64 11        	stz	<L17+hWnd_1
  1163 00:0206: 64 13        	stz	<L17+hWnd_1+2
  1164 00:0208: 64 15        	stz	<L17+p_1
  1165 00:020A: 64 17        	stz	<L17+p_1+2
  1166 00:020C: 64 19        	stz	<L17+pWin_1
  1167 00:020E: 64 1B        	stz	<L17+pWin_1+2
  1168 00:0210: 64 1D        	stz	<L17+scrollbar_1
  1169 00:0212: 64 1F        	stz	<L17+scrollbar_1+2
  1170 00:0214: 64 21        	stz	<L17+size_1
  1171 00:0216: 64 2F        	stz	<L17+direction_1
  1172 00:0218: 64 31        	stz	<L17+direction_1+2
  1173 00:021A: F4 xx xx     	pea	#^L15
  1174 00:021D: F4 xx xx     	pea	#<L15
  1175 00:0220: 22 xx xx xx  	jsl	~~k_user_getFontClass
  1176 00:0224: 85 37        	sta	<L17+pFont_1
  1177 00:0226: 86 39        	stx	<L17+pFont_1+2
  1178                        	.line	108
  1179                        ;	{
  1180 00:0228: A5 3E        	lda	<L16+pMsg_0
  1181 00:022A: 05 40        	ora	<L16+pMsg_0+2
  1182 00:022C: D0 03        	bne	L19
  1183 00:022E: 82 87 07     	brl	L10015
  1184                        L19:
  1185                        	.line	109
  1186                        ;		p         = k_exec_get_current_process()
                    ;
  1187                        	.line	110
  1188 00:0231: 22 xx xx xx  	jsl	~~k_exec_get_current_process
  1189 00:0235: 85 15        	sta	<L17+p_1
  1190 00:0237: 86 17        	stx	<L17+p_1+2
  1191                        ;		pWin      = k_getWindowFromHandle(pMsg->
                    hwnd);
  1192                        	.line	111
  1193 00:0239: A0 0C 00     	ldy	#$c
  1194 00:023C: B7 3E        	lda	[<L16+pMsg_0],Y
  1195 00:023E: 48           	pha
  1196 00:023F: A0 0A 00     	ldy	#$a
  1197 00:0242: B7 3E        	lda	[<L16+pMsg_0],Y
  1198 00:0244: 48           	pha
  1199 00:0245: 22 xx xx xx  	jsl	~~k_getWindowFromHandle
  1200 00:0249: 85 19        	sta	<L17+pWin_1
  1201 00:024B: 86 1B        	stx	<L17+pWin_1+2
  1202                        ;		scrollbar = ((PSCROLLBAR)pWin->windowDat
                    a);
  Thu Dec  3 2020 22:25                                                Page 25


  1203                        	.line	112
  1204 00:024D: A0 41 01     	ldy	#$141
  1205 00:0250: B7 19        	lda	[<L17+pWin_1],Y
  1206 00:0252: 85 1D        	sta	<L17+scrollbar_1
  1207 00:0254: A0 43 01     	ldy	#$143
  1208 00:0257: B7 19        	lda	[<L17+pWin_1],Y
  1209 00:0259: 85 1F        	sta	<L17+scrollbar_1+2
  1210                        ;		hWnd  	  = k_getHandleFromWindow(pWin);
  1211                        	.line	113
  1212 00:025B: D4 1B        	pei	<L17+pWin_1+2
  1213 00:025D: D4 19        	pei	<L17+pWin_1
  1214 00:025F: 22 xx xx xx  	jsl	~~k_getHandleFromWindow
  1215 00:0263: 85 11        	sta	<L17+hWnd_1
  1216 00:0265: 86 13        	stx	<L17+hWnd_1+2
  1217                        ;		//k_debug_long("consoleWindowProc::Proce
                    ssId:",p->procId);
  1218                        ;		cMenu     = k_getUIMenuColor();
  1219                        	.line	115
  1220 00:0267: 22 xx xx xx  	jsl	~~k_getUIMenuColor
  1221 00:026B: 85 33        	sta	<L17+cMenu_1
  1222                        ;		cGadget   = k_getUIGadgetColor();
  1223                        	.line	116
  1224 00:026D: 22 xx xx xx  	jsl	~~k_getUIGadgetColor
  1225 00:0271: 85 35        	sta	<L17+cGadget_1
  1226                        ;
  1227                        ;		switch(pMsg->type)
  1228                        	.line	118
  1229 00:0273: A0 08 00     	ldy	#$8
  1230 00:0276: B7 3E        	lda	[<L16+pMsg_0],Y
  1231 00:0278: 82 0D 07     	brl	L10016
  1232                        ;		{
  1233                        	.line	119
  1234                        ;		case FX_CREATE_WINDOW:
  1235                        	.line	120
  1236                        L10018:
  1237                        ;			//k_debug_long("buttonWindowProc
                    ::ProcessId:",p->procId);
  1238                        ;			//k_debug_string("buttonWindowPr
                    oc::FX_CREATE_WINDOW\r\n");
  1239                        ;
  1240                        ;			scrollbar = pWin->windowData = k
                    _mem_allocate_heap(sizeof(SCROLLBAR));
  1241                        	.line	124
  1242 00:027B: F4 18 00     	pea	#<$18
  1243 00:027E: 22 xx xx xx  	jsl	~~k_mem_allocate_heap
  1244 00:0282: 85 01        	sta	<R0
  1245 00:0284: 86 03        	stx	<R0+2
  1246 00:0286: A5 01        	lda	<R0
  1247 00:0288: A0 41 01     	ldy	#$141
  1248 00:028B: 97 19        	sta	[<L17+pWin_1],Y
  1249 00:028D: A5 03        	lda	<R0+2
  1250 00:028F: A0 43 01     	ldy	#$143
  1251 00:0292: 97 19        	sta	[<L17+pWin_1],Y
  1252 00:0294: A5 01        	lda	<R0
  1253 00:0296: 85 1D        	sta	<L17+scrollbar_1
  1254 00:0298: A5 03        	lda	<R0+2
  1255 00:029A: 85 1F        	sta	<L17+scrollbar_1+2
  1256                        ;
  Thu Dec  3 2020 22:25                                                Page 26


  1257                        ;
  1258                        ;			((PSCROLLBAR)pWin->windowData)->
                    max = 100;
  1259                        	.line	127
  1260 00:029C: A0 41 01     	ldy	#$141
  1261 00:029F: B7 19        	lda	[<L17+pWin_1],Y
  1262 00:02A1: 85 01        	sta	<R0
  1263 00:02A3: A0 43 01     	ldy	#$143
  1264 00:02A6: B7 19        	lda	[<L17+pWin_1],Y
  1265 00:02A8: 85 03        	sta	<R0+2
  1266 00:02AA: A9 64 00     	lda	#$64
  1267 00:02AD: A0 02 00     	ldy	#$2
  1268 00:02B0: 97 01        	sta	[<R0],Y
  1269                        ;			((PSCROLLBAR)pWin->windowData)->
                    min = 0;
  1270                        	.line	128
  1271 00:02B2: A0 41 01     	ldy	#$141
  1272 00:02B5: B7 19        	lda	[<L17+pWin_1],Y
  1273 00:02B7: 85 01        	sta	<R0
  1274 00:02B9: A0 43 01     	ldy	#$143
  1275 00:02BC: B7 19        	lda	[<L17+pWin_1],Y
  1276 00:02BE: 85 03        	sta	<R0+2
  1277 00:02C0: A9 00 00     	lda	#$0
  1278 00:02C3: 87 01        	sta	[<R0]
  1279                        ;			((PSCROLLBAR)pWin->windowData)->
                    increment = 10;
  1280                        	.line	129
  1281 00:02C5: A0 41 01     	ldy	#$141
  1282 00:02C8: B7 19        	lda	[<L17+pWin_1],Y
  1283 00:02CA: 85 01        	sta	<R0
  1284 00:02CC: A0 43 01     	ldy	#$143
  1285 00:02CF: B7 19        	lda	[<L17+pWin_1],Y
  1286 00:02D1: 85 03        	sta	<R0+2
  1287 00:02D3: A9 0A 00     	lda	#$a
  1288 00:02D6: A0 04 00     	ldy	#$4
  1289 00:02D9: 97 01        	sta	[<R0],Y
  1290                        ;			((PSCROLLBAR)pWin->windowData)->
                    location = 0;
  1291                        	.line	130
  1292 00:02DB: A0 41 01     	ldy	#$141
  1293 00:02DE: B7 19        	lda	[<L17+pWin_1],Y
  1294 00:02E0: 85 01        	sta	<R0
  1295 00:02E2: A0 43 01     	ldy	#$143
  1296 00:02E5: B7 19        	lda	[<L17+pWin_1],Y
  1297 00:02E7: 85 03        	sta	<R0+2
  1298 00:02E9: A9 00 00     	lda	#$0
  1299 00:02EC: A0 08 00     	ldy	#$8
  1300 00:02EF: 97 01        	sta	[<R0],Y
  1301                        ;
  1302                        ;			((PSCROLLBAR)pWin->windowData)->
                    rectThumb.x = 0;
  1303                        	.line	132
  1304 00:02F1: A0 41 01     	ldy	#$141
  1305 00:02F4: B7 19        	lda	[<L17+pWin_1],Y
  1306 00:02F6: 85 01        	sta	<R0
  1307 00:02F8: A0 43 01     	ldy	#$143
  1308 00:02FB: B7 19        	lda	[<L17+pWin_1],Y
  1309 00:02FD: 85 03        	sta	<R0+2
  Thu Dec  3 2020 22:25                                                Page 27


  1310 00:02FF: A9 00 00     	lda	#$0
  1311 00:0302: A0 0C 00     	ldy	#$c
  1312 00:0305: 97 01        	sta	[<R0],Y
  1313                        ;			((PSCROLLBAR)pWin->windowData)->
                    rectThumb.y = 0;
  1314                        	.line	133
  1315 00:0307: A0 41 01     	ldy	#$141
  1316 00:030A: B7 19        	lda	[<L17+pWin_1],Y
  1317 00:030C: 85 01        	sta	<R0
  1318 00:030E: A0 43 01     	ldy	#$143
  1319 00:0311: B7 19        	lda	[<L17+pWin_1],Y
  1320 00:0313: 85 03        	sta	<R0+2
  1321 00:0315: A9 00 00     	lda	#$0
  1322 00:0318: A0 0E 00     	ldy	#$e
  1323 00:031B: 97 01        	sta	[<R0],Y
  1324                        ;			((PSCROLLBAR)pWin->windowData)->
                    rectThumb.width = 0;
  1325                        	.line	134
  1326 00:031D: A0 41 01     	ldy	#$141
  1327 00:0320: B7 19        	lda	[<L17+pWin_1],Y
  1328 00:0322: 85 01        	sta	<R0
  1329 00:0324: A0 43 01     	ldy	#$143
  1330 00:0327: B7 19        	lda	[<L17+pWin_1],Y
  1331 00:0329: 85 03        	sta	<R0+2
  1332 00:032B: A9 00 00     	lda	#$0
  1333 00:032E: A0 10 00     	ldy	#$10
  1334 00:0331: 97 01        	sta	[<R0],Y
  1335                        ;			((PSCROLLBAR)pWin->windowData)->
                    rectThumb.height = 0;
  1336                        	.line	135
  1337 00:0333: A0 41 01     	ldy	#$141
  1338 00:0336: B7 19        	lda	[<L17+pWin_1],Y
  1339 00:0338: 85 01        	sta	<R0
  1340 00:033A: A0 43 01     	ldy	#$143
  1341 00:033D: B7 19        	lda	[<L17+pWin_1],Y
  1342 00:033F: 85 03        	sta	<R0+2
  1343 00:0341: A9 00 00     	lda	#$0
  1344 00:0344: A0 12 00     	ldy	#$12
  1345 00:0347: 97 01        	sta	[<R0],Y
  1346                        ;
  1347                        ;
  1348                        ;			((PSCROLLBAR)pWin->windowData)->
                    stopsize = (pWin->win_height - 2*FONTW) / (((PSCROLLBAR)pWin
                    ->windowData)->max / ((PSCROLLBAR)pWin->windowData)->increme
                    nt);
  1349                        	.line	138
  1350 00:0349: A0 41 01     	ldy	#$141
  1351 00:034C: B7 19        	lda	[<L17+pWin_1],Y
  1352 00:034E: 85 01        	sta	<R0
  1353 00:0350: A0 43 01     	ldy	#$143
  1354 00:0353: B7 19        	lda	[<L17+pWin_1],Y
  1355 00:0355: 85 03        	sta	<R0+2
  1356 00:0357: A0 41 01     	ldy	#$141
  1357 00:035A: B7 19        	lda	[<L17+pWin_1],Y
  1358 00:035C: 85 05        	sta	<R1
  1359 00:035E: A0 43 01     	ldy	#$143
  1360 00:0361: B7 19        	lda	[<L17+pWin_1],Y
  1361 00:0363: 85 07        	sta	<R1+2
  Thu Dec  3 2020 22:25                                                Page 28


  1362 00:0365: A0 41 01     	ldy	#$141
  1363 00:0368: B7 19        	lda	[<L17+pWin_1],Y
  1364 00:036A: 85 09        	sta	<R2
  1365 00:036C: A0 43 01     	ldy	#$143
  1366 00:036F: B7 19        	lda	[<L17+pWin_1],Y
  1367 00:0371: 85 0B        	sta	<R2+2
  1368 00:0373: A0 04 00     	ldy	#$4
  1369 00:0376: B7 05        	lda	[<R1],Y
  1370 00:0378: AA           	tax
  1371 00:0379: A0 02 00     	ldy	#$2
  1372 00:037C: B7 09        	lda	[<R2],Y
  1373                        	xref	~~~udv
  1374 00:037E: 22 xx xx xx  	jsl	~~~udv
  1375 00:0382: 85 05        	sta	<R1
  1376 00:0384: 22 xx xx xx  	jsl	~~k_font_getFontWidth
  1377 00:0388: 85 0D        	sta	<R3
  1378 00:038A: A5 0D        	lda	<R3
  1379 00:038C: 0A           	asl	A
  1380 00:038D: 85 09        	sta	<R2
  1381 00:038F: 38           	sec
  1382 00:0390: A0 0E 00     	ldy	#$e
  1383 00:0393: B7 19        	lda	[<L17+pWin_1],Y
  1384 00:0395: E5 09        	sbc	<R2
  1385 00:0397: 85 0D        	sta	<R3
  1386 00:0399: A5 0D        	lda	<R3
  1387 00:039B: A6 05        	ldx	<R1
  1388                        	xref	~~~udv
  1389 00:039D: 22 xx xx xx  	jsl	~~~udv
  1390 00:03A1: A0 06 00     	ldy	#$6
  1391 00:03A4: 97 01        	sta	[<R0],Y
  1392                        ;
  1393                        ;			//
  1394                        ;			scrollbar->rectThumb.y =  (scrol
                    lbar->stopsize * scrollbar->location) + FONTW;
  1395                        	.line	141
  1396 00:03A6: A0 08 00     	ldy	#$8
  1397 00:03A9: B7 1D        	lda	[<L17+scrollbar_1],Y
  1398 00:03AB: AA           	tax
  1399 00:03AC: A0 06 00     	ldy	#$6
  1400 00:03AF: B7 1D        	lda	[<L17+scrollbar_1],Y
  1401                        	xref	~~~mul
  1402 00:03B1: 22 xx xx xx  	jsl	~~~mul
  1403 00:03B5: 85 01        	sta	<R0
  1404 00:03B7: 22 xx xx xx  	jsl	~~k_font_getFontWidth
  1405 00:03BB: 85 05        	sta	<R1
  1406 00:03BD: 18           	clc
  1407 00:03BE: A5 05        	lda	<R1
  1408 00:03C0: 65 01        	adc	<R0
  1409 00:03C2: A0 0E 00     	ldy	#$e
  1410 00:03C5: 97 1D        	sta	[<L17+scrollbar_1],Y
  1411                        ;
  1412                        ;			if(scrollbar->rectThumb.y > (pWi
                    n->win_height - (2*FONTW) -1 ))
  1413                        	.line	143
  1414                        ;				scrollbar->rectThumb.y =
                     (pWin->win_height - (2*FONTW) -1 );
  1415 00:03C7: 22 xx xx xx  	jsl	~~k_font_getFontWidth
  1416 00:03CB: 85 05        	sta	<R1
  Thu Dec  3 2020 22:25                                                Page 29


  1417 00:03CD: A5 05        	lda	<R1
  1418 00:03CF: 0A           	asl	A
  1419 00:03D0: 85 01        	sta	<R0
  1420 00:03D2: 38           	sec
  1421 00:03D3: A0 0E 00     	ldy	#$e
  1422 00:03D6: B7 19        	lda	[<L17+pWin_1],Y
  1423 00:03D8: E5 01        	sbc	<R0
  1424 00:03DA: 85 05        	sta	<R1
  1425 00:03DC: 18           	clc
  1426 00:03DD: A9 FF FF     	lda	#$ffff
  1427 00:03E0: 65 05        	adc	<R1
  1428 00:03E2: 85 01        	sta	<R0
  1429 00:03E4: A5 01        	lda	<R0
  1430 00:03E6: A0 0E 00     	ldy	#$e
  1431 00:03E9: D7 1D        	cmp	[<L17+scrollbar_1],Y
  1432 00:03EB: 90 03        	bcc	L20
  1433 00:03ED: 82 20 00     	brl	L10019
  1434                        L20:
  1435                        	.line	144
  1436 00:03F0: 22 xx xx xx  	jsl	~~k_font_getFontWidth
  1437 00:03F4: 85 05        	sta	<R1
  1438 00:03F6: A5 05        	lda	<R1
  1439 00:03F8: 0A           	asl	A
  1440 00:03F9: 85 01        	sta	<R0
  1441 00:03FB: 38           	sec
  1442 00:03FC: A0 0E 00     	ldy	#$e
  1443 00:03FF: B7 19        	lda	[<L17+pWin_1],Y
  1444 00:0401: E5 01        	sbc	<R0
  1445 00:0403: 85 05        	sta	<R1
  1446 00:0405: 18           	clc
  1447 00:0406: A9 FF FF     	lda	#$ffff
  1448 00:0409: 65 05        	adc	<R1
  1449 00:040B: A0 0E 00     	ldy	#$e
  1450 00:040E: 97 1D        	sta	[<L17+scrollbar_1],Y
  1451                        ;
  1452                        ;
  1453                        ;			if(scrollbar->rectThumb.y < FONT
                    W)
  1454                        L10019:
  1455                        	.line	147
  1456                        ;				scrollbar->rectThumb.y =
                     FONTW;
  1457 00:0410: 22 xx xx xx  	jsl	~~k_font_getFontWidth
  1458 00:0414: 85 01        	sta	<R0
  1459 00:0416: A0 0E 00     	ldy	#$e
  1460 00:0419: B7 1D        	lda	[<L17+scrollbar_1],Y
  1461 00:041B: C5 01        	cmp	<R0
  1462 00:041D: 90 03        	bcc	L21
  1463 00:041F: 82 09 00     	brl	L10020
  1464                        L21:
  1465                        	.line	148
  1466 00:0422: 22 xx xx xx  	jsl	~~k_font_getFontWidth
  1467 00:0426: A0 0E 00     	ldy	#$e
  1468 00:0429: 97 1D        	sta	[<L17+scrollbar_1],Y
  1469                        ;
  1470                        ;			scrollbar->rectThumb.x = 0;
  1471                        L10020:
  1472                        	.line	150
  Thu Dec  3 2020 22:25                                                Page 30


  1473 00:042B: A9 00 00     	lda	#$0
  1474 00:042E: A0 0C 00     	ldy	#$c
  1475 00:0431: 97 1D        	sta	[<L17+scrollbar_1],Y
  1476                        ;
  1477                        ;			//
  1478                        ;
  1479                        ;			k_debug_integer("vscrollbarWindo
                    wProc::stopsize:",((PSCROLLBAR)pWin->windowData)->stopsize);
  1480                        	.line	154
  1481 00:0433: A0 41 01     	ldy	#$141
  1482 00:0436: B7 19        	lda	[<L17+pWin_1],Y
  1483 00:0438: 85 01        	sta	<R0
  1484 00:043A: A0 43 01     	ldy	#$143
  1485 00:043D: B7 19        	lda	[<L17+pWin_1],Y
  1486 00:043F: 85 03        	sta	<R0+2
  1487 00:0441: A0 06 00     	ldy	#$6
  1488 00:0444: B7 01        	lda	[<R0],Y
  1489 00:0446: 48           	pha
  1490 00:0447: F4 xx xx     	pea	#^L15+8
  1491 00:044A: F4 xx xx     	pea	#<L15+8
  1492 00:044D: 22 xx xx xx  	jsl	~~k_debug_integer
  1493                        ;			/*
  1494                        ;			k_vdraw_ui_window(pWin,
  1495                        ;							
                      pWin->style,
  1496                        ;							
                      pWin->win_x ,pWin->win_y,
  1497                        ;							
                      pWin->win_height,pWin->win_width,
  1498                        ;							
                      pWin->win_title,
  1499                        ;							
                      k_getUIGadgetColor(), k_getUIMenuColor());
  1500                        ;
  1501                        ;			*/
  1502                        ;			break;
  1503                        	.line	164
  1504 00:0451: 82 64 05     	brl	L10017
  1505                        ;		case FX_DRAW_WINDOW:
  1506                        	.line	165
  1507                        L10021:
  1508                        ;			k_debug_pointer("vscrollbarWindo
                    wProc::FX_DRAW_WINDOW:",scrollbar);
  1509                        	.line	166
  1510 00:0454: D4 1F        	pei	<L17+scrollbar_1+2
  1511 00:0456: D4 1D        	pei	<L17+scrollbar_1
  1512 00:0458: F4 xx xx     	pea	#^L15+40
  1513 00:045B: F4 xx xx     	pea	#<L15+40
  1514 00:045E: 22 xx xx xx  	jsl	~~k_debug_pointer
  1515                        ;			if(scrollbar)
  1516                        	.line	167
  1517                        ;			{
  1518 00:0462: A5 1D        	lda	<L17+scrollbar_1
  1519 00:0464: 05 1F        	ora	<L17+scrollbar_1+2
  1520 00:0466: D0 03        	bne	L22
  1521 00:0468: 82 25 01     	brl	L10022
  1522                        L22:
  1523                        	.line	168
  Thu Dec  3 2020 22:25                                                Page 31


  1524                        ;				k_vdraw_ui_window(pWin,p
                    Win->style,
  1525                        	.line	169
  1526                        ;							
                    	  pWin->win_x ,pWin->win_y,
  1527                        ;							
                    	  pWin->win_height,pWin->win_width,
  1528                        ;							
                    	  pWin->win_title,
  1529                        ;							
                    	  cGadget,
  1530                        ;							
                    	  cMenu);
  1531 00:046B: D4 33        	pei	<L17+cMenu_1
  1532 00:046D: D4 35        	pei	<L17+cGadget_1
  1533 00:046F: 18           	clc
  1534 00:0470: A9 D4 00     	lda	#$d4
  1535 00:0473: 65 19        	adc	<L17+pWin_1
  1536 00:0475: 85 01        	sta	<R0
  1537 00:0477: A9 00 00     	lda	#$0
  1538 00:047A: 65 1B        	adc	<L17+pWin_1+2
  1539 00:047C: 85 03        	sta	<R0+2
  1540 00:047E: D4 03        	pei	<R0+2
  1541 00:0480: D4 01        	pei	<R0
  1542 00:0482: A0 0C 00     	ldy	#$c
  1543 00:0485: B7 19        	lda	[<L17+pWin_1],Y
  1544 00:0487: 48           	pha
  1545 00:0488: A0 0E 00     	ldy	#$e
  1546 00:048B: B7 19        	lda	[<L17+pWin_1],Y
  1547 00:048D: 48           	pha
  1548 00:048E: A0 0A 00     	ldy	#$a
  1549 00:0491: B7 19        	lda	[<L17+pWin_1],Y
  1550 00:0493: 48           	pha
  1551 00:0494: A0 08 00     	ldy	#$8
  1552 00:0497: B7 19        	lda	[<L17+pWin_1],Y
  1553 00:0499: 48           	pha
  1554 00:049A: A0 04 00     	ldy	#$4
  1555 00:049D: B7 19        	lda	[<L17+pWin_1],Y
  1556 00:049F: 48           	pha
  1557 00:04A0: A0 02 00     	ldy	#$2
  1558 00:04A3: B7 19        	lda	[<L17+pWin_1],Y
  1559 00:04A5: 48           	pha
  1560 00:04A6: D4 1B        	pei	<L17+pWin_1+2
  1561 00:04A8: D4 19        	pei	<L17+pWin_1
  1562 00:04AA: 22 xx xx xx  	jsl	~~k_vdraw_ui_window
  1563                        ;
  1564                        ;
  1565                        ;				rect.x = 0;
  1566                        	.line	177
  1567 00:04AE: 64 23        	stz	<L17+rect_1
  1568                        ;				rect.y = 0;
  1569                        	.line	178
  1570 00:04B0: 64 25        	stz	<L17+rect_1+2
  1571                        ;				k_user_DrawWindowTextToP
                    ointWithFont(hWnd,"\xAF",cMenu,&rect,pFont);
  1572                        	.line	179
  1573 00:04B2: D4 39        	pei	<L17+pFont_1+2
  1574 00:04B4: D4 37        	pei	<L17+pFont_1
  Thu Dec  3 2020 22:25                                                Page 32


  1575 00:04B6: F4 00 00     	pea	#0
  1576 00:04B9: 18           	clc
  1577 00:04BA: 7B           	tdc
  1578 00:04BB: 69 23 00     	adc	#<L17+rect_1
  1579 00:04BE: 48           	pha
  1580 00:04BF: D4 33        	pei	<L17+cMenu_1
  1581 00:04C1: F4 xx xx     	pea	#^L15+78
  1582 00:04C4: F4 xx xx     	pea	#<L15+78
  1583 00:04C7: D4 13        	pei	<L17+hWnd_1+2
  1584 00:04C9: D4 11        	pei	<L17+hWnd_1
  1585 00:04CB: 22 xx xx xx  	jsl	~~k_user_DrawWindowTextToPointWithFont
  1586                        ;				k_user_DrawWindowTextToP
                    ointWithFont(hWnd,"\x9D",cGadget,&rect,pFont);
  1587                        	.line	180
  1588 00:04CF: D4 39        	pei	<L17+pFont_1+2
  1589 00:04D1: D4 37        	pei	<L17+pFont_1
  1590 00:04D3: F4 00 00     	pea	#0
  1591 00:04D6: 18           	clc
  1592 00:04D7: 7B           	tdc
  1593 00:04D8: 69 23 00     	adc	#<L17+rect_1
  1594 00:04DB: 48           	pha
  1595 00:04DC: D4 35        	pei	<L17+cGadget_1
  1596 00:04DE: F4 xx xx     	pea	#^L15+80
  1597 00:04E1: F4 xx xx     	pea	#<L15+80
  1598 00:04E4: D4 13        	pei	<L17+hWnd_1+2
  1599 00:04E6: D4 11        	pei	<L17+hWnd_1
  1600 00:04E8: 22 xx xx xx  	jsl	~~k_user_DrawWindowTextToPointWithFont
  1601                        ;
  1602                        ;				rect.x = 0;
  1603                        	.line	182
  1604 00:04EC: 64 23        	stz	<L17+rect_1
  1605                        ;				rect.y = pWin->win_heigh
                    t - FONTW - 1;
  1606                        	.line	183
  1607 00:04EE: 22 xx xx xx  	jsl	~~k_font_getFontWidth
  1608 00:04F2: 85 01        	sta	<R0
  1609 00:04F4: 38           	sec
  1610 00:04F5: A0 0E 00     	ldy	#$e
  1611 00:04F8: B7 19        	lda	[<L17+pWin_1],Y
  1612 00:04FA: E5 01        	sbc	<R0
  1613 00:04FC: 85 05        	sta	<R1
  1614 00:04FE: 18           	clc
  1615 00:04FF: A9 FF FF     	lda	#$ffff
  1616 00:0502: 65 05        	adc	<R1
  1617 00:0504: 85 25        	sta	<L17+rect_1+2
  1618                        ;				k_user_DrawWindowTextToP
                    ointWithFont(hWnd,"\xAF",cMenu,&rect,pFont);
  1619                        	.line	184
  1620 00:0506: D4 39        	pei	<L17+pFont_1+2
  1621 00:0508: D4 37        	pei	<L17+pFont_1
  1622 00:050A: F4 00 00     	pea	#0
  1623 00:050D: 18           	clc
  1624 00:050E: 7B           	tdc
  1625 00:050F: 69 23 00     	adc	#<L17+rect_1
  1626 00:0512: 48           	pha
  1627 00:0513: D4 33        	pei	<L17+cMenu_1
  1628 00:0515: F4 xx xx     	pea	#^L15+82
  1629 00:0518: F4 xx xx     	pea	#<L15+82
  Thu Dec  3 2020 22:25                                                Page 33


  1630 00:051B: D4 13        	pei	<L17+hWnd_1+2
  1631 00:051D: D4 11        	pei	<L17+hWnd_1
  1632 00:051F: 22 xx xx xx  	jsl	~~k_user_DrawWindowTextToPointWithFont
  1633                        ;				k_user_DrawWindowTextToP
                    ointWithFont(hWnd,"\x9E",cGadget,&rect,pFont);
  1634                        	.line	185
  1635 00:0523: D4 39        	pei	<L17+pFont_1+2
  1636 00:0525: D4 37        	pei	<L17+pFont_1
  1637 00:0527: F4 00 00     	pea	#0
  1638 00:052A: 18           	clc
  1639 00:052B: 7B           	tdc
  1640 00:052C: 69 23 00     	adc	#<L17+rect_1
  1641 00:052F: 48           	pha
  1642 00:0530: D4 35        	pei	<L17+cGadget_1
  1643 00:0532: F4 xx xx     	pea	#^L15+84
  1644 00:0535: F4 xx xx     	pea	#<L15+84
  1645 00:0538: D4 13        	pei	<L17+hWnd_1+2
  1646 00:053A: D4 11        	pei	<L17+hWnd_1
  1647 00:053C: 22 xx xx xx  	jsl	~~k_user_DrawWindowTextToPointWithFont
  1648                        ;
  1649                        ;				//rect.x = (pWin->win_wi
                    dth/2) - (FONTW/2);
  1650                        ;				//k_user_DrawWindowTextT
                    oPointWithFont(k_getHandleFromWindow(pWin),"\xAF",k_getUIMen
                    uColor(),&scrollbar->rectThumb,(LPCSTR)k_user_getFontClass("
                    FXOS8x8"));
  1651                        ;
  1652                        ;				scrollbar->rectThumb.x =
                     0;
  1653                        	.line	190
  1654 00:0540: A9 00 00     	lda	#$0
  1655 00:0543: A0 0C 00     	ldy	#$c
  1656 00:0546: 97 1D        	sta	[<L17+scrollbar_1],Y
  1657                        ;				scrollbar->rectThumb.y =
                     (scrollbar->stopsize * scrollbar->location) + FONTW;
  1658                        	.line	191
  1659 00:0548: A0 08 00     	ldy	#$8
  1660 00:054B: B7 1D        	lda	[<L17+scrollbar_1],Y
  1661 00:054D: AA           	tax
  1662 00:054E: A0 06 00     	ldy	#$6
  1663 00:0551: B7 1D        	lda	[<L17+scrollbar_1],Y
  1664                        	xref	~~~mul
  1665 00:0553: 22 xx xx xx  	jsl	~~~mul
  1666 00:0557: 85 01        	sta	<R0
  1667 00:0559: 22 xx xx xx  	jsl	~~k_font_getFontWidth
  1668 00:055D: 85 05        	sta	<R1
  1669 00:055F: 18           	clc
  1670 00:0560: A5 05        	lda	<R1
  1671 00:0562: 65 01        	adc	<R0
  1672 00:0564: A0 0E 00     	ldy	#$e
  1673 00:0567: 97 1D        	sta	[<L17+scrollbar_1],Y
  1674                        ;
  1675                        ;				k_user_DrawWindowTextToP
                    ointWithFont(hWnd,"\xBD",cGadget,&scrollbar->rectThumb,pFont
                    );
  1676                        	.line	193
  1677 00:0569: D4 39        	pei	<L17+pFont_1+2
  1678 00:056B: D4 37        	pei	<L17+pFont_1
  Thu Dec  3 2020 22:25                                                Page 34


  1679 00:056D: 18           	clc
  1680 00:056E: A9 0C 00     	lda	#$c
  1681 00:0571: 65 1D        	adc	<L17+scrollbar_1
  1682 00:0573: 85 01        	sta	<R0
  1683 00:0575: A9 00 00     	lda	#$0
  1684 00:0578: 65 1F        	adc	<L17+scrollbar_1+2
  1685 00:057A: 85 03        	sta	<R0+2
  1686 00:057C: D4 03        	pei	<R0+2
  1687 00:057E: D4 01        	pei	<R0
  1688 00:0580: D4 35        	pei	<L17+cGadget_1
  1689 00:0582: F4 xx xx     	pea	#^L15+86
  1690 00:0585: F4 xx xx     	pea	#<L15+86
  1691 00:0588: D4 13        	pei	<L17+hWnd_1+2
  1692 00:058A: D4 11        	pei	<L17+hWnd_1
  1693 00:058C: 22 xx xx xx  	jsl	~~k_user_DrawWindowTextToPointWithFont
  1694                        ;
  1695                        ;			}
  1696                        	.line	195
  1697                        ;			break;
  1698                        L10022:
  1699                        	.line	196
  1700 00:0590: 82 25 04     	brl	L10017
  1701                        ;		case FX_REDRAW_WINDOW:
  1702                        	.line	197
  1703                        L10023:
  1704                        ;			k_debug_string("vscrollbarWindow
                    Proc::FX_REDRAW_WINDOW\r\n");
  1705                        	.line	198
  1706 00:0593: F4 xx xx     	pea	#^L15+88
  1707 00:0596: F4 xx xx     	pea	#<L15+88
  1708 00:0599: 22 xx xx xx  	jsl	~~k_debug_string
  1709                        ;			break;
  1710                        	.line	199
  1711 00:059D: 82 18 04     	brl	L10017
  1712                        ;
  1713                        ;		case FX_LBUTTON_DOWN:
  1714                        	.line	201
  1715                        L10024:
  1716                        ;			k_debug_string("vscrollbarWindow
                    Proc::FX_LBUTTON_DOWN\r\n");
  1717                        	.line	202
  1718 00:05A0: F4 xx xx     	pea	#^L15+129
  1719 00:05A3: F4 xx xx     	pea	#<L15+129
  1720 00:05A6: 22 xx xx xx  	jsl	~~k_debug_string
  1721                        ;
  1722                        ;
  1723                        ;			cy = *((INT*)&pMsg->data[3]) - p
                    Win->win_y;
  1724                        	.line	205
  1725 00:05AA: 38           	sec
  1726 00:05AB: A0 19 00     	ldy	#$19
  1727 00:05AE: B7 3E        	lda	[<L16+pMsg_0],Y
  1728 00:05B0: A0 0A 00     	ldy	#$a
  1729 00:05B3: F7 19        	sbc	[<L17+pWin_1],Y
  1730 00:05B5: 85 2D        	sta	<L17+cy_1
  1731                        ;
  1732                        ;			if(cy > 0 &&  cy < FONTW)
  1733                        	.line	207
  Thu Dec  3 2020 22:25                                                Page 35


  1734                        ;			{
  1735 00:05B7: 38           	sec
  1736 00:05B8: A9 00 00     	lda	#$0
  1737 00:05BB: E5 2D        	sbc	<L17+cy_1
  1738 00:05BD: 70 03        	bvs	L23
  1739 00:05BF: 49 00 80     	eor	#$8000
  1740                        L23:
  1741 00:05C2: 10 03        	bpl	L24
  1742 00:05C4: 82 80 00     	brl	L10025
  1743                        L24:
  1744 00:05C7: 22 xx xx xx  	jsl	~~k_font_getFontWidth
  1745 00:05CB: 85 01        	sta	<R0
  1746 00:05CD: A5 2D        	lda	<L17+cy_1
  1747 00:05CF: C5 01        	cmp	<R0
  1748 00:05D1: 90 03        	bcc	L25
  1749 00:05D3: 82 71 00     	brl	L10025
  1750                        L25:
  1751                        	.line	208
  1752                        ;				k_debug_integer("vscroll
                    barWindowProc::LEFT ARROW:",cx);
  1753                        	.line	209
  1754 00:05D6: D4 2B        	pei	<L17+cx_1
  1755 00:05D8: F4 xx xx     	pea	#^L15+169
  1756 00:05DB: F4 xx xx     	pea	#<L15+169
  1757 00:05DE: 22 xx xx xx  	jsl	~~k_debug_integer
  1758                        ;				rect.x = 0;
  1759                        	.line	210
  1760 00:05E2: 64 23        	stz	<L17+rect_1
  1761                        ;				rect.y = 0;
  1762                        	.line	211
  1763 00:05E4: 64 25        	stz	<L17+rect_1+2
  1764                        ;				k_user_DrawWindowTextToP
                    ointWithFont(hWnd,"\xAF",cMenu,&rect,pFont);
  1765                        	.line	212
  1766 00:05E6: D4 39        	pei	<L17+pFont_1+2
  1767 00:05E8: D4 37        	pei	<L17+pFont_1
  1768 00:05EA: F4 00 00     	pea	#0
  1769 00:05ED: 18           	clc
  1770 00:05EE: 7B           	tdc
  1771 00:05EF: 69 23 00     	adc	#<L17+rect_1
  1772 00:05F2: 48           	pha
  1773 00:05F3: D4 33        	pei	<L17+cMenu_1
  1774 00:05F5: F4 xx xx     	pea	#^L15+203
  1775 00:05F8: F4 xx xx     	pea	#<L15+203
  1776 00:05FB: D4 13        	pei	<L17+hWnd_1+2
  1777 00:05FD: D4 11        	pei	<L17+hWnd_1
  1778 00:05FF: 22 xx xx xx  	jsl	~~k_user_DrawWindowTextToPointWithFont
  1779                        ;				k_user_DrawWindowTextToP
                    ointWithFont(hWnd,"\xB2",cGadget,&rect,pFont);
  1780                        	.line	213
  1781 00:0603: D4 39        	pei	<L17+pFont_1+2
  1782 00:0605: D4 37        	pei	<L17+pFont_1
  1783 00:0607: F4 00 00     	pea	#0
  1784 00:060A: 18           	clc
  1785 00:060B: 7B           	tdc
  1786 00:060C: 69 23 00     	adc	#<L17+rect_1
  1787 00:060F: 48           	pha
  1788 00:0610: D4 35        	pei	<L17+cGadget_1
  Thu Dec  3 2020 22:25                                                Page 36


  1789 00:0612: F4 xx xx     	pea	#^L15+205
  1790 00:0615: F4 xx xx     	pea	#<L15+205
  1791 00:0618: D4 13        	pei	<L17+hWnd_1+2
  1792 00:061A: D4 11        	pei	<L17+hWnd_1
  1793 00:061C: 22 xx xx xx  	jsl	~~k_user_DrawWindowTextToPointWithFont
  1794                        ;				scrollbar->location--;
  1795                        	.line	214
  1796 00:0620: 18           	clc
  1797 00:0621: A9 FF FF     	lda	#$ffff
  1798 00:0624: A0 08 00     	ldy	#$8
  1799 00:0627: 77 1D        	adc	[<L17+scrollbar_1],Y
  1800 00:0629: A0 08 00     	ldy	#$8
  1801 00:062C: 97 1D        	sta	[<L17+scrollbar_1],Y
  1802                        ;				if(scrollbar->location <
                     0)
  1803                        	.line	215
  1804                        ;					scrollbar->locat
                    ion = 0;
  1805 00:062E: A0 08 00     	ldy	#$8
  1806 00:0631: B7 1D        	lda	[<L17+scrollbar_1],Y
  1807 00:0633: 30 03        	bmi	L26
  1808 00:0635: 82 08 00     	brl	L10026
  1809                        L26:
  1810                        	.line	216
  1811 00:0638: A9 00 00     	lda	#$0
  1812 00:063B: A0 08 00     	ldy	#$8
  1813 00:063E: 97 1D        	sta	[<L17+scrollbar_1],Y
  1814                        ;
  1815                        ;				direction = 0L;
  1816                        L10026:
  1817                        	.line	218
  1818 00:0640: 64 2F        	stz	<L17+direction_1
  1819 00:0642: 64 31        	stz	<L17+direction_1+2
  1820                        ;			}
  1821                        	.line	219
  1822                        ;			else if(cy > (pWin->win_height -
                     FONTW) &&  cy < (pWin->win_height))
  1823 00:0644: 82 B9 00     	brl	L10027
  1824                        L10025:
  1825                        	.line	220
  1826                        ;			{
  1827 00:0647: 22 xx xx xx  	jsl	~~k_font_getFontWidth
  1828 00:064B: 85 01        	sta	<R0
  1829 00:064D: 38           	sec
  1830 00:064E: A0 0E 00     	ldy	#$e
  1831 00:0651: B7 19        	lda	[<L17+pWin_1],Y
  1832 00:0653: E5 01        	sbc	<R0
  1833 00:0655: 85 05        	sta	<R1
  1834 00:0657: A5 05        	lda	<R1
  1835 00:0659: C5 2D        	cmp	<L17+cy_1
  1836 00:065B: 90 03        	bcc	L27
  1837 00:065D: 82 A0 00     	brl	L10028
  1838                        L27:
  1839 00:0660: 38           	sec
  1840 00:0661: A5 2D        	lda	<L17+cy_1
  1841 00:0663: A0 0E 00     	ldy	#$e
  1842 00:0666: F7 19        	sbc	[<L17+pWin_1],Y
  1843 00:0668: 70 03        	bvs	L28
  Thu Dec  3 2020 22:25                                                Page 37


  1844 00:066A: 49 00 80     	eor	#$8000
  1845                        L28:
  1846 00:066D: 10 03        	bpl	L29
  1847 00:066F: 82 8E 00     	brl	L10028
  1848                        L29:
  1849                        	.line	221
  1850                        ;				k_debug_integer("vscroll
                    barWindowProc::RIGHT ARROW:",cx);
  1851                        	.line	222
  1852 00:0672: D4 2B        	pei	<L17+cx_1
  1853 00:0674: F4 xx xx     	pea	#^L15+207
  1854 00:0677: F4 xx xx     	pea	#<L15+207
  1855 00:067A: 22 xx xx xx  	jsl	~~k_debug_integer
  1856                        ;				rect.x = 0;
  1857                        	.line	223
  1858 00:067E: 64 23        	stz	<L17+rect_1
  1859                        ;				rect.y = pWin->win_heigh
                    t - FONTW - 1;
  1860                        	.line	224
  1861 00:0680: 22 xx xx xx  	jsl	~~k_font_getFontWidth
  1862 00:0684: 85 01        	sta	<R0
  1863 00:0686: 38           	sec
  1864 00:0687: A0 0E 00     	ldy	#$e
  1865 00:068A: B7 19        	lda	[<L17+pWin_1],Y
  1866 00:068C: E5 01        	sbc	<R0
  1867 00:068E: 85 05        	sta	<R1
  1868 00:0690: 18           	clc
  1869 00:0691: A9 FF FF     	lda	#$ffff
  1870 00:0694: 65 05        	adc	<R1
  1871 00:0696: 85 25        	sta	<L17+rect_1+2
  1872                        ;				k_user_DrawWindowTextToP
                    ointWithFont(hWnd,"\xAF",cMenu,&rect,pFont);
  1873                        	.line	225
  1874 00:0698: D4 39        	pei	<L17+pFont_1+2
  1875 00:069A: D4 37        	pei	<L17+pFont_1
  1876 00:069C: F4 00 00     	pea	#0
  1877 00:069F: 18           	clc
  1878 00:06A0: 7B           	tdc
  1879 00:06A1: 69 23 00     	adc	#<L17+rect_1
  1880 00:06A4: 48           	pha
  1881 00:06A5: D4 33        	pei	<L17+cMenu_1
  1882 00:06A7: F4 xx xx     	pea	#^L15+242
  1883 00:06AA: F4 xx xx     	pea	#<L15+242
  1884 00:06AD: D4 13        	pei	<L17+hWnd_1+2
  1885 00:06AF: D4 11        	pei	<L17+hWnd_1
  1886 00:06B1: 22 xx xx xx  	jsl	~~k_user_DrawWindowTextToPointWithFont
  1887                        ;				k_user_DrawWindowTextToP
                    ointWithFont(hWnd,"\xB3",cGadget,&rect,pFont);
  1888                        	.line	226
  1889 00:06B5: D4 39        	pei	<L17+pFont_1+2
  1890 00:06B7: D4 37        	pei	<L17+pFont_1
  1891 00:06B9: F4 00 00     	pea	#0
  1892 00:06BC: 18           	clc
  1893 00:06BD: 7B           	tdc
  1894 00:06BE: 69 23 00     	adc	#<L17+rect_1
  1895 00:06C1: 48           	pha
  1896 00:06C2: D4 35        	pei	<L17+cGadget_1
  1897 00:06C4: F4 xx xx     	pea	#^L15+244
  Thu Dec  3 2020 22:25                                                Page 38


  1898 00:06C7: F4 xx xx     	pea	#<L15+244
  1899 00:06CA: D4 13        	pei	<L17+hWnd_1+2
  1900 00:06CC: D4 11        	pei	<L17+hWnd_1
  1901 00:06CE: 22 xx xx xx  	jsl	~~k_user_DrawWindowTextToPointWithFont
  1902                        ;				scrollbar->location++;
  1903                        	.line	227
  1904 00:06D2: A0 08 00     	ldy	#$8
  1905 00:06D5: B7 1D        	lda	[<L17+scrollbar_1],Y
  1906 00:06D7: 1A           	ina
  1907 00:06D8: A0 08 00     	ldy	#$8
  1908 00:06DB: 97 1D        	sta	[<L17+scrollbar_1],Y
  1909                        ;				if(scrollbar->location >
                     (scrollbar->increment ))
  1910                        	.line	228
  1911                        ;					scrollbar->locat
                    ion =  scrollbar->increment;
  1912 00:06DD: A0 04 00     	ldy	#$4
  1913 00:06E0: B7 1D        	lda	[<L17+scrollbar_1],Y
  1914 00:06E2: A0 08 00     	ldy	#$8
  1915 00:06E5: D7 1D        	cmp	[<L17+scrollbar_1],Y
  1916 00:06E7: 90 03        	bcc	L30
  1917 00:06E9: 82 0A 00     	brl	L10029
  1918                        L30:
  1919                        	.line	229
  1920 00:06EC: A0 04 00     	ldy	#$4
  1921 00:06EF: B7 1D        	lda	[<L17+scrollbar_1],Y
  1922 00:06F1: A0 08 00     	ldy	#$8
  1923 00:06F4: 97 1D        	sta	[<L17+scrollbar_1],Y
  1924                        ;
  1925                        ;				direction = 1L;
  1926                        L10029:
  1927                        	.line	231
  1928 00:06F6: A9 01 00     	lda	#$1
  1929 00:06F9: 85 2F        	sta	<L17+direction_1
  1930 00:06FB: A9 00 00     	lda	#$0
  1931 00:06FE: 85 31        	sta	<L17+direction_1+2
  1932                        ;			}
  1933                        	.line	232
  1934                        ;
  1935                        ;			k_user_DrawWindowTextToPointWith
                    Font(hWnd,"\xAF",cMenu,&scrollbar->rectThumb,pFont);
  1936                        L10028:
  1937                        L10027:
  1938                        	.line	234
  1939 00:0700: D4 39        	pei	<L17+pFont_1+2
  1940 00:0702: D4 37        	pei	<L17+pFont_1
  1941 00:0704: 18           	clc
  1942 00:0705: A9 0C 00     	lda	#$c
  1943 00:0708: 65 1D        	adc	<L17+scrollbar_1
  1944 00:070A: 85 01        	sta	<R0
  1945 00:070C: A9 00 00     	lda	#$0
  1946 00:070F: 65 1F        	adc	<L17+scrollbar_1+2
  1947 00:0711: 85 03        	sta	<R0+2
  1948 00:0713: D4 03        	pei	<R0+2
  1949 00:0715: D4 01        	pei	<R0
  1950 00:0717: D4 33        	pei	<L17+cMenu_1
  1951 00:0719: F4 xx xx     	pea	#^L15+246
  1952 00:071C: F4 xx xx     	pea	#<L15+246
  Thu Dec  3 2020 22:25                                                Page 39


  1953 00:071F: D4 13        	pei	<L17+hWnd_1+2
  1954 00:0721: D4 11        	pei	<L17+hWnd_1
  1955 00:0723: 22 xx xx xx  	jsl	~~k_user_DrawWindowTextToPointWithFont
  1956                        ;
  1957                        ;			scrollbar->rectThumb.y =  (scrol
                    lbar->stopsize * scrollbar->location) + FONTW;
  1958                        	.line	236
  1959 00:0727: A0 08 00     	ldy	#$8
  1960 00:072A: B7 1D        	lda	[<L17+scrollbar_1],Y
  1961 00:072C: AA           	tax
  1962 00:072D: A0 06 00     	ldy	#$6
  1963 00:0730: B7 1D        	lda	[<L17+scrollbar_1],Y
  1964                        	xref	~~~mul
  1965 00:0732: 22 xx xx xx  	jsl	~~~mul
  1966 00:0736: 85 01        	sta	<R0
  1967 00:0738: 22 xx xx xx  	jsl	~~k_font_getFontWidth
  1968 00:073C: 85 05        	sta	<R1
  1969 00:073E: 18           	clc
  1970 00:073F: A5 05        	lda	<R1
  1971 00:0741: 65 01        	adc	<R0
  1972 00:0743: A0 0E 00     	ldy	#$e
  1973 00:0746: 97 1D        	sta	[<L17+scrollbar_1],Y
  1974                        ;
  1975                        ;			if(scrollbar->rectThumb.y > (pWi
                    n->win_height - (2*FONTW) -1 ))
  1976                        	.line	238
  1977                        ;				scrollbar->rectThumb.y =
                     (pWin->win_height - (2*FONTW) -1 );
  1978 00:0748: 22 xx xx xx  	jsl	~~k_font_getFontWidth
  1979 00:074C: 85 05        	sta	<R1
  1980 00:074E: A5 05        	lda	<R1
  1981 00:0750: 0A           	asl	A
  1982 00:0751: 85 01        	sta	<R0
  1983 00:0753: 38           	sec
  1984 00:0754: A0 0E 00     	ldy	#$e
  1985 00:0757: B7 19        	lda	[<L17+pWin_1],Y
  1986 00:0759: E5 01        	sbc	<R0
  1987 00:075B: 85 05        	sta	<R1
  1988 00:075D: 18           	clc
  1989 00:075E: A9 FF FF     	lda	#$ffff
  1990 00:0761: 65 05        	adc	<R1
  1991 00:0763: 85 01        	sta	<R0
  1992 00:0765: A5 01        	lda	<R0
  1993 00:0767: A0 0E 00     	ldy	#$e
  1994 00:076A: D7 1D        	cmp	[<L17+scrollbar_1],Y
  1995 00:076C: 90 03        	bcc	L31
  1996 00:076E: 82 20 00     	brl	L10030
  1997                        L31:
  1998                        	.line	239
  1999 00:0771: 22 xx xx xx  	jsl	~~k_font_getFontWidth
  2000 00:0775: 85 05        	sta	<R1
  2001 00:0777: A5 05        	lda	<R1
  2002 00:0779: 0A           	asl	A
  2003 00:077A: 85 01        	sta	<R0
  2004 00:077C: 38           	sec
  2005 00:077D: A0 0E 00     	ldy	#$e
  2006 00:0780: B7 19        	lda	[<L17+pWin_1],Y
  2007 00:0782: E5 01        	sbc	<R0
  Thu Dec  3 2020 22:25                                                Page 40


  2008 00:0784: 85 05        	sta	<R1
  2009 00:0786: 18           	clc
  2010 00:0787: A9 FF FF     	lda	#$ffff
  2011 00:078A: 65 05        	adc	<R1
  2012 00:078C: A0 0E 00     	ldy	#$e
  2013 00:078F: 97 1D        	sta	[<L17+scrollbar_1],Y
  2014                        ;
  2015                        ;
  2016                        ;			if(scrollbar->rectThumb.y < FONT
                    W)
  2017                        L10030:
  2018                        	.line	242
  2019                        ;				scrollbar->rectThumb.y =
                     FONTW;
  2020 00:0791: 22 xx xx xx  	jsl	~~k_font_getFontWidth
  2021 00:0795: 85 01        	sta	<R0
  2022 00:0797: A0 0E 00     	ldy	#$e
  2023 00:079A: B7 1D        	lda	[<L17+scrollbar_1],Y
  2024 00:079C: C5 01        	cmp	<R0
  2025 00:079E: 90 03        	bcc	L32
  2026 00:07A0: 82 09 00     	brl	L10031
  2027                        L32:
  2028                        	.line	243
  2029 00:07A3: 22 xx xx xx  	jsl	~~k_font_getFontWidth
  2030 00:07A7: A0 0E 00     	ldy	#$e
  2031 00:07AA: 97 1D        	sta	[<L17+scrollbar_1],Y
  2032                        ;
  2033                        ;			scrollbar->rectThumb.x = 0;
  2034                        L10031:
  2035                        	.line	245
  2036 00:07AC: A9 00 00     	lda	#$0
  2037 00:07AF: A0 0C 00     	ldy	#$c
  2038 00:07B2: 97 1D        	sta	[<L17+scrollbar_1],Y
  2039                        ;
  2040                        ;
  2041                        ;			k_debug_integer("vscrollbarWindo
                    wProc::pWin->win_height:",pWin->win_height);
  2042                        	.line	248
  2043 00:07B4: A0 0E 00     	ldy	#$e
  2044 00:07B7: B7 19        	lda	[<L17+pWin_1],Y
  2045 00:07B9: 48           	pha
  2046 00:07BA: F4 xx xx     	pea	#^L15+248
  2047 00:07BD: F4 xx xx     	pea	#<L15+248
  2048 00:07C0: 22 xx xx xx  	jsl	~~k_debug_integer
  2049                        ;			k_debug_integer("vscrollbarWindo
                    wProc::scrollbar->rectThumb.x:",scrollbar->rectThumb.x);
  2050                        	.line	249
  2051 00:07C4: A0 0C 00     	ldy	#$c
  2052 00:07C7: B7 1D        	lda	[<L17+scrollbar_1],Y
  2053 00:07C9: 48           	pha
  2054 00:07CA: F4 xx xx     	pea	#^L15+288
  2055 00:07CD: F4 xx xx     	pea	#<L15+288
  2056 00:07D0: 22 xx xx xx  	jsl	~~k_debug_integer
  2057                        ;			k_debug_integer("vscrollbarWindo
                    wProc::location:",scrollbar->location);
  2058                        	.line	250
  2059 00:07D4: A0 08 00     	ldy	#$8
  2060 00:07D7: B7 1D        	lda	[<L17+scrollbar_1],Y
  Thu Dec  3 2020 22:25                                                Page 41


  2061 00:07D9: 48           	pha
  2062 00:07DA: F4 xx xx     	pea	#^L15+334
  2063 00:07DD: F4 xx xx     	pea	#<L15+334
  2064 00:07E0: 22 xx xx xx  	jsl	~~k_debug_integer
  2065                        ;			k_debug_integer("vscrollbarWindo
                    wProc::increment:",scrollbar->increment);
  2066                        	.line	251
  2067 00:07E4: A0 04 00     	ldy	#$4
  2068 00:07E7: B7 1D        	lda	[<L17+scrollbar_1],Y
  2069 00:07E9: 48           	pha
  2070 00:07EA: F4 xx xx     	pea	#^L15+366
  2071 00:07ED: F4 xx xx     	pea	#<L15+366
  2072 00:07F0: 22 xx xx xx  	jsl	~~k_debug_integer
  2073                        ;			k_debug_integer("vscrollbarWindo
                    wProc::offset:",scrollbar->rectThumb.x);
  2074                        	.line	252
  2075 00:07F4: A0 0C 00     	ldy	#$c
  2076 00:07F7: B7 1D        	lda	[<L17+scrollbar_1],Y
  2077 00:07F9: 48           	pha
  2078 00:07FA: F4 xx xx     	pea	#^L15+399
  2079 00:07FD: F4 xx xx     	pea	#<L15+399
  2080 00:0800: 22 xx xx xx  	jsl	~~k_debug_integer
  2081                        ;
  2082                        ;			k_user_DrawWindowTextToPointWith
                    Font(hWnd,"\xBD",cGadget,&scrollbar->rectThumb,pFont);
  2083                        	.line	254
  2084 00:0804: D4 39        	pei	<L17+pFont_1+2
  2085 00:0806: D4 37        	pei	<L17+pFont_1
  2086 00:0808: 18           	clc
  2087 00:0809: A9 0C 00     	lda	#$c
  2088 00:080C: 65 1D        	adc	<L17+scrollbar_1
  2089 00:080E: 85 01        	sta	<R0
  2090 00:0810: A9 00 00     	lda	#$0
  2091 00:0813: 65 1F        	adc	<L17+scrollbar_1+2
  2092 00:0815: 85 03        	sta	<R0+2
  2093 00:0817: D4 03        	pei	<R0+2
  2094 00:0819: D4 01        	pei	<R0
  2095 00:081B: D4 35        	pei	<L17+cGadget_1
  2096 00:081D: F4 xx xx     	pea	#^L15+429
  2097 00:0820: F4 xx xx     	pea	#<L15+429
  2098 00:0823: D4 13        	pei	<L17+hWnd_1+2
  2099 00:0825: D4 11        	pei	<L17+hWnd_1
  2100 00:0827: 22 xx xx xx  	jsl	~~k_user_DrawWindowTextToPointWithFont
  2101                        ;
  2102                        ;
  2103                        ;			//k_debug_strings("hscrollbarWin
                    dowProc::send parent:",k_getWindowFromHandle(pWin->pParentWi
                    ndow)->win_title);
  2104                        ;			k_send_command_message(pWin->pPa
                    rentWindow,FX_SCROLLBAR_COMMAND,CTL_VERT_SCROLL,scrollbar->l
                    ocation,scrollbar->location*scrollbar->increment,direction);
  2105                        	.line	258
  2106 00:082B: D4 31        	pei	<L17+direction_1+2
  2107 00:082D: D4 2F        	pei	<L17+direction_1
  2108 00:082F: A0 04 00     	ldy	#$4
  2109 00:0832: B7 1D        	lda	[<L17+scrollbar_1],Y
  2110 00:0834: AA           	tax
  2111 00:0835: A0 08 00     	ldy	#$8
  Thu Dec  3 2020 22:25                                                Page 42


  2112 00:0838: B7 1D        	lda	[<L17+scrollbar_1],Y
  2113                        	xref	~~~mul
  2114 00:083A: 22 xx xx xx  	jsl	~~~mul
  2115 00:083E: 85 01        	sta	<R0
  2116 00:0840: A5 01        	lda	<R0
  2117 00:0842: 85 01        	sta	<R0
  2118 00:0844: 64 03        	stz	<R0+2
  2119 00:0846: D4 03        	pei	<R0+2
  2120 00:0848: D4 01        	pei	<R0
  2121 00:084A: A0 08 00     	ldy	#$8
  2122 00:084D: B7 1D        	lda	[<L17+scrollbar_1],Y
  2123 00:084F: 48           	pha
  2124 00:0850: F4 01 00     	pea	#<$1
  2125 00:0853: F4 02 FA     	pea	#<$fa02
  2126 00:0856: A0 32 01     	ldy	#$132
  2127 00:0859: B7 19        	lda	[<L17+pWin_1],Y
  2128 00:085B: 48           	pha
  2129 00:085C: A0 30 01     	ldy	#$130
  2130 00:085F: B7 19        	lda	[<L17+pWin_1],Y
  2131 00:0861: 48           	pha
  2132 00:0862: 22 xx xx xx  	jsl	~~k_send_command_message
  2133                        ;
  2134                        ;
  2135                        ;			break;
  2136                        	.line	261
  2137 00:0866: 82 4F 01     	brl	L10017
  2138                        ;
  2139                        ;		case FX_LBUTTON_UP:
  2140                        	.line	263
  2141                        L10032:
  2142                        ;			k_debug_string("vscrollbarWindow
                    Proc::FX_LBUTTON_UP\r\n");
  2143                        	.line	264
  2144 00:0869: F4 xx xx     	pea	#^L15+431
  2145 00:086C: F4 xx xx     	pea	#<L15+431
  2146 00:086F: 22 xx xx xx  	jsl	~~k_debug_string
  2147                        ;
  2148                        ;			rect.x = 0;
  2149                        	.line	266
  2150 00:0873: 64 23        	stz	<L17+rect_1
  2151                        ;			rect.y = 0;
  2152                        	.line	267
  2153 00:0875: 64 25        	stz	<L17+rect_1+2
  2154                        ;			k_user_DrawWindowTextToPointWith
                    Font(hWnd,"\xAF",cMenu,&rect,pFont);
  2155                        	.line	268
  2156 00:0877: D4 39        	pei	<L17+pFont_1+2
  2157 00:0879: D4 37        	pei	<L17+pFont_1
  2158 00:087B: F4 00 00     	pea	#0
  2159 00:087E: 18           	clc
  2160 00:087F: 7B           	tdc
  2161 00:0880: 69 23 00     	adc	#<L17+rect_1
  2162 00:0883: 48           	pha
  2163 00:0884: D4 33        	pei	<L17+cMenu_1
  2164 00:0886: F4 xx xx     	pea	#^L15+469
  2165 00:0889: F4 xx xx     	pea	#<L15+469
  2166 00:088C: D4 13        	pei	<L17+hWnd_1+2
  2167 00:088E: D4 11        	pei	<L17+hWnd_1
  Thu Dec  3 2020 22:25                                                Page 43


  2168 00:0890: 22 xx xx xx  	jsl	~~k_user_DrawWindowTextToPointWithFont
  2169                        ;			k_user_DrawWindowTextToPointWith
                    Font(hWnd,"\x9D",cGadget,&rect,pFont);
  2170                        	.line	269
  2171 00:0894: D4 39        	pei	<L17+pFont_1+2
  2172 00:0896: D4 37        	pei	<L17+pFont_1
  2173 00:0898: F4 00 00     	pea	#0
  2174 00:089B: 18           	clc
  2175 00:089C: 7B           	tdc
  2176 00:089D: 69 23 00     	adc	#<L17+rect_1
  2177 00:08A0: 48           	pha
  2178 00:08A1: D4 35        	pei	<L17+cGadget_1
  2179 00:08A3: F4 xx xx     	pea	#^L15+471
  2180 00:08A6: F4 xx xx     	pea	#<L15+471
  2181 00:08A9: D4 13        	pei	<L17+hWnd_1+2
  2182 00:08AB: D4 11        	pei	<L17+hWnd_1
  2183 00:08AD: 22 xx xx xx  	jsl	~~k_user_DrawWindowTextToPointWithFont
  2184                        ;
  2185                        ;			rect.x = 0;
  2186                        	.line	271
  2187 00:08B1: 64 23        	stz	<L17+rect_1
  2188                        ;			rect.y = pWin->win_height - FONT
                    W - 1;
  2189                        	.line	272
  2190 00:08B3: 22 xx xx xx  	jsl	~~k_font_getFontWidth
  2191 00:08B7: 85 01        	sta	<R0
  2192 00:08B9: 38           	sec
  2193 00:08BA: A0 0E 00     	ldy	#$e
  2194 00:08BD: B7 19        	lda	[<L17+pWin_1],Y
  2195 00:08BF: E5 01        	sbc	<R0
  2196 00:08C1: 85 05        	sta	<R1
  2197 00:08C3: 18           	clc
  2198 00:08C4: A9 FF FF     	lda	#$ffff
  2199 00:08C7: 65 05        	adc	<R1
  2200 00:08C9: 85 25        	sta	<L17+rect_1+2
  2201                        ;			k_user_DrawWindowTextToPointWith
                    Font(hWnd,"\xAF",cMenu,&rect,pFont);
  2202                        	.line	273
  2203 00:08CB: D4 39        	pei	<L17+pFont_1+2
  2204 00:08CD: D4 37        	pei	<L17+pFont_1
  2205 00:08CF: F4 00 00     	pea	#0
  2206 00:08D2: 18           	clc
  2207 00:08D3: 7B           	tdc
  2208 00:08D4: 69 23 00     	adc	#<L17+rect_1
  2209 00:08D7: 48           	pha
  2210 00:08D8: D4 33        	pei	<L17+cMenu_1
  2211 00:08DA: F4 xx xx     	pea	#^L15+473
  2212 00:08DD: F4 xx xx     	pea	#<L15+473
  2213 00:08E0: D4 13        	pei	<L17+hWnd_1+2
  2214 00:08E2: D4 11        	pei	<L17+hWnd_1
  2215 00:08E4: 22 xx xx xx  	jsl	~~k_user_DrawWindowTextToPointWithFont
  2216                        ;			k_user_DrawWindowTextToPointWith
                    Font(hWnd,"\x9E",cGadget,&rect,pFont);
  2217                        	.line	274
  2218 00:08E8: D4 39        	pei	<L17+pFont_1+2
  2219 00:08EA: D4 37        	pei	<L17+pFont_1
  2220 00:08EC: F4 00 00     	pea	#0
  2221 00:08EF: 18           	clc
  Thu Dec  3 2020 22:25                                                Page 44


  2222 00:08F0: 7B           	tdc
  2223 00:08F1: 69 23 00     	adc	#<L17+rect_1
  2224 00:08F4: 48           	pha
  2225 00:08F5: D4 35        	pei	<L17+cGadget_1
  2226 00:08F7: F4 xx xx     	pea	#^L15+475
  2227 00:08FA: F4 xx xx     	pea	#<L15+475
  2228 00:08FD: D4 13        	pei	<L17+hWnd_1+2
  2229 00:08FF: D4 11        	pei	<L17+hWnd_1
  2230 00:0901: 22 xx xx xx  	jsl	~~k_user_DrawWindowTextToPointWithFont
  2231                        ;
  2232                        ;			k_send_command_message(pWin->pPa
                    rentWindow,FX_CONTROL_COMMAND,CTL_BUTTON_SELECTED,LOWORD((UL
                    ONG)pWin->hMenu),0L,0L);
  2233                        	.line	276
  2234 00:0905: F4 00 00     	pea	#^$0
  2235 00:0908: F4 00 00     	pea	#<$0
  2236 00:090B: F4 00 00     	pea	#^$0
  2237 00:090E: F4 00 00     	pea	#<$0
  2238 00:0911: A0 34 01     	ldy	#$134
  2239 00:0914: B7 19        	lda	[<L17+pWin_1],Y
  2240 00:0916: 48           	pha
  2241 00:0917: F4 02 00     	pea	#<$2
  2242 00:091A: F4 00 FA     	pea	#<$fa00
  2243 00:091D: A0 32 01     	ldy	#$132
  2244 00:0920: B7 19        	lda	[<L17+pWin_1],Y
  2245 00:0922: 48           	pha
  2246 00:0923: A0 30 01     	ldy	#$130
  2247 00:0926: B7 19        	lda	[<L17+pWin_1],Y
  2248 00:0928: 48           	pha
  2249 00:0929: 22 xx xx xx  	jsl	~~k_send_command_message
  2250                        ;
  2251                        ;			break;
  2252                        	.line	278
  2253 00:092D: 82 88 00     	brl	L10017
  2254                        ;		case FX_MOUSE_ENTER:
  2255                        	.line	279
  2256                        L10033:
  2257                        ;			k_debug_string("vscrollbarWindow
                    Proc::FX_MOUSE_ENTER\r\n");
  2258                        	.line	280
  2259 00:0930: F4 xx xx     	pea	#^L15+477
  2260 00:0933: F4 xx xx     	pea	#<L15+477
  2261 00:0936: 22 xx xx xx  	jsl	~~k_debug_string
  2262                        ;
  2263                        ;			break;
  2264                        	.line	282
  2265 00:093A: 82 7B 00     	brl	L10017
  2266                        ;		case FX_MOUSE_EXIT:
  2267                        	.line	283
  2268                        L10034:
  2269                        ;			k_debug_string("vscrollbarWindow
                    Proc::FX_MOUSE_EXIT\r\n");
  2270                        	.line	284
  2271 00:093D: F4 xx xx     	pea	#^L15+516
  2272 00:0940: F4 xx xx     	pea	#<L15+516
  2273 00:0943: 22 xx xx xx  	jsl	~~k_debug_string
  2274                        ;
  2275                        ;			/*
  Thu Dec  3 2020 22:25                                                Page 45


  2276                        ;			rect.x = 0;
  2277                        ;			rect.y = 0;
  2278                        ;			k_user_DrawWindowTextToPointWith
                    Font(hWnd,"\xAF",cMenu,&rect,pFont);
  2279                        ;			k_user_DrawWindowTextToPointWith
                    Font(hWnd,"\x9D",cGadget,&rect,pFont);
  2280                        ;
  2281                        ;			rect.x = 0;
  2282                        ;			rect.y = pWin->win_height - FONT
                    W - 1;
  2283                        ;			k_user_DrawWindowTextToPointWith
                    Font(hWnd,"\xAF",cMenu,&rect,pFont);
  2284                        ;			k_user_DrawWindowTextToPointWith
                    Font(hWnd,"\x9E",cGadget,&rect,pFont);
  2285                        ;
  2286                        ;			*/
  2287                        ;
  2288                        ;			break;
  2289                        	.line	299
  2290 00:0947: 82 6E 00     	brl	L10017
  2291                        ;		case FX_MOUSE_MOVE:
  2292                        	.line	300
  2293                        L10035:
  2294                        ;			break;
  2295                        	.line	301
  2296 00:094A: 82 6B 00     	brl	L10017
  2297                        ;		case FX_CONTROL_COMMAND:
  2298                        	.line	302
  2299                        L10036:
  2300                        ;			break;
  2301                        	.line	303
  2302 00:094D: 82 68 00     	brl	L10017
  2303                        ;
  2304                        ;		case FX_SCROLLBAR_COMMAND:
  2305                        	.line	305
  2306                        L10037:
  2307                        ;			k_debug_string("vscrollbarWindow
                    Proc::FX_CONTROL_COMMAND\r\n");
  2308                        	.line	306
  2309 00:0950: F4 xx xx     	pea	#^L15+554
  2310 00:0953: F4 xx xx     	pea	#<L15+554
  2311 00:0956: 22 xx xx xx  	jsl	~~k_debug_string
  2312                        ;
  2313                        ;			processSBCommand(pWin,((PFXCMDME
                    SSAGE)pMsg)->cmdCId,((PFXCMDMESSAGE)pMsg)->cmdMId,((PFXCMDME
                    SSAGE)pMsg)->parameter1);
  2314                        	.line	308
  2315 00:095A: A0 1C 00     	ldy	#$1c
  2316 00:095D: B7 3E        	lda	[<L16+pMsg_0],Y
  2317 00:095F: 48           	pha
  2318 00:0960: A0 1A 00     	ldy	#$1a
  2319 00:0963: B7 3E        	lda	[<L16+pMsg_0],Y
  2320 00:0965: 48           	pha
  2321 00:0966: A0 18 00     	ldy	#$18
  2322 00:0969: B7 3E        	lda	[<L16+pMsg_0],Y
  2323 00:096B: 48           	pha
  2324 00:096C: A0 16 00     	ldy	#$16
  2325 00:096F: B7 3E        	lda	[<L16+pMsg_0],Y
  Thu Dec  3 2020 22:25                                                Page 46


  2326 00:0971: 48           	pha
  2327 00:0972: D4 1B        	pei	<L17+pWin_1+2
  2328 00:0974: D4 19        	pei	<L17+pWin_1
  2329 00:0976: 22 xx xx xx  	jsl	~~processSBCommand
  2330                        ;
  2331                        ;			break;
  2332                        	.line	310
  2333 00:097A: 82 3B 00     	brl	L10017
  2334                        ;		default:
  2335                        	.line	311
  2336                        L10038:
  2337                        ;			DefWindowProc(pMsg);
  2338                        	.line	312
  2339 00:097D: D4 40        	pei	<L16+pMsg_0+2
  2340 00:097F: D4 3E        	pei	<L16+pMsg_0
  2341 00:0981: 22 xx xx xx  	jsl	~~DefWindowProc
  2342                        ;			break;
  2343                        	.line	313
  2344 00:0985: 82 30 00     	brl	L10017
  2345                        ;		}
  2346                        	.line	314
  2347                        L10016:
  2348                        	xref	~~~swt
  2349 00:0988: 22 xx xx xx  	jsl	~~~swt
  2350 00:098C: 0A 00        	dw	10
  2351 00:098E: 01 0F        	dw	3841
  2352 00:0990: xx xx        	dw	L10033-1
  2353 00:0992: 02 0F        	dw	3842
  2354 00:0994: xx xx        	dw	L10034-1
  2355 00:0996: 03 0F        	dw	3843
  2356 00:0998: xx xx        	dw	L10035-1
  2357 00:099A: 04 0F        	dw	3844
  2358 00:099C: xx xx        	dw	L10024-1
  2359 00:099E: 06 0F        	dw	3846
  2360 00:09A0: xx xx        	dw	L10032-1
  2361 00:09A2: 00 FA        	dw	64000
  2362 00:09A4: xx xx        	dw	L10036-1
  2363 00:09A6: 02 FA        	dw	64002
  2364 00:09A8: xx xx        	dw	L10037-1
  2365 00:09AA: 00 FB        	dw	64256
  2366 00:09AC: xx xx        	dw	L10021-1
  2367 00:09AE: 07 FB        	dw	64263
  2368 00:09B0: xx xx        	dw	L10023-1
  2369 00:09B2: 03 FF        	dw	65283
  2370 00:09B4: xx xx        	dw	L10018-1
  2371 00:09B6: xx xx        	dw	L10038-1
  2372                        L10017:
  2373                        ;	}
  2374                        	.line	315
  2375                        ;
  2376                        ;	return TRUE;
  2377                        L10015:
  2378                        	.line	317
  2379 00:09B8: A9 01 00     	lda	#$1
  2380                        L33:
  2381 00:09BB: A8           	tay
  2382 00:09BC: A5 3C        	lda	<L16+2
  2383 00:09BE: 85 40        	sta	<L16+2+4
  Thu Dec  3 2020 22:25                                                Page 47


  2384 00:09C0: A5 3B        	lda	<L16+1
  2385 00:09C2: 85 3F        	sta	<L16+1+4
  2386 00:09C4: 2B           	pld
  2387 00:09C5: 3B           	tsc
  2388 00:09C6: 18           	clc
  2389 00:09C7: 69 3E 00     	adc	#L16+4
  2390 00:09CA: 1B           	tcs
  2391 00:09CB: 98           	tya
  2392 00:09CC: 6B           	rtl
  2393                        ;}
  2394                        	.line	318
  2395                        	.endblock	318
  2396             0000003A   L16	equ	58
  2397             00000011   L17	equ	17
  2398                        	ends
  2399                        	efunc
  2400                        	.endfunc	318,17,58
  2401                        	.line	318
  2402                        	data
  2403                        L15:
  2404 00:00D7: 46 58 4F 53  	db	$46,$58,$4F,$53,$38,$78,$38,$00,$76,$73,
                    $63,$72,$6F,$6C,$6C
       00:00DB: 38 78 38 00 
       00:00DF: 76 73 63 72 
       00:00E3: 6F 6C 6C 
  2405 00:00E6: 62 61 72 57  	db	$62,$61,$72,$57,$69,$6E,$64,$6F,$77,$50,
                    $72,$6F,$63,$3A,$3A
       00:00EA: 69 6E 64 6F 
       00:00EE: 77 50 72 6F 
       00:00F2: 63 3A 3A 
  2406 00:00F5: 73 74 6F 70  	db	$73,$74,$6F,$70,$73,$69,$7A,$65,$3A,$00,
                    $76,$73,$63,$72,$6F
       00:00F9: 73 69 7A 65 
       00:00FD: 3A 00 76 73 
       00:0101: 63 72 6F 
  2407 00:0104: 6C 6C 62 61  	db	$6C,$6C,$62,$61,$72,$57,$69,$6E,$64,$6F,
                    $77,$50,$72,$6F,$63
       00:0108: 72 57 69 6E 
       00:010C: 64 6F 77 50 
       00:0110: 72 6F 63 
  2408 00:0113: 3A 3A 46 58  	db	$3A,$3A,$46,$58,$5F,$44,$52,$41,$57,$5F,
                    $57,$49,$4E,$44,$4F
       00:0117: 5F 44 52 41 
       00:011B: 57 5F 57 49 
       00:011F: 4E 44 4F 
  2409 00:0122: 57 3A 00 AF  	db	$57,$3A,$00,$FFFFFFAF,$00,$FFFFFF9D,$00,
                    $FFFFFFAF,$00,$FFFFFF9E,$00,$FFFFFFBD,$00,$76,$73
       00:0126: 00 9D 00 AF 
       00:012A: 00 9E 00 BD 
       00:012E: 00 76 73 
  2410 00:0131: 63 72 6F 6C  	db	$63,$72,$6F,$6C,$6C,$62,$61,$72,$57,$69,
                    $6E,$64,$6F,$77,$50
       00:0135: 6C 62 61 72 
       00:0139: 57 69 6E 64 
       00:013D: 6F 77 50 
  2411 00:0140: 72 6F 63 3A  	db	$72,$6F,$63,$3A,$3A,$46,$58,$5F,$52,$45,
                    $44,$52,$41,$57,$5F
       00:0144: 3A 46 58 5F 
  Thu Dec  3 2020 22:25                                                Page 48


       00:0148: 52 45 44 52 
       00:014C: 41 57 5F 
  2412 00:014F: 57 49 4E 44  	db	$57,$49,$4E,$44,$4F,$57,$0D,$0A,$00,$76,
                    $73,$63,$72,$6F,$6C
       00:0153: 4F 57 0D 0A 
       00:0157: 00 76 73 63 
       00:015B: 72 6F 6C 
  2413 00:015E: 6C 62 61 72  	db	$6C,$62,$61,$72,$57,$69,$6E,$64,$6F,$77,
                    $50,$72,$6F,$63,$3A
       00:0162: 57 69 6E 64 
       00:0166: 6F 77 50 72 
       00:016A: 6F 63 3A 
  2414 00:016D: 3A 46 58 5F  	db	$3A,$46,$58,$5F,$4C,$42,$55,$54,$54,$4F,
                    $4E,$5F,$44,$4F,$57
       00:0171: 4C 42 55 54 
       00:0175: 54 4F 4E 5F 
       00:0179: 44 4F 57 
  2415 00:017C: 4E 0D 0A 00  	db	$4E,$0D,$0A,$00,$76,$73,$63,$72,$6F,$6C,
                    $6C,$62,$61,$72,$57
       00:0180: 76 73 63 72 
       00:0184: 6F 6C 6C 62 
       00:0188: 61 72 57 
  2416 00:018B: 69 6E 64 6F  	db	$69,$6E,$64,$6F,$77,$50,$72,$6F,$63,$3A,
                    $3A,$4C,$45,$46,$54
       00:018F: 77 50 72 6F 
       00:0193: 63 3A 3A 4C 
       00:0197: 45 46 54 
  2417 00:019A: 20 41 52 52  	db	$20,$41,$52,$52,$4F,$57,$3A,$00,$FFFFFFA
                    F,$00,$FFFFFFB2,$00,$76,$73,$63
       00:019E: 4F 57 3A 00 
       00:01A2: AF 00 B2 00 
       00:01A6: 76 73 63 
  2418 00:01A9: 72 6F 6C 6C  	db	$72,$6F,$6C,$6C,$62,$61,$72,$57,$69,$6E,
                    $64,$6F,$77,$50,$72
       00:01AD: 62 61 72 57 
       00:01B1: 69 6E 64 6F 
       00:01B5: 77 50 72 
  2419 00:01B8: 6F 63 3A 3A  	db	$6F,$63,$3A,$3A,$52,$49,$47,$48,$54,$20,
                    $41,$52,$52,$4F,$57
       00:01BC: 52 49 47 48 
       00:01C0: 54 20 41 52 
       00:01C4: 52 4F 57 
  2420 00:01C7: 3A 00 AF 00  	db	$3A,$00,$FFFFFFAF,$00,$FFFFFFB3,$00,$FFF
                    FFFAF,$00,$76,$73,$63,$72,$6F,$6C,$6C
       00:01CB: B3 00 AF 00 
       00:01CF: 76 73 63 72 
       00:01D3: 6F 6C 6C 
  2421 00:01D6: 62 61 72 57  	db	$62,$61,$72,$57,$69,$6E,$64,$6F,$77,$50,
                    $72,$6F,$63,$3A,$3A
       00:01DA: 69 6E 64 6F 
       00:01DE: 77 50 72 6F 
       00:01E2: 63 3A 3A 
  2422 00:01E5: 70 57 69 6E  	db	$70,$57,$69,$6E,$2D,$3E,$77,$69,$6E,$5F,
                    $68,$65,$69,$67,$68
       00:01E9: 2D 3E 77 69 
       00:01ED: 6E 5F 68 65 
       00:01F1: 69 67 68 
  2423 00:01F4: 74 3A 00 76  	db	$74,$3A,$00,$76,$73,$63,$72,$6F,$6C,$6C,
  Thu Dec  3 2020 22:25                                                Page 49


                    $62,$61,$72,$57,$69
       00:01F8: 73 63 72 6F 
       00:01FC: 6C 6C 62 61 
       00:0200: 72 57 69 
  2424 00:0203: 6E 64 6F 77  	db	$6E,$64,$6F,$77,$50,$72,$6F,$63,$3A,$3A,
                    $73,$63,$72,$6F,$6C
       00:0207: 50 72 6F 63 
       00:020B: 3A 3A 73 63 
       00:020F: 72 6F 6C 
  2425 00:0212: 6C 62 61 72  	db	$6C,$62,$61,$72,$2D,$3E,$72,$65,$63,$74,
                    $54,$68,$75,$6D,$62
       00:0216: 2D 3E 72 65 
       00:021A: 63 74 54 68 
       00:021E: 75 6D 62 
  2426 00:0221: 2E 78 3A 00  	db	$2E,$78,$3A,$00,$76,$73,$63,$72,$6F,$6C,
                    $6C,$62,$61,$72,$57
       00:0225: 76 73 63 72 
       00:0229: 6F 6C 6C 62 
       00:022D: 61 72 57 
  2427 00:0230: 69 6E 64 6F  	db	$69,$6E,$64,$6F,$77,$50,$72,$6F,$63,$3A,
                    $3A,$6C,$6F,$63,$61
       00:0234: 77 50 72 6F 
       00:0238: 63 3A 3A 6C 
       00:023C: 6F 63 61 
  2428 00:023F: 74 69 6F 6E  	db	$74,$69,$6F,$6E,$3A,$00,$76,$73,$63,$72,
                    $6F,$6C,$6C,$62,$61
       00:0243: 3A 00 76 73 
       00:0247: 63 72 6F 6C 
       00:024B: 6C 62 61 
  2429 00:024E: 72 57 69 6E  	db	$72,$57,$69,$6E,$64,$6F,$77,$50,$72,$6F,
                    $63,$3A,$3A,$69,$6E
       00:0252: 64 6F 77 50 
       00:0256: 72 6F 63 3A 
       00:025A: 3A 69 6E 
  2430 00:025D: 63 72 65 6D  	db	$63,$72,$65,$6D,$65,$6E,$74,$3A,$00,$76,
                    $73,$63,$72,$6F,$6C
       00:0261: 65 6E 74 3A 
       00:0265: 00 76 73 63 
       00:0269: 72 6F 6C 
  2431 00:026C: 6C 62 61 72  	db	$6C,$62,$61,$72,$57,$69,$6E,$64,$6F,$77,
                    $50,$72,$6F,$63,$3A
       00:0270: 57 69 6E 64 
       00:0274: 6F 77 50 72 
       00:0278: 6F 63 3A 
  2432 00:027B: 3A 6F 66 66  	db	$3A,$6F,$66,$66,$73,$65,$74,$3A,$00,$FFF
                    FFFBD,$00,$76,$73,$63,$72
       00:027F: 73 65 74 3A 
       00:0283: 00 BD 00 76 
       00:0287: 73 63 72 
  2433 00:028A: 6F 6C 6C 62  	db	$6F,$6C,$6C,$62,$61,$72,$57,$69,$6E,$64,
                    $6F,$77,$50,$72,$6F
       00:028E: 61 72 57 69 
       00:0292: 6E 64 6F 77 
       00:0296: 50 72 6F 
  2434 00:0299: 63 3A 3A 46  	db	$63,$3A,$3A,$46,$58,$5F,$4C,$42,$55,$54,
                    $54,$4F,$4E,$5F,$55
       00:029D: 58 5F 4C 42 
       00:02A1: 55 54 54 4F 
  Thu Dec  3 2020 22:25                                                Page 50


       00:02A5: 4E 5F 55 
  2435 00:02A8: 50 0D 0A 00  	db	$50,$0D,$0A,$00,$FFFFFFAF,$00,$FFFFFF9D,
                    $00,$FFFFFFAF,$00,$FFFFFF9E,$00,$76,$73,$63
       00:02AC: AF 00 9D 00 
       00:02B0: AF 00 9E 00 
       00:02B4: 76 73 63 
  2436 00:02B7: 72 6F 6C 6C  	db	$72,$6F,$6C,$6C,$62,$61,$72,$57,$69,$6E,
                    $64,$6F,$77,$50,$72
       00:02BB: 62 61 72 57 
       00:02BF: 69 6E 64 6F 
       00:02C3: 77 50 72 
  2437 00:02C6: 6F 63 3A 3A  	db	$6F,$63,$3A,$3A,$46,$58,$5F,$4D,$4F,$55,
                    $53,$45,$5F,$45,$4E
       00:02CA: 46 58 5F 4D 
       00:02CE: 4F 55 53 45 
       00:02D2: 5F 45 4E 
  2438 00:02D5: 54 45 52 0D  	db	$54,$45,$52,$0D,$0A,$00,$76,$73,$63,$72,
                    $6F,$6C,$6C,$62,$61
       00:02D9: 0A 00 76 73 
       00:02DD: 63 72 6F 6C 
       00:02E1: 6C 62 61 
  2439 00:02E4: 72 57 69 6E  	db	$72,$57,$69,$6E,$64,$6F,$77,$50,$72,$6F,
                    $63,$3A,$3A,$46,$58
       00:02E8: 64 6F 77 50 
       00:02EC: 72 6F 63 3A 
       00:02F0: 3A 46 58 
  2440 00:02F3: 5F 4D 4F 55  	db	$5F,$4D,$4F,$55,$53,$45,$5F,$45,$58,$49,
                    $54,$0D,$0A,$00,$76
       00:02F7: 53 45 5F 45 
       00:02FB: 58 49 54 0D 
       00:02FF: 0A 00 76 
  2441 00:0302: 73 63 72 6F  	db	$73,$63,$72,$6F,$6C,$6C,$62,$61,$72,$57,
                    $69,$6E,$64,$6F,$77
       00:0306: 6C 6C 62 61 
       00:030A: 72 57 69 6E 
       00:030E: 64 6F 77 
  2442 00:0311: 50 72 6F 63  	db	$50,$72,$6F,$63,$3A,$3A,$46,$58,$5F,$43,
                    $4F,$4E,$54,$52,$4F
       00:0315: 3A 3A 46 58 
       00:0319: 5F 43 4F 4E 
       00:031D: 54 52 4F 
  2443 00:0320: 4C 5F 43 4F  	db	$4C,$5F,$43,$4F,$4D,$4D,$41,$4E,$44,$0D,
                    $0A,$00
       00:0324: 4D 4D 41 4E 
       00:0328: 44 0D 0A 00 
  2444 00:032C:              	ends
  2445                        ;
  2446                        ;PWINDOW	k_user_CreateHorizontalScrollbar(HWND hW
                    ndParent,LPCSTR caption,UINT buttonId)
  2447                        ;{
  2448                        	.line	320
  2449                        	.line	321
  2450                        	code
  2451                        	xdef	~~k_user_CreateHorizontalScrollbar
  2452                        	func
  2453                        	.function	321
  2454                        ~~k_user_CreateHorizontalScrollbar:
  2455                        	longa	on
  Thu Dec  3 2020 22:25                                                Page 51


  2456                        	longi	on
  2457 00:09CD: 3B           	tsc
  2458 00:09CE: 38           	sec
  2459 00:09CF: E9 14 00     	sbc	#L35
  2460 00:09D2: 1B           	tcs
  2461 00:09D3: 0B           	phd
  2462 00:09D4: 5B           	tcd
  2463             00000004   hWndParent_0	set	4
  2464             00000008   caption_0	set	8
  2465             0000000C   buttonId_0	set	12
  2466                        	.block	321
  2467                        ;	PWINDOW pWin = NULL;
  2468                        ;	PWINDOW pParent = NULL;
  2469                        ;
  2470                        ;	int x;
  2471                        ;	int y;
  2472                        ;	int width;
  2473                        ;	int height;
  2474                        ;
  2475                        ;	pParent = k_getWindowFromHandle(hWndParent);
  2476             00000000   pWin_1	set	0
  2477             00000004   pParent_1	set	4
  2478             00000008   x_1	set	8
  2479             0000000A   y_1	set	10
  2480             0000000C   width_1	set	12
  2481             0000000E   height_1	set	14
  2482                        	.sym	pWin,0,138,1,32,27
  2483                        	.sym	pParent,4,138,1,32,27
  2484                        	.sym	x,8,5,1,16
  2485                        	.sym	y,10,5,1,16
  2486                        	.sym	width,12,5,1,16
  2487                        	.sym	height,14,5,1,16
  2488                        	.sym	hWndParent,4,129,6,32
  2489                        	.sym	caption,8,142,6,32
  2490                        	.sym	buttonId,12,16,6,16
  2491 00:09D5: 64 05        	stz	<L36+pWin_1
  2492 00:09D7: 64 07        	stz	<L36+pWin_1+2
  2493 00:09D9: 64 09        	stz	<L36+pParent_1
  2494 00:09DB: 64 0B        	stz	<L36+pParent_1+2
  2495                        	.line	330
  2496 00:09DD: D4 1A        	pei	<L35+hWndParent_0+2
  2497 00:09DF: D4 18        	pei	<L35+hWndParent_0
  2498 00:09E1: 22 xx xx xx  	jsl	~~k_getWindowFromHandle
  2499 00:09E5: 85 09        	sta	<L36+pParent_1
  2500 00:09E7: 86 0B        	stx	<L36+pParent_1+2
  2501                        ;
  2502                        ;
  2503                        ;	x = 0;
  2504                        	.line	333
  2505 00:09E9: 64 0D        	stz	<L36+x_1
  2506                        ;	width = pParent->win_width;
  2507                        	.line	334
  2508 00:09EB: A0 0C 00     	ldy	#$c
  2509 00:09EE: B7 09        	lda	[<L36+pParent_1],Y
  2510 00:09F0: 85 11        	sta	<L36+width_1
  2511                        ;
  2512                        ;
  2513                        ;	height = k_user_getSystemMetric(SM_CYHSCROLL);
  Thu Dec  3 2020 22:25                                                Page 52


  2514                        	.line	337
  2515 00:09F2: F4 03 00     	pea	#<$3
  2516 00:09F5: 22 xx xx xx  	jsl	~~k_user_getSystemMetric
  2517 00:09F9: 85 13        	sta	<L36+height_1
  2518                        ;	y = pParent->win_height - height;
  2519                        	.line	338
  2520 00:09FB: 38           	sec
  2521 00:09FC: A0 0E 00     	ldy	#$e
  2522 00:09FF: B7 09        	lda	[<L36+pParent_1],Y
  2523 00:0A01: E5 13        	sbc	<L36+height_1
  2524 00:0A03: 85 0F        	sta	<L36+y_1
  2525                        ;
  2526                        ;
  2527                        ;
  2528                        ;
  2529                        ;	k_debug_integer("k_user_CreateHorizontalScrollba
                    r:cx:",x);
  2530                        	.line	343
  2531 00:0A05: D4 0D        	pei	<L36+x_1
  2532 00:0A07: F4 xx xx     	pea	#^L34
  2533 00:0A0A: F4 xx xx     	pea	#<L34
  2534 00:0A0D: 22 xx xx xx  	jsl	~~k_debug_integer
  2535                        ;	k_debug_integer("k_user_CreateHorizontalScrollba
                    r:cy:",y);
  2536                        	.line	344
  2537 00:0A11: D4 0F        	pei	<L36+y_1
  2538 00:0A13: F4 xx xx     	pea	#^L34+37
  2539 00:0A16: F4 xx xx     	pea	#<L34+37
  2540 00:0A19: 22 xx xx xx  	jsl	~~k_debug_integer
  2541                        ;	k_debug_integer("k_user_CreateHorizontalScrollba
                    r:width:",width);
  2542                        	.line	345
  2543 00:0A1D: D4 11        	pei	<L36+width_1
  2544 00:0A1F: F4 xx xx     	pea	#^L34+74
  2545 00:0A22: F4 xx xx     	pea	#<L34+74
  2546 00:0A25: 22 xx xx xx  	jsl	~~k_debug_integer
  2547                        ;	k_debug_integer("k_user_CreateHorizontalScrollba
                    r:height:",height);
  2548                        	.line	346
  2549 00:0A29: D4 13        	pei	<L36+height_1
  2550 00:0A2B: F4 xx xx     	pea	#^L34+114
  2551 00:0A2E: F4 xx xx     	pea	#<L34+114
  2552 00:0A31: 22 xx xx xx  	jsl	~~k_debug_integer
  2553                        ;
  2554                        ;	pWin = k_user_CreateWindow(FXWS_VISIBLE,
  2555                        	.line	348
  2556                        ;							
                       "hscrollWindowClass",
  2557                        ;							
                    	caption,
  2558                        ;							
                    	x,y,
  2559                        ;							
                    	width,height,
  2560                        ;							
                    	hWndParent,
  2561                        ;							
                    	(HMENU)buttonId,
  Thu Dec  3 2020 22:25                                                Page 53


  2562                        ;							
                    	NULL);
  2563 00:0A35: F4 00 00     	pea	#^$0
  2564 00:0A38: F4 00 00     	pea	#<$0
  2565 00:0A3B: A0 00 00     	ldy	#$0
  2566 00:0A3E: A5 20        	lda	<L35+buttonId_0
  2567 00:0A40: 10 01        	bpl	L38
  2568 00:0A42: 88           	dey
  2569                        L38:
  2570 00:0A43: 85 01        	sta	<R0
  2571 00:0A45: 84 03        	sty	<R0+2
  2572 00:0A47: D4 03        	pei	<R0+2
  2573 00:0A49: D4 01        	pei	<R0
  2574 00:0A4B: D4 1A        	pei	<L35+hWndParent_0+2
  2575 00:0A4D: D4 18        	pei	<L35+hWndParent_0
  2576 00:0A4F: D4 13        	pei	<L36+height_1
  2577 00:0A51: D4 11        	pei	<L36+width_1
  2578 00:0A53: D4 0F        	pei	<L36+y_1
  2579 00:0A55: D4 0D        	pei	<L36+x_1
  2580 00:0A57: D4 1E        	pei	<L35+caption_0+2
  2581 00:0A59: D4 1C        	pei	<L35+caption_0
  2582 00:0A5B: F4 xx xx     	pea	#^L34+155
  2583 00:0A5E: F4 xx xx     	pea	#<L34+155
  2584 00:0A61: F4 00 00     	pea	#^$1
  2585 00:0A64: F4 01 00     	pea	#<$1
  2586 00:0A67: 22 xx xx xx  	jsl	~~k_user_CreateWindow
  2587 00:0A6B: 85 05        	sta	<L36+pWin_1
  2588 00:0A6D: 86 07        	stx	<L36+pWin_1+2
  2589                        ;
  2590                        ;	if(pWin)
  2591                        	.line	357
  2592                        ;	{
  2593 00:0A6F: A5 05        	lda	<L36+pWin_1
  2594 00:0A71: 05 07        	ora	<L36+pWin_1+2
  2595 00:0A73: D0 03        	bne	L39
  2596 00:0A75: 82 1E 00     	brl	L10039
  2597                        L39:
  2598                        	.line	358
  2599                        ;		//k_add_child_window(k_getWindowFromHand
                    le(hWndParent),pWin,k_update_hover_location);//k_buttonHitDe
                    tected);
  2600                        ;
  2601                        ;		//k_debug_strings("k_user_CreateButton:"
                    ,"k_send_window_message");
  2602                        ;		k_send_window_message(k_getHandleFromWin
                    dow(pWin),FX_CREATE_WINDOW,NULL,0);
  2603                        	.line	362
  2604 00:0A78: F4 00 00     	pea	#<$0
  2605 00:0A7B: F4 00 00     	pea	#^$0
  2606 00:0A7E: F4 00 00     	pea	#<$0
  2607 00:0A81: F4 03 FF     	pea	#<$ff03
  2608 00:0A84: D4 07        	pei	<L36+pWin_1+2
  2609 00:0A86: D4 05        	pei	<L36+pWin_1
  2610 00:0A88: 22 xx xx xx  	jsl	~~k_getHandleFromWindow
  2611 00:0A8C: 85 01        	sta	<R0
  2612 00:0A8E: 86 03        	stx	<R0+2
  2613 00:0A90: DA           	phx
  2614 00:0A91: 48           	pha
  Thu Dec  3 2020 22:25                                                Page 54


  2615 00:0A92: 22 xx xx xx  	jsl	~~k_send_window_message
  2616                        ;		//k_debug_strings("k_user_CreateButton:"
                    ,"k_send_command_message");
  2617                        ;		//k_send_command_message(k_getHandleFrom
                    Window(pWin),FX_CONTROL_COMMAND,CTL_CMD_CAPTION,0,(ULONG)k_s
                    tring_copy_string(caption),0L);
  2618                        ;
  2619                        ;	}
  2620                        	.line	366
  2621                        ;
  2622                        ;	//k_debug_strings("k_user_CreateButton:","Exit")
                    ;
  2623                        ;
  2624                        ;	return pWin;
  2625                        L10039:
  2626                        	.line	370
  2627 00:0A96: A6 07        	ldx	<L36+pWin_1+2
  2628 00:0A98: A5 05        	lda	<L36+pWin_1
  2629                        L40:
  2630 00:0A9A: A8           	tay
  2631 00:0A9B: A5 16        	lda	<L35+2
  2632 00:0A9D: 85 20        	sta	<L35+2+10
  2633 00:0A9F: A5 15        	lda	<L35+1
  2634 00:0AA1: 85 1F        	sta	<L35+1+10
  2635 00:0AA3: 2B           	pld
  2636 00:0AA4: 3B           	tsc
  2637 00:0AA5: 18           	clc
  2638 00:0AA6: 69 1E 00     	adc	#L35+10
  2639 00:0AA9: 1B           	tcs
  2640 00:0AAA: 98           	tya
  2641 00:0AAB: 6B           	rtl
  2642                        ;}
  2643                        	.line	371
  2644                        	.endblock	371
  2645             00000014   L35	equ	20
  2646             00000005   L36	equ	5
  2647                        	ends
  2648                        	efunc
  2649                        	.endfunc	371,5,20
  2650                        	.line	371
  2651                        	data
  2652                        L34:
  2653 00:032C: 6B 5F 75 73  	db	$6B,$5F,$75,$73,$65,$72,$5F,$43,$72,$65,
                    $61,$74,$65,$48,$6F
       00:0330: 65 72 5F 43 
       00:0334: 72 65 61 74 
       00:0338: 65 48 6F 
  2654 00:033B: 72 69 7A 6F  	db	$72,$69,$7A,$6F,$6E,$74,$61,$6C,$53,$63,
                    $72,$6F,$6C,$6C,$62
       00:033F: 6E 74 61 6C 
       00:0343: 53 63 72 6F 
       00:0347: 6C 6C 62 
  2655 00:034A: 61 72 3A 63  	db	$61,$72,$3A,$63,$78,$3A,$00,$6B,$5F,$75,
                    $73,$65,$72,$5F,$43
       00:034E: 78 3A 00 6B 
       00:0352: 5F 75 73 65 
       00:0356: 72 5F 43 
  2656 00:0359: 72 65 61 74  	db	$72,$65,$61,$74,$65,$48,$6F,$72,$69,$7A,
  Thu Dec  3 2020 22:25                                                Page 55


                    $6F,$6E,$74,$61,$6C
       00:035D: 65 48 6F 72 
       00:0361: 69 7A 6F 6E 
       00:0365: 74 61 6C 
  2657 00:0368: 53 63 72 6F  	db	$53,$63,$72,$6F,$6C,$6C,$62,$61,$72,$3A,
                    $63,$79,$3A,$00,$6B
       00:036C: 6C 6C 62 61 
       00:0370: 72 3A 63 79 
       00:0374: 3A 00 6B 
  2658 00:0377: 5F 75 73 65  	db	$5F,$75,$73,$65,$72,$5F,$43,$72,$65,$61,
                    $74,$65,$48,$6F,$72
       00:037B: 72 5F 43 72 
       00:037F: 65 61 74 65 
       00:0383: 48 6F 72 
  2659 00:0386: 69 7A 6F 6E  	db	$69,$7A,$6F,$6E,$74,$61,$6C,$53,$63,$72,
                    $6F,$6C,$6C,$62,$61
       00:038A: 74 61 6C 53 
       00:038E: 63 72 6F 6C 
       00:0392: 6C 62 61 
  2660 00:0395: 72 3A 77 69  	db	$72,$3A,$77,$69,$64,$74,$68,$3A,$00,$6B,
                    $5F,$75,$73,$65,$72
       00:0399: 64 74 68 3A 
       00:039D: 00 6B 5F 75 
       00:03A1: 73 65 72 
  2661 00:03A4: 5F 43 72 65  	db	$5F,$43,$72,$65,$61,$74,$65,$48,$6F,$72,
                    $69,$7A,$6F,$6E,$74
       00:03A8: 61 74 65 48 
       00:03AC: 6F 72 69 7A 
       00:03B0: 6F 6E 74 
  2662 00:03B3: 61 6C 53 63  	db	$61,$6C,$53,$63,$72,$6F,$6C,$6C,$62,$61,
                    $72,$3A,$68,$65,$69
       00:03B7: 72 6F 6C 6C 
       00:03BB: 62 61 72 3A 
       00:03BF: 68 65 69 
  2663 00:03C2: 67 68 74 3A  	db	$67,$68,$74,$3A,$00,$68,$73,$63,$72,$6F,
                    $6C,$6C,$57,$69,$6E
       00:03C6: 00 68 73 63 
       00:03CA: 72 6F 6C 6C 
       00:03CE: 57 69 6E 
  2664 00:03D1: 64 6F 77 43  	db	$64,$6F,$77,$43,$6C,$61,$73,$73,$00
       00:03D5: 6C 61 73 73 
       00:03D9: 00 
  2665 00:03DA:              	ends
  2666                        ;
  2667                        ;BOOL hscrollbarWindowProc(PFXOSMESSAGE pMsg)
  2668                        ;{
  2669                        	.line	373
  2670                        	.line	374
  2671                        	code
  2672                        	xdef	~~hscrollbarWindowProc
  2673                        	func
  2674                        	.function	374
  2675                        ~~hscrollbarWindowProc:
  2676                        	longa	on
  2677                        	longi	on
  2678 00:0AAC: 3B           	tsc
  2679 00:0AAD: 38           	sec
  2680 00:0AAE: E9 2A 00     	sbc	#L42
  Thu Dec  3 2020 22:25                                                Page 56


  2681 00:0AB1: 1B           	tcs
  2682 00:0AB2: 0B           	phd
  2683 00:0AB3: 5B           	tcd
  2684             00000004   pMsg_0	set	4
  2685                        	.block	374
  2686                        ;	PFXPROCESS p = NULL;
  2687                        ;	PWINDOW	   pWin = NULL;
  2688                        ;	PSCROLLBAR	   scrollbar = NULL;
  2689                        ;	UINT	   size = 0;
  2690                        ;	RECT rect;
  2691                        ;	INT cx,cy;
  2692                        ;
  2693                        ;	if(pMsg!=NULL)
  2694             00000000   p_1	set	0
  2695             00000004   pWin_1	set	4
  2696             00000008   scrollbar_1	set	8
  2697             0000000C   size_1	set	12
  2698             0000000E   rect_1	set	14
  2699             00000016   cx_1	set	22
  2700             00000018   cy_1	set	24
  2701                        	.sym	p,0,138,1,32,17
  2702                        	.sym	pWin,4,138,1,32,27
  2703                        	.sym	scrollbar,8,138,1,32,35
  2704                        	.sym	size,12,16,1,16
  2705                        	.sym	rect,14,10,1,64,22
  2706                        	.sym	cx,22,5,1,16
  2707                        	.sym	cy,24,5,1,16
  2708                        	.sym	pMsg,4,138,6,32,13
  2709 00:0AB4: 64 11        	stz	<L43+p_1
  2710 00:0AB6: 64 13        	stz	<L43+p_1+2
  2711 00:0AB8: 64 15        	stz	<L43+pWin_1
  2712 00:0ABA: 64 17        	stz	<L43+pWin_1+2
  2713 00:0ABC: 64 19        	stz	<L43+scrollbar_1
  2714 00:0ABE: 64 1B        	stz	<L43+scrollbar_1+2
  2715 00:0AC0: 64 1D        	stz	<L43+size_1
  2716                        	.line	382
  2717                        ;	{
  2718 00:0AC2: A5 2E        	lda	<L42+pMsg_0
  2719 00:0AC4: 05 30        	ora	<L42+pMsg_0+2
  2720 00:0AC6: D0 03        	bne	L45
  2721 00:0AC8: 82 29 09     	brl	L10040
  2722                        L45:
  2723                        	.line	383
  2724                        ;		p = k_exec_get_current_process();
  2725                        	.line	384
  2726 00:0ACB: 22 xx xx xx  	jsl	~~k_exec_get_current_process
  2727 00:0ACF: 85 11        	sta	<L43+p_1
  2728 00:0AD1: 86 13        	stx	<L43+p_1+2
  2729                        ;		pWin = k_getWindowFromHandle(pMsg->hwnd)
                    ;
  2730                        	.line	385
  2731 00:0AD3: A0 0C 00     	ldy	#$c
  2732 00:0AD6: B7 2E        	lda	[<L42+pMsg_0],Y
  2733 00:0AD8: 48           	pha
  2734 00:0AD9: A0 0A 00     	ldy	#$a
  2735 00:0ADC: B7 2E        	lda	[<L42+pMsg_0],Y
  2736 00:0ADE: 48           	pha
  2737 00:0ADF: 22 xx xx xx  	jsl	~~k_getWindowFromHandle
  Thu Dec  3 2020 22:25                                                Page 57


  2738 00:0AE3: 85 15        	sta	<L43+pWin_1
  2739 00:0AE5: 86 17        	stx	<L43+pWin_1+2
  2740                        ;		scrollbar = ((PSCROLLBAR)pWin->windowDat
                    a);
  2741                        	.line	386
  2742 00:0AE7: A0 41 01     	ldy	#$141
  2743 00:0AEA: B7 15        	lda	[<L43+pWin_1],Y
  2744 00:0AEC: 85 19        	sta	<L43+scrollbar_1
  2745 00:0AEE: A0 43 01     	ldy	#$143
  2746 00:0AF1: B7 15        	lda	[<L43+pWin_1],Y
  2747 00:0AF3: 85 1B        	sta	<L43+scrollbar_1+2
  2748                        ;		//k_debug_long("consoleWindowProc::Proce
                    ssId:",p->procId);
  2749                        ;
  2750                        ;		switch(pMsg->type)
  2751                        	.line	389
  2752 00:0AF5: A0 08 00     	ldy	#$8
  2753 00:0AF8: B7 2E        	lda	[<L42+pMsg_0],Y
  2754 00:0AFA: 82 CB 08     	brl	L10041
  2755                        ;		{
  2756                        	.line	390
  2757                        ;		case FX_CREATE_WINDOW:
  2758                        	.line	391
  2759                        L10043:
  2760                        ;			//k_debug_long("buttonWindowProc
                    ::ProcessId:",p->procId);
  2761                        ;			//k_debug_string("buttonWindowPr
                    oc::FX_CREATE_WINDOW\r\n");
  2762                        ;
  2763                        ;			pWin->windowData = k_mem_allocat
                    e_heap(sizeof(SCROLLBAR));
  2764                        	.line	395
  2765 00:0AFD: F4 18 00     	pea	#<$18
  2766 00:0B00: 22 xx xx xx  	jsl	~~k_mem_allocate_heap
  2767 00:0B04: 85 01        	sta	<R0
  2768 00:0B06: 86 03        	stx	<R0+2
  2769 00:0B08: A5 01        	lda	<R0
  2770 00:0B0A: A0 41 01     	ldy	#$141
  2771 00:0B0D: 97 15        	sta	[<L43+pWin_1],Y
  2772 00:0B0F: A5 03        	lda	<R0+2
  2773 00:0B11: A0 43 01     	ldy	#$143
  2774 00:0B14: 97 15        	sta	[<L43+pWin_1],Y
  2775                        ;
  2776                        ;
  2777                        ;			((PSCROLLBAR)pWin->windowData)->
                    max = 100;
  2778                        	.line	398
  2779 00:0B16: A0 41 01     	ldy	#$141
  2780 00:0B19: B7 15        	lda	[<L43+pWin_1],Y
  2781 00:0B1B: 85 01        	sta	<R0
  2782 00:0B1D: A0 43 01     	ldy	#$143
  2783 00:0B20: B7 15        	lda	[<L43+pWin_1],Y
  2784 00:0B22: 85 03        	sta	<R0+2
  2785 00:0B24: A9 64 00     	lda	#$64
  2786 00:0B27: A0 02 00     	ldy	#$2
  2787 00:0B2A: 97 01        	sta	[<R0],Y
  2788                        ;			((PSCROLLBAR)pWin->windowData)->
                    min = 0;
  Thu Dec  3 2020 22:25                                                Page 58


  2789                        	.line	399
  2790 00:0B2C: A0 41 01     	ldy	#$141
  2791 00:0B2F: B7 15        	lda	[<L43+pWin_1],Y
  2792 00:0B31: 85 01        	sta	<R0
  2793 00:0B33: A0 43 01     	ldy	#$143
  2794 00:0B36: B7 15        	lda	[<L43+pWin_1],Y
  2795 00:0B38: 85 03        	sta	<R0+2
  2796 00:0B3A: A9 00 00     	lda	#$0
  2797 00:0B3D: 87 01        	sta	[<R0]
  2798                        ;			((PSCROLLBAR)pWin->windowData)->
                    increment = 10;
  2799                        	.line	400
  2800 00:0B3F: A0 41 01     	ldy	#$141
  2801 00:0B42: B7 15        	lda	[<L43+pWin_1],Y
  2802 00:0B44: 85 01        	sta	<R0
  2803 00:0B46: A0 43 01     	ldy	#$143
  2804 00:0B49: B7 15        	lda	[<L43+pWin_1],Y
  2805 00:0B4B: 85 03        	sta	<R0+2
  2806 00:0B4D: A9 0A 00     	lda	#$a
  2807 00:0B50: A0 04 00     	ldy	#$4
  2808 00:0B53: 97 01        	sta	[<R0],Y
  2809                        ;			((PSCROLLBAR)pWin->windowData)->
                    location = 0;
  2810                        	.line	401
  2811 00:0B55: A0 41 01     	ldy	#$141
  2812 00:0B58: B7 15        	lda	[<L43+pWin_1],Y
  2813 00:0B5A: 85 01        	sta	<R0
  2814 00:0B5C: A0 43 01     	ldy	#$143
  2815 00:0B5F: B7 15        	lda	[<L43+pWin_1],Y
  2816 00:0B61: 85 03        	sta	<R0+2
  2817 00:0B63: A9 00 00     	lda	#$0
  2818 00:0B66: A0 08 00     	ldy	#$8
  2819 00:0B69: 97 01        	sta	[<R0],Y
  2820                        ;
  2821                        ;
  2822                        ;			((PSCROLLBAR)pWin->windowData)->
                    rectThumb.x = 0;
  2823                        	.line	404
  2824 00:0B6B: A0 41 01     	ldy	#$141
  2825 00:0B6E: B7 15        	lda	[<L43+pWin_1],Y
  2826 00:0B70: 85 01        	sta	<R0
  2827 00:0B72: A0 43 01     	ldy	#$143
  2828 00:0B75: B7 15        	lda	[<L43+pWin_1],Y
  2829 00:0B77: 85 03        	sta	<R0+2
  2830 00:0B79: A9 00 00     	lda	#$0
  2831 00:0B7C: A0 0C 00     	ldy	#$c
  2832 00:0B7F: 97 01        	sta	[<R0],Y
  2833                        ;			((PSCROLLBAR)pWin->windowData)->
                    rectThumb.y = 0;
  2834                        	.line	405
  2835 00:0B81: A0 41 01     	ldy	#$141
  2836 00:0B84: B7 15        	lda	[<L43+pWin_1],Y
  2837 00:0B86: 85 01        	sta	<R0
  2838 00:0B88: A0 43 01     	ldy	#$143
  2839 00:0B8B: B7 15        	lda	[<L43+pWin_1],Y
  2840 00:0B8D: 85 03        	sta	<R0+2
  2841 00:0B8F: A9 00 00     	lda	#$0
  2842 00:0B92: A0 0E 00     	ldy	#$e
  Thu Dec  3 2020 22:25                                                Page 59


  2843 00:0B95: 97 01        	sta	[<R0],Y
  2844                        ;			((PSCROLLBAR)pWin->windowData)->
                    rectThumb.width = 0;
  2845                        	.line	406
  2846 00:0B97: A0 41 01     	ldy	#$141
  2847 00:0B9A: B7 15        	lda	[<L43+pWin_1],Y
  2848 00:0B9C: 85 01        	sta	<R0
  2849 00:0B9E: A0 43 01     	ldy	#$143
  2850 00:0BA1: B7 15        	lda	[<L43+pWin_1],Y
  2851 00:0BA3: 85 03        	sta	<R0+2
  2852 00:0BA5: A9 00 00     	lda	#$0
  2853 00:0BA8: A0 10 00     	ldy	#$10
  2854 00:0BAB: 97 01        	sta	[<R0],Y
  2855                        ;			((PSCROLLBAR)pWin->windowData)->
                    rectThumb.height = 0;
  2856                        	.line	407
  2857 00:0BAD: A0 41 01     	ldy	#$141
  2858 00:0BB0: B7 15        	lda	[<L43+pWin_1],Y
  2859 00:0BB2: 85 01        	sta	<R0
  2860 00:0BB4: A0 43 01     	ldy	#$143
  2861 00:0BB7: B7 15        	lda	[<L43+pWin_1],Y
  2862 00:0BB9: 85 03        	sta	<R0+2
  2863 00:0BBB: A9 00 00     	lda	#$0
  2864 00:0BBE: A0 12 00     	ldy	#$12
  2865 00:0BC1: 97 01        	sta	[<R0],Y
  2866                        ;
  2867                        ;
  2868                        ;			((PSCROLLBAR)pWin->windowData)->
                    stopsize = (pWin->win_width - 2*FONTW) / (((PSCROLLBAR)pWin-
                    >windowData)->max / ((PSCROLLBAR)pWin->windowData)->incremen
                    t);
  2869                        	.line	410
  2870 00:0BC3: A0 41 01     	ldy	#$141
  2871 00:0BC6: B7 15        	lda	[<L43+pWin_1],Y
  2872 00:0BC8: 85 01        	sta	<R0
  2873 00:0BCA: A0 43 01     	ldy	#$143
  2874 00:0BCD: B7 15        	lda	[<L43+pWin_1],Y
  2875 00:0BCF: 85 03        	sta	<R0+2
  2876 00:0BD1: A0 41 01     	ldy	#$141
  2877 00:0BD4: B7 15        	lda	[<L43+pWin_1],Y
  2878 00:0BD6: 85 05        	sta	<R1
  2879 00:0BD8: A0 43 01     	ldy	#$143
  2880 00:0BDB: B7 15        	lda	[<L43+pWin_1],Y
  2881 00:0BDD: 85 07        	sta	<R1+2
  2882 00:0BDF: A0 41 01     	ldy	#$141
  2883 00:0BE2: B7 15        	lda	[<L43+pWin_1],Y
  2884 00:0BE4: 85 09        	sta	<R2
  2885 00:0BE6: A0 43 01     	ldy	#$143
  2886 00:0BE9: B7 15        	lda	[<L43+pWin_1],Y
  2887 00:0BEB: 85 0B        	sta	<R2+2
  2888 00:0BED: A0 04 00     	ldy	#$4
  2889 00:0BF0: B7 05        	lda	[<R1],Y
  2890 00:0BF2: AA           	tax
  2891 00:0BF3: A0 02 00     	ldy	#$2
  2892 00:0BF6: B7 09        	lda	[<R2],Y
  2893                        	xref	~~~udv
  2894 00:0BF8: 22 xx xx xx  	jsl	~~~udv
  2895 00:0BFC: 85 05        	sta	<R1
  Thu Dec  3 2020 22:25                                                Page 60


  2896 00:0BFE: 22 xx xx xx  	jsl	~~k_font_getFontWidth
  2897 00:0C02: 85 0D        	sta	<R3
  2898 00:0C04: A5 0D        	lda	<R3
  2899 00:0C06: 0A           	asl	A
  2900 00:0C07: 85 09        	sta	<R2
  2901 00:0C09: 38           	sec
  2902 00:0C0A: A0 0C 00     	ldy	#$c
  2903 00:0C0D: B7 15        	lda	[<L43+pWin_1],Y
  2904 00:0C0F: E5 09        	sbc	<R2
  2905 00:0C11: 85 0D        	sta	<R3
  2906 00:0C13: A5 0D        	lda	<R3
  2907 00:0C15: A6 05        	ldx	<R1
  2908                        	xref	~~~udv
  2909 00:0C17: 22 xx xx xx  	jsl	~~~udv
  2910 00:0C1B: A0 06 00     	ldy	#$6
  2911 00:0C1E: 97 01        	sta	[<R0],Y
  2912                        ;
  2913                        ;			k_debug_integer("hscrollbarWindo
                    wProc::stopsize:",((PSCROLLBAR)pWin->windowData)->stopsize);
  2914                        	.line	412
  2915 00:0C20: A0 41 01     	ldy	#$141
  2916 00:0C23: B7 15        	lda	[<L43+pWin_1],Y
  2917 00:0C25: 85 01        	sta	<R0
  2918 00:0C27: A0 43 01     	ldy	#$143
  2919 00:0C2A: B7 15        	lda	[<L43+pWin_1],Y
  2920 00:0C2C: 85 03        	sta	<R0+2
  2921 00:0C2E: A0 06 00     	ldy	#$6
  2922 00:0C31: B7 01        	lda	[<R0],Y
  2923 00:0C33: 48           	pha
  2924 00:0C34: F4 xx xx     	pea	#^L41
  2925 00:0C37: F4 xx xx     	pea	#<L41
  2926 00:0C3A: 22 xx xx xx  	jsl	~~k_debug_integer
  2927                        ;			/*
  2928                        ;			k_vdraw_ui_window(pWin,
  2929                        ;							
                      pWin->style,
  2930                        ;							
                      pWin->win_x ,pWin->win_y,
  2931                        ;							
                      pWin->win_height,pWin->win_width,
  2932                        ;							
                      pWin->win_title,
  2933                        ;							
                      k_getUIGadgetColor(), k_getUIMenuColor());
  2934                        ;
  2935                        ;			*/
  2936                        ;			break;
  2937                        	.line	422
  2938 00:0C3E: 82 B3 07     	brl	L10042
  2939                        ;		case FX_DRAW_WINDOW:
  2940                        	.line	423
  2941                        L10044:
  2942                        ;			k_debug_pointer("hscrollbarWindo
                    wProc::FX_DRAW_WINDOW:",scrollbar);
  2943                        	.line	424
  2944 00:0C41: D4 1B        	pei	<L43+scrollbar_1+2
  2945 00:0C43: D4 19        	pei	<L43+scrollbar_1
  2946 00:0C45: F4 xx xx     	pea	#^L41+32
  Thu Dec  3 2020 22:25                                                Page 61


  2947 00:0C48: F4 xx xx     	pea	#<L41+32
  2948 00:0C4B: 22 xx xx xx  	jsl	~~k_debug_pointer
  2949                        ;			if(scrollbar)
  2950                        	.line	425
  2951                        ;			{
  2952 00:0C4F: A5 19        	lda	<L43+scrollbar_1
  2953 00:0C51: 05 1B        	ora	<L43+scrollbar_1+2
  2954 00:0C53: D0 03        	bne	L46
  2955 00:0C55: 82 AE 01     	brl	L10045
  2956                        L46:
  2957                        	.line	426
  2958                        ;				k_vdraw_ui_window(pWin,p
                    Win->style,
  2959                        	.line	427
  2960                        ;							
                    	  pWin->win_x ,pWin->win_y,
  2961                        ;							
                    	  pWin->win_height,pWin->win_width,
  2962                        ;							
                    	  pWin->win_title,
  2963                        ;							
                    	  k_getUIGadgetColor(), k_getUIMenuColor());
  2964 00:0C58: 22 xx xx xx  	jsl	~~k_getUIMenuColor
  2965 00:0C5C: 48           	pha
  2966 00:0C5D: 22 xx xx xx  	jsl	~~k_getUIGadgetColor
  2967 00:0C61: 48           	pha
  2968 00:0C62: 18           	clc
  2969 00:0C63: A9 D4 00     	lda	#$d4
  2970 00:0C66: 65 15        	adc	<L43+pWin_1
  2971 00:0C68: 85 01        	sta	<R0
  2972 00:0C6A: A9 00 00     	lda	#$0
  2973 00:0C6D: 65 17        	adc	<L43+pWin_1+2
  2974 00:0C6F: 85 03        	sta	<R0+2
  2975 00:0C71: D4 03        	pei	<R0+2
  2976 00:0C73: D4 01        	pei	<R0
  2977 00:0C75: A0 0C 00     	ldy	#$c
  2978 00:0C78: B7 15        	lda	[<L43+pWin_1],Y
  2979 00:0C7A: 48           	pha
  2980 00:0C7B: A0 0E 00     	ldy	#$e
  2981 00:0C7E: B7 15        	lda	[<L43+pWin_1],Y
  2982 00:0C80: 48           	pha
  2983 00:0C81: A0 0A 00     	ldy	#$a
  2984 00:0C84: B7 15        	lda	[<L43+pWin_1],Y
  2985 00:0C86: 48           	pha
  2986 00:0C87: A0 08 00     	ldy	#$8
  2987 00:0C8A: B7 15        	lda	[<L43+pWin_1],Y
  2988 00:0C8C: 48           	pha
  2989 00:0C8D: A0 04 00     	ldy	#$4
  2990 00:0C90: B7 15        	lda	[<L43+pWin_1],Y
  2991 00:0C92: 48           	pha
  2992 00:0C93: A0 02 00     	ldy	#$2
  2993 00:0C96: B7 15        	lda	[<L43+pWin_1],Y
  2994 00:0C98: 48           	pha
  2995 00:0C99: D4 17        	pei	<L43+pWin_1+2
  2996 00:0C9B: D4 15        	pei	<L43+pWin_1
  2997 00:0C9D: 22 xx xx xx  	jsl	~~k_vdraw_ui_window
  2998                        ;
  2999                        ;
  Thu Dec  3 2020 22:25                                                Page 62


  3000                        ;				rect.x = 0;
  3001                        	.line	434
  3002 00:0CA1: 64 1F        	stz	<L43+rect_1
  3003                        ;				rect.y = 1;
  3004                        	.line	435
  3005 00:0CA3: A9 01 00     	lda	#$1
  3006 00:0CA6: 85 21        	sta	<L43+rect_1+2
  3007                        ;				k_user_DrawWindowTextToP
                    ointWithFont(k_getHandleFromWindow(pWin),"\xAF",k_getUIMenuC
                    olor(),&rect,(LPCSTR)k_user_getFontClass("FXOS8x8"));
  3008                        	.line	436
  3009 00:0CA8: F4 xx xx     	pea	#^L41+72
  3010 00:0CAB: F4 xx xx     	pea	#<L41+72
  3011 00:0CAE: 22 xx xx xx  	jsl	~~k_user_getFontClass
  3012 00:0CB2: 85 01        	sta	<R0
  3013 00:0CB4: 86 03        	stx	<R0+2
  3014 00:0CB6: DA           	phx
  3015 00:0CB7: 48           	pha
  3016 00:0CB8: F4 00 00     	pea	#0
  3017 00:0CBB: 18           	clc
  3018 00:0CBC: 7B           	tdc
  3019 00:0CBD: 69 1F 00     	adc	#<L43+rect_1
  3020 00:0CC0: 48           	pha
  3021 00:0CC1: 22 xx xx xx  	jsl	~~k_getUIMenuColor
  3022 00:0CC5: 48           	pha
  3023 00:0CC6: F4 xx xx     	pea	#^L41+70
  3024 00:0CC9: F4 xx xx     	pea	#<L41+70
  3025 00:0CCC: D4 17        	pei	<L43+pWin_1+2
  3026 00:0CCE: D4 15        	pei	<L43+pWin_1
  3027 00:0CD0: 22 xx xx xx  	jsl	~~k_getHandleFromWindow
  3028 00:0CD4: 85 05        	sta	<R1
  3029 00:0CD6: 86 07        	stx	<R1+2
  3030 00:0CD8: DA           	phx
  3031 00:0CD9: 48           	pha
  3032 00:0CDA: 22 xx xx xx  	jsl	~~k_user_DrawWindowTextToPointWithFont
  3033                        ;				k_user_DrawWindowTextToP
                    ointWithFont(k_getHandleFromWindow(pWin),"\x9B",k_getUIGadge
                    tColor(),&rect,(LPCSTR)k_user_getFontClass("FXOS8x8"));
  3034                        	.line	437
  3035 00:0CDE: F4 xx xx     	pea	#^L41+82
  3036 00:0CE1: F4 xx xx     	pea	#<L41+82
  3037 00:0CE4: 22 xx xx xx  	jsl	~~k_user_getFontClass
  3038 00:0CE8: 85 01        	sta	<R0
  3039 00:0CEA: 86 03        	stx	<R0+2
  3040 00:0CEC: DA           	phx
  3041 00:0CED: 48           	pha
  3042 00:0CEE: F4 00 00     	pea	#0
  3043 00:0CF1: 18           	clc
  3044 00:0CF2: 7B           	tdc
  3045 00:0CF3: 69 1F 00     	adc	#<L43+rect_1
  3046 00:0CF6: 48           	pha
  3047 00:0CF7: 22 xx xx xx  	jsl	~~k_getUIGadgetColor
  3048 00:0CFB: 48           	pha
  3049 00:0CFC: F4 xx xx     	pea	#^L41+80
  3050 00:0CFF: F4 xx xx     	pea	#<L41+80
  3051 00:0D02: D4 17        	pei	<L43+pWin_1+2
  3052 00:0D04: D4 15        	pei	<L43+pWin_1
  3053 00:0D06: 22 xx xx xx  	jsl	~~k_getHandleFromWindow
  Thu Dec  3 2020 22:25                                                Page 63


  3054 00:0D0A: 85 05        	sta	<R1
  3055 00:0D0C: 86 07        	stx	<R1+2
  3056 00:0D0E: DA           	phx
  3057 00:0D0F: 48           	pha
  3058 00:0D10: 22 xx xx xx  	jsl	~~k_user_DrawWindowTextToPointWithFont
  3059                        ;
  3060                        ;				rect.x = pWin->win_width
                     - FONTW - 1;
  3061                        	.line	439
  3062 00:0D14: 22 xx xx xx  	jsl	~~k_font_getFontWidth
  3063 00:0D18: 85 01        	sta	<R0
  3064 00:0D1A: 38           	sec
  3065 00:0D1B: A0 0C 00     	ldy	#$c
  3066 00:0D1E: B7 15        	lda	[<L43+pWin_1],Y
  3067 00:0D20: E5 01        	sbc	<R0
  3068 00:0D22: 85 05        	sta	<R1
  3069 00:0D24: 18           	clc
  3070 00:0D25: A9 FF FF     	lda	#$ffff
  3071 00:0D28: 65 05        	adc	<R1
  3072 00:0D2A: 85 1F        	sta	<L43+rect_1
  3073                        ;				rect.y = 1;
  3074                        	.line	440
  3075 00:0D2C: A9 01 00     	lda	#$1
  3076 00:0D2F: 85 21        	sta	<L43+rect_1+2
  3077                        ;				k_user_DrawWindowTextToP
                    ointWithFont(k_getHandleFromWindow(pWin),"\xAF",k_getUIMenuC
                    olor(),&rect,(LPCSTR)k_user_getFontClass("FXOS8x8"));
  3078                        	.line	441
  3079 00:0D31: F4 xx xx     	pea	#^L41+92
  3080 00:0D34: F4 xx xx     	pea	#<L41+92
  3081 00:0D37: 22 xx xx xx  	jsl	~~k_user_getFontClass
  3082 00:0D3B: 85 01        	sta	<R0
  3083 00:0D3D: 86 03        	stx	<R0+2
  3084 00:0D3F: DA           	phx
  3085 00:0D40: 48           	pha
  3086 00:0D41: F4 00 00     	pea	#0
  3087 00:0D44: 18           	clc
  3088 00:0D45: 7B           	tdc
  3089 00:0D46: 69 1F 00     	adc	#<L43+rect_1
  3090 00:0D49: 48           	pha
  3091 00:0D4A: 22 xx xx xx  	jsl	~~k_getUIMenuColor
  3092 00:0D4E: 48           	pha
  3093 00:0D4F: F4 xx xx     	pea	#^L41+90
  3094 00:0D52: F4 xx xx     	pea	#<L41+90
  3095 00:0D55: D4 17        	pei	<L43+pWin_1+2
  3096 00:0D57: D4 15        	pei	<L43+pWin_1
  3097 00:0D59: 22 xx xx xx  	jsl	~~k_getHandleFromWindow
  3098 00:0D5D: 85 05        	sta	<R1
  3099 00:0D5F: 86 07        	stx	<R1+2
  3100 00:0D61: DA           	phx
  3101 00:0D62: 48           	pha
  3102 00:0D63: 22 xx xx xx  	jsl	~~k_user_DrawWindowTextToPointWithFont
  3103                        ;				k_user_DrawWindowTextToP
                    ointWithFont(k_getHandleFromWindow(pWin),"\x9C",k_getUIGadge
                    tColor(),&rect,(LPCSTR)k_user_getFontClass("FXOS8x8"));
  3104                        	.line	442
  3105 00:0D67: F4 xx xx     	pea	#^L41+102
  3106 00:0D6A: F4 xx xx     	pea	#<L41+102
  Thu Dec  3 2020 22:25                                                Page 64


  3107 00:0D6D: 22 xx xx xx  	jsl	~~k_user_getFontClass
  3108 00:0D71: 85 01        	sta	<R0
  3109 00:0D73: 86 03        	stx	<R0+2
  3110 00:0D75: DA           	phx
  3111 00:0D76: 48           	pha
  3112 00:0D77: F4 00 00     	pea	#0
  3113 00:0D7A: 18           	clc
  3114 00:0D7B: 7B           	tdc
  3115 00:0D7C: 69 1F 00     	adc	#<L43+rect_1
  3116 00:0D7F: 48           	pha
  3117 00:0D80: 22 xx xx xx  	jsl	~~k_getUIGadgetColor
  3118 00:0D84: 48           	pha
  3119 00:0D85: F4 xx xx     	pea	#^L41+100
  3120 00:0D88: F4 xx xx     	pea	#<L41+100
  3121 00:0D8B: D4 17        	pei	<L43+pWin_1+2
  3122 00:0D8D: D4 15        	pei	<L43+pWin_1
  3123 00:0D8F: 22 xx xx xx  	jsl	~~k_getHandleFromWindow
  3124 00:0D93: 85 05        	sta	<R1
  3125 00:0D95: 86 07        	stx	<R1+2
  3126 00:0D97: DA           	phx
  3127 00:0D98: 48           	pha
  3128 00:0D99: 22 xx xx xx  	jsl	~~k_user_DrawWindowTextToPointWithFont
  3129                        ;
  3130                        ;				//rect.x = (pWin->win_wi
                    dth/2) - (FONTW/2);
  3131                        ;				//k_user_DrawWindowTextT
                    oPointWithFont(k_getHandleFromWindow(pWin),"\xAF",k_getUIMen
                    uColor(),&scrollbar->rectThumb,(LPCSTR)k_user_getFontClass("
                    FXOS8x8"));
  3132                        ;
  3133                        ;				scrollbar->rectThumb.x =
                      (scrollbar->stopsize * scrollbar->location) + FONTW;
  3134                        	.line	447
  3135 00:0D9D: A0 08 00     	ldy	#$8
  3136 00:0DA0: B7 19        	lda	[<L43+scrollbar_1],Y
  3137 00:0DA2: AA           	tax
  3138 00:0DA3: A0 06 00     	ldy	#$6
  3139 00:0DA6: B7 19        	lda	[<L43+scrollbar_1],Y
  3140                        	xref	~~~mul
  3141 00:0DA8: 22 xx xx xx  	jsl	~~~mul
  3142 00:0DAC: 85 01        	sta	<R0
  3143 00:0DAE: 22 xx xx xx  	jsl	~~k_font_getFontWidth
  3144 00:0DB2: 85 05        	sta	<R1
  3145 00:0DB4: 18           	clc
  3146 00:0DB5: A5 05        	lda	<R1
  3147 00:0DB7: 65 01        	adc	<R0
  3148 00:0DB9: A0 0C 00     	ldy	#$c
  3149 00:0DBC: 97 19        	sta	[<L43+scrollbar_1],Y
  3150                        ;				scrollbar->rectThumb.y =
                     1;
  3151                        	.line	448
  3152 00:0DBE: A9 01 00     	lda	#$1
  3153 00:0DC1: A0 0E 00     	ldy	#$e
  3154 00:0DC4: 97 19        	sta	[<L43+scrollbar_1],Y
  3155                        ;
  3156                        ;				k_user_DrawWindowTextToP
                    ointWithFont(k_getHandleFromWindow(pWin),"\xBD",k_getUIGadge
                    tColor(),&scrollbar->rectThumb,(LPCSTR)k_user_getFontClass("
  Thu Dec  3 2020 22:25                                                Page 65


                    FXOS8x8"));
  3157                        	.line	450
  3158 00:0DC6: F4 xx xx     	pea	#^L41+112
  3159 00:0DC9: F4 xx xx     	pea	#<L41+112
  3160 00:0DCC: 22 xx xx xx  	jsl	~~k_user_getFontClass
  3161 00:0DD0: 85 01        	sta	<R0
  3162 00:0DD2: 86 03        	stx	<R0+2
  3163 00:0DD4: DA           	phx
  3164 00:0DD5: 48           	pha
  3165 00:0DD6: 18           	clc
  3166 00:0DD7: A9 0C 00     	lda	#$c
  3167 00:0DDA: 65 19        	adc	<L43+scrollbar_1
  3168 00:0DDC: 85 05        	sta	<R1
  3169 00:0DDE: A9 00 00     	lda	#$0
  3170 00:0DE1: 65 1B        	adc	<L43+scrollbar_1+2
  3171 00:0DE3: 85 07        	sta	<R1+2
  3172 00:0DE5: D4 07        	pei	<R1+2
  3173 00:0DE7: D4 05        	pei	<R1
  3174 00:0DE9: 22 xx xx xx  	jsl	~~k_getUIGadgetColor
  3175 00:0DED: 48           	pha
  3176 00:0DEE: F4 xx xx     	pea	#^L41+110
  3177 00:0DF1: F4 xx xx     	pea	#<L41+110
  3178 00:0DF4: D4 17        	pei	<L43+pWin_1+2
  3179 00:0DF6: D4 15        	pei	<L43+pWin_1
  3180 00:0DF8: 22 xx xx xx  	jsl	~~k_getHandleFromWindow
  3181 00:0DFC: 85 09        	sta	<R2
  3182 00:0DFE: 86 0B        	stx	<R2+2
  3183 00:0E00: DA           	phx
  3184 00:0E01: 48           	pha
  3185 00:0E02: 22 xx xx xx  	jsl	~~k_user_DrawWindowTextToPointWithFont
  3186                        ;
  3187                        ;
  3188                        ;			}
  3189                        	.line	453
  3190                        ;			break;
  3191                        L10045:
  3192                        	.line	454
  3193 00:0E06: 82 EB 05     	brl	L10042
  3194                        ;		case FX_REDRAW_WINDOW:
  3195                        	.line	455
  3196                        L10046:
  3197                        ;			k_debug_string("hscrollbarWindow
                    Proc::FX_REDRAW_WINDOW\r\n");
  3198                        	.line	456
  3199 00:0E09: F4 xx xx     	pea	#^L41+120
  3200 00:0E0C: F4 xx xx     	pea	#<L41+120
  3201 00:0E0F: 22 xx xx xx  	jsl	~~k_debug_string
  3202                        ;			break;
  3203                        	.line	457
  3204 00:0E13: 82 DE 05     	brl	L10042
  3205                        ;
  3206                        ;		case FX_LBUTTON_DOWN:
  3207                        	.line	459
  3208                        L10047:
  3209                        ;			k_debug_string("hscrollbarWindow
                    Proc::FX_LBUTTON_DOWN\r\n");
  3210                        	.line	460
  3211 00:0E16: F4 xx xx     	pea	#^L41+161
  Thu Dec  3 2020 22:25                                                Page 66


  3212 00:0E19: F4 xx xx     	pea	#<L41+161
  3213 00:0E1C: 22 xx xx xx  	jsl	~~k_debug_string
  3214                        ;
  3215                        ;
  3216                        ;			cx = *((INT*)&pMsg->data[1]) - p
                    Win->win_x;
  3217                        	.line	463
  3218 00:0E20: 38           	sec
  3219 00:0E21: A0 17 00     	ldy	#$17
  3220 00:0E24: B7 2E        	lda	[<L42+pMsg_0],Y
  3221 00:0E26: A0 08 00     	ldy	#$8
  3222 00:0E29: F7 15        	sbc	[<L43+pWin_1],Y
  3223 00:0E2B: 85 27        	sta	<L43+cx_1
  3224                        ;
  3225                        ;			if(cx > 0 &&  cx < FONTW)
  3226                        	.line	465
  3227                        ;			{
  3228 00:0E2D: 38           	sec
  3229 00:0E2E: A9 00 00     	lda	#$0
  3230 00:0E31: E5 27        	sbc	<L43+cx_1
  3231 00:0E33: 70 03        	bvs	L47
  3232 00:0E35: 49 00 80     	eor	#$8000
  3233                        L47:
  3234 00:0E38: 10 03        	bpl	L48
  3235 00:0E3A: 82 B1 00     	brl	L10048
  3236                        L48:
  3237 00:0E3D: 22 xx xx xx  	jsl	~~k_font_getFontWidth
  3238 00:0E41: 85 01        	sta	<R0
  3239 00:0E43: A5 27        	lda	<L43+cx_1
  3240 00:0E45: C5 01        	cmp	<R0
  3241 00:0E47: 90 03        	bcc	L49
  3242 00:0E49: 82 A2 00     	brl	L10048
  3243                        L49:
  3244                        	.line	466
  3245                        ;				k_debug_integer("hscroll
                    barWindowProc::LEFT ARROW:",cx);
  3246                        	.line	467
  3247 00:0E4C: D4 27        	pei	<L43+cx_1
  3248 00:0E4E: F4 xx xx     	pea	#^L41+201
  3249 00:0E51: F4 xx xx     	pea	#<L41+201
  3250 00:0E54: 22 xx xx xx  	jsl	~~k_debug_integer
  3251                        ;				rect.x = 0;
  3252                        	.line	468
  3253 00:0E58: 64 1F        	stz	<L43+rect_1
  3254                        ;				rect.y = 1;
  3255                        	.line	469
  3256 00:0E5A: A9 01 00     	lda	#$1
  3257 00:0E5D: 85 21        	sta	<L43+rect_1+2
  3258                        ;				k_user_DrawWindowTextToP
                    ointWithFont(k_getHandleFromWindow(pWin),"\xAF",k_getUIMenuC
                    olor(),&rect,(LPCSTR)k_user_getFontClass("FXOS8x8"));
  3259                        	.line	470
  3260 00:0E5F: F4 xx xx     	pea	#^L41+237
  3261 00:0E62: F4 xx xx     	pea	#<L41+237
  3262 00:0E65: 22 xx xx xx  	jsl	~~k_user_getFontClass
  3263 00:0E69: 85 01        	sta	<R0
  3264 00:0E6B: 86 03        	stx	<R0+2
  3265 00:0E6D: DA           	phx
  Thu Dec  3 2020 22:25                                                Page 67


  3266 00:0E6E: 48           	pha
  3267 00:0E6F: F4 00 00     	pea	#0
  3268 00:0E72: 18           	clc
  3269 00:0E73: 7B           	tdc
  3270 00:0E74: 69 1F 00     	adc	#<L43+rect_1
  3271 00:0E77: 48           	pha
  3272 00:0E78: 22 xx xx xx  	jsl	~~k_getUIMenuColor
  3273 00:0E7C: 48           	pha
  3274 00:0E7D: F4 xx xx     	pea	#^L41+235
  3275 00:0E80: F4 xx xx     	pea	#<L41+235
  3276 00:0E83: D4 17        	pei	<L43+pWin_1+2
  3277 00:0E85: D4 15        	pei	<L43+pWin_1
  3278 00:0E87: 22 xx xx xx  	jsl	~~k_getHandleFromWindow
  3279 00:0E8B: 85 05        	sta	<R1
  3280 00:0E8D: 86 07        	stx	<R1+2
  3281 00:0E8F: DA           	phx
  3282 00:0E90: 48           	pha
  3283 00:0E91: 22 xx xx xx  	jsl	~~k_user_DrawWindowTextToPointWithFont
  3284                        ;				k_user_DrawWindowTextToP
                    ointWithFont(k_getHandleFromWindow(pWin),"\xB0",k_getUIGadge
                    tColor(),&rect,(LPCSTR)k_user_getFontClass("FXOS8x8"));
  3285                        	.line	471
  3286 00:0E95: F4 xx xx     	pea	#^L41+247
  3287 00:0E98: F4 xx xx     	pea	#<L41+247
  3288 00:0E9B: 22 xx xx xx  	jsl	~~k_user_getFontClass
  3289 00:0E9F: 85 01        	sta	<R0
  3290 00:0EA1: 86 03        	stx	<R0+2
  3291 00:0EA3: DA           	phx
  3292 00:0EA4: 48           	pha
  3293 00:0EA5: F4 00 00     	pea	#0
  3294 00:0EA8: 18           	clc
  3295 00:0EA9: 7B           	tdc
  3296 00:0EAA: 69 1F 00     	adc	#<L43+rect_1
  3297 00:0EAD: 48           	pha
  3298 00:0EAE: 22 xx xx xx  	jsl	~~k_getUIGadgetColor
  3299 00:0EB2: 48           	pha
  3300 00:0EB3: F4 xx xx     	pea	#^L41+245
  3301 00:0EB6: F4 xx xx     	pea	#<L41+245
  3302 00:0EB9: D4 17        	pei	<L43+pWin_1+2
  3303 00:0EBB: D4 15        	pei	<L43+pWin_1
  3304 00:0EBD: 22 xx xx xx  	jsl	~~k_getHandleFromWindow
  3305 00:0EC1: 85 05        	sta	<R1
  3306 00:0EC3: 86 07        	stx	<R1+2
  3307 00:0EC5: DA           	phx
  3308 00:0EC6: 48           	pha
  3309 00:0EC7: 22 xx xx xx  	jsl	~~k_user_DrawWindowTextToPointWithFont
  3310                        ;				scrollbar->location--;
  3311                        	.line	472
  3312 00:0ECB: 18           	clc
  3313 00:0ECC: A9 FF FF     	lda	#$ffff
  3314 00:0ECF: A0 08 00     	ldy	#$8
  3315 00:0ED2: 77 19        	adc	[<L43+scrollbar_1],Y
  3316 00:0ED4: A0 08 00     	ldy	#$8
  3317 00:0ED7: 97 19        	sta	[<L43+scrollbar_1],Y
  3318                        ;				if(scrollbar->location <
                     0)
  3319                        	.line	473
  3320                        ;					scrollbar->locat
  Thu Dec  3 2020 22:25                                                Page 68


                    ion = 0;
  3321 00:0ED9: A0 08 00     	ldy	#$8
  3322 00:0EDC: B7 19        	lda	[<L43+scrollbar_1],Y
  3323 00:0EDE: 30 03        	bmi	L50
  3324 00:0EE0: 82 08 00     	brl	L10049
  3325                        L50:
  3326                        	.line	474
  3327 00:0EE3: A9 00 00     	lda	#$0
  3328 00:0EE6: A0 08 00     	ldy	#$8
  3329 00:0EE9: 97 19        	sta	[<L43+scrollbar_1],Y
  3330                        ;
  3331                        ;			}
  3332                        L10049:
  3333                        	.line	476
  3334                        ;			else if(cx > (pWin->win_width - 
                    FONTW) &&  cx < (pWin->win_width))
  3335 00:0EEB: 82 E4 00     	brl	L10050
  3336                        L10048:
  3337                        	.line	477
  3338                        ;			{
  3339 00:0EEE: 22 xx xx xx  	jsl	~~k_font_getFontWidth
  3340 00:0EF2: 85 01        	sta	<R0
  3341 00:0EF4: 38           	sec
  3342 00:0EF5: A0 0C 00     	ldy	#$c
  3343 00:0EF8: B7 15        	lda	[<L43+pWin_1],Y
  3344 00:0EFA: E5 01        	sbc	<R0
  3345 00:0EFC: 85 05        	sta	<R1
  3346 00:0EFE: A5 05        	lda	<R1
  3347 00:0F00: C5 27        	cmp	<L43+cx_1
  3348 00:0F02: 90 03        	bcc	L51
  3349 00:0F04: 82 CB 00     	brl	L10051
  3350                        L51:
  3351 00:0F07: 38           	sec
  3352 00:0F08: A5 27        	lda	<L43+cx_1
  3353 00:0F0A: A0 0C 00     	ldy	#$c
  3354 00:0F0D: F7 15        	sbc	[<L43+pWin_1],Y
  3355 00:0F0F: 70 03        	bvs	L52
  3356 00:0F11: 49 00 80     	eor	#$8000
  3357                        L52:
  3358 00:0F14: 10 03        	bpl	L53
  3359 00:0F16: 82 B9 00     	brl	L10051
  3360                        L53:
  3361                        	.line	478
  3362                        ;				k_debug_integer("hscroll
                    barWindowProc::RIGHT ARROW:",cx);
  3363                        	.line	479
  3364 00:0F19: D4 27        	pei	<L43+cx_1
  3365 00:0F1B: F4 xx xx     	pea	#^L41+255
  3366 00:0F1E: F4 xx xx     	pea	#<L41+255
  3367 00:0F21: 22 xx xx xx  	jsl	~~k_debug_integer
  3368                        ;				rect.x = pWin->win_width
                     - FONTW - 1;
  3369                        	.line	480
  3370 00:0F25: 22 xx xx xx  	jsl	~~k_font_getFontWidth
  3371 00:0F29: 85 01        	sta	<R0
  3372 00:0F2B: 38           	sec
  3373 00:0F2C: A0 0C 00     	ldy	#$c
  3374 00:0F2F: B7 15        	lda	[<L43+pWin_1],Y
  Thu Dec  3 2020 22:25                                                Page 69


  3375 00:0F31: E5 01        	sbc	<R0
  3376 00:0F33: 85 05        	sta	<R1
  3377 00:0F35: 18           	clc
  3378 00:0F36: A9 FF FF     	lda	#$ffff
  3379 00:0F39: 65 05        	adc	<R1
  3380 00:0F3B: 85 1F        	sta	<L43+rect_1
  3381                        ;				rect.y = 1;
  3382                        	.line	481
  3383 00:0F3D: A9 01 00     	lda	#$1
  3384 00:0F40: 85 21        	sta	<L43+rect_1+2
  3385                        ;				k_user_DrawWindowTextToP
                    ointWithFont(k_getHandleFromWindow(pWin),"\xAF",k_getUIMenuC
                    olor(),&rect,(LPCSTR)k_user_getFontClass("FXOS8x8"));
  3386                        	.line	482
  3387 00:0F42: F4 xx xx     	pea	#^L41+292
  3388 00:0F45: F4 xx xx     	pea	#<L41+292
  3389 00:0F48: 22 xx xx xx  	jsl	~~k_user_getFontClass
  3390 00:0F4C: 85 01        	sta	<R0
  3391 00:0F4E: 86 03        	stx	<R0+2
  3392 00:0F50: DA           	phx
  3393 00:0F51: 48           	pha
  3394 00:0F52: F4 00 00     	pea	#0
  3395 00:0F55: 18           	clc
  3396 00:0F56: 7B           	tdc
  3397 00:0F57: 69 1F 00     	adc	#<L43+rect_1
  3398 00:0F5A: 48           	pha
  3399 00:0F5B: 22 xx xx xx  	jsl	~~k_getUIMenuColor
  3400 00:0F5F: 48           	pha
  3401 00:0F60: F4 xx xx     	pea	#^L41+290
  3402 00:0F63: F4 xx xx     	pea	#<L41+290
  3403 00:0F66: D4 17        	pei	<L43+pWin_1+2
  3404 00:0F68: D4 15        	pei	<L43+pWin_1
  3405 00:0F6A: 22 xx xx xx  	jsl	~~k_getHandleFromWindow
  3406 00:0F6E: 85 05        	sta	<R1
  3407 00:0F70: 86 07        	stx	<R1+2
  3408 00:0F72: DA           	phx
  3409 00:0F73: 48           	pha
  3410 00:0F74: 22 xx xx xx  	jsl	~~k_user_DrawWindowTextToPointWithFont
  3411                        ;				k_user_DrawWindowTextToP
                    ointWithFont(k_getHandleFromWindow(pWin),"\xB1",k_getUIGadge
                    tColor(),&rect,(LPCSTR)k_user_getFontClass("FXOS8x8"));
  3412                        	.line	483
  3413 00:0F78: F4 xx xx     	pea	#^L41+302
  3414 00:0F7B: F4 xx xx     	pea	#<L41+302
  3415 00:0F7E: 22 xx xx xx  	jsl	~~k_user_getFontClass
  3416 00:0F82: 85 01        	sta	<R0
  3417 00:0F84: 86 03        	stx	<R0+2
  3418 00:0F86: DA           	phx
  3419 00:0F87: 48           	pha
  3420 00:0F88: F4 00 00     	pea	#0
  3421 00:0F8B: 18           	clc
  3422 00:0F8C: 7B           	tdc
  3423 00:0F8D: 69 1F 00     	adc	#<L43+rect_1
  3424 00:0F90: 48           	pha
  3425 00:0F91: 22 xx xx xx  	jsl	~~k_getUIGadgetColor
  3426 00:0F95: 48           	pha
  3427 00:0F96: F4 xx xx     	pea	#^L41+300
  3428 00:0F99: F4 xx xx     	pea	#<L41+300
  Thu Dec  3 2020 22:25                                                Page 70


  3429 00:0F9C: D4 17        	pei	<L43+pWin_1+2
  3430 00:0F9E: D4 15        	pei	<L43+pWin_1
  3431 00:0FA0: 22 xx xx xx  	jsl	~~k_getHandleFromWindow
  3432 00:0FA4: 85 05        	sta	<R1
  3433 00:0FA6: 86 07        	stx	<R1+2
  3434 00:0FA8: DA           	phx
  3435 00:0FA9: 48           	pha
  3436 00:0FAA: 22 xx xx xx  	jsl	~~k_user_DrawWindowTextToPointWithFont
  3437                        ;				scrollbar->location++;
  3438                        	.line	484
  3439 00:0FAE: A0 08 00     	ldy	#$8
  3440 00:0FB1: B7 19        	lda	[<L43+scrollbar_1],Y
  3441 00:0FB3: 1A           	ina
  3442 00:0FB4: A0 08 00     	ldy	#$8
  3443 00:0FB7: 97 19        	sta	[<L43+scrollbar_1],Y
  3444                        ;				if(scrollbar->location >
                     (scrollbar->increment ))
  3445                        	.line	485
  3446                        ;					scrollbar->locat
                    ion =  scrollbar->increment;
  3447 00:0FB9: A0 04 00     	ldy	#$4
  3448 00:0FBC: B7 19        	lda	[<L43+scrollbar_1],Y
  3449 00:0FBE: A0 08 00     	ldy	#$8
  3450 00:0FC1: D7 19        	cmp	[<L43+scrollbar_1],Y
  3451 00:0FC3: 90 03        	bcc	L54
  3452 00:0FC5: 82 0A 00     	brl	L10052
  3453                        L54:
  3454                        	.line	486
  3455 00:0FC8: A0 04 00     	ldy	#$4
  3456 00:0FCB: B7 19        	lda	[<L43+scrollbar_1],Y
  3457 00:0FCD: A0 08 00     	ldy	#$8
  3458 00:0FD0: 97 19        	sta	[<L43+scrollbar_1],Y
  3459                        ;			}
  3460                        L10052:
  3461                        	.line	487
  3462                        ;
  3463                        ;			k_user_DrawWindowTextToPointWith
                    Font(k_getHandleFromWindow(pWin),"\xAF",k_getUIMenuColor(),&
                    scrollbar->rectThumb,(LPCSTR)k_user_getFontClass("FXOS8x8"))
                    ;
  3464                        L10051:
  3465                        L10050:
  3466                        	.line	489
  3467 00:0FD2: F4 xx xx     	pea	#^L41+312
  3468 00:0FD5: F4 xx xx     	pea	#<L41+312
  3469 00:0FD8: 22 xx xx xx  	jsl	~~k_user_getFontClass
  3470 00:0FDC: 85 01        	sta	<R0
  3471 00:0FDE: 86 03        	stx	<R0+2
  3472 00:0FE0: DA           	phx
  3473 00:0FE1: 48           	pha
  3474 00:0FE2: 18           	clc
  3475 00:0FE3: A9 0C 00     	lda	#$c
  3476 00:0FE6: 65 19        	adc	<L43+scrollbar_1
  3477 00:0FE8: 85 05        	sta	<R1
  3478 00:0FEA: A9 00 00     	lda	#$0
  3479 00:0FED: 65 1B        	adc	<L43+scrollbar_1+2
  3480 00:0FEF: 85 07        	sta	<R1+2
  3481 00:0FF1: D4 07        	pei	<R1+2
  Thu Dec  3 2020 22:25                                                Page 71


  3482 00:0FF3: D4 05        	pei	<R1
  3483 00:0FF5: 22 xx xx xx  	jsl	~~k_getUIMenuColor
  3484 00:0FF9: 48           	pha
  3485 00:0FFA: F4 xx xx     	pea	#^L41+310
  3486 00:0FFD: F4 xx xx     	pea	#<L41+310
  3487 00:1000: D4 17        	pei	<L43+pWin_1+2
  3488 00:1002: D4 15        	pei	<L43+pWin_1
  3489 00:1004: 22 xx xx xx  	jsl	~~k_getHandleFromWindow
  3490 00:1008: 85 09        	sta	<R2
  3491 00:100A: 86 0B        	stx	<R2+2
  3492 00:100C: DA           	phx
  3493 00:100D: 48           	pha
  3494 00:100E: 22 xx xx xx  	jsl	~~k_user_DrawWindowTextToPointWithFont
  3495                        ;
  3496                        ;			scrollbar->rectThumb.x =  (scrol
                    lbar->stopsize * scrollbar->location) + FONTW;
  3497                        	.line	491
  3498 00:1012: A0 08 00     	ldy	#$8
  3499 00:1015: B7 19        	lda	[<L43+scrollbar_1],Y
  3500 00:1017: AA           	tax
  3501 00:1018: A0 06 00     	ldy	#$6
  3502 00:101B: B7 19        	lda	[<L43+scrollbar_1],Y
  3503                        	xref	~~~mul
  3504 00:101D: 22 xx xx xx  	jsl	~~~mul
  3505 00:1021: 85 01        	sta	<R0
  3506 00:1023: 22 xx xx xx  	jsl	~~k_font_getFontWidth
  3507 00:1027: 85 05        	sta	<R1
  3508 00:1029: 18           	clc
  3509 00:102A: A5 05        	lda	<R1
  3510 00:102C: 65 01        	adc	<R0
  3511 00:102E: A0 0C 00     	ldy	#$c
  3512 00:1031: 97 19        	sta	[<L43+scrollbar_1],Y
  3513                        ;
  3514                        ;			if(scrollbar->rectThumb.x > (pWi
                    n->win_width - (2*FONTW) -1 ))
  3515                        	.line	493
  3516                        ;				scrollbar->rectThumb.x =
                     (pWin->win_width - (2*FONTW) -1 );
  3517 00:1033: 22 xx xx xx  	jsl	~~k_font_getFontWidth
  3518 00:1037: 85 05        	sta	<R1
  3519 00:1039: A5 05        	lda	<R1
  3520 00:103B: 0A           	asl	A
  3521 00:103C: 85 01        	sta	<R0
  3522 00:103E: 38           	sec
  3523 00:103F: A0 0C 00     	ldy	#$c
  3524 00:1042: B7 15        	lda	[<L43+pWin_1],Y
  3525 00:1044: E5 01        	sbc	<R0
  3526 00:1046: 85 05        	sta	<R1
  3527 00:1048: 18           	clc
  3528 00:1049: A9 FF FF     	lda	#$ffff
  3529 00:104C: 65 05        	adc	<R1
  3530 00:104E: 85 01        	sta	<R0
  3531 00:1050: A5 01        	lda	<R0
  3532 00:1052: A0 0C 00     	ldy	#$c
  3533 00:1055: D7 19        	cmp	[<L43+scrollbar_1],Y
  3534 00:1057: 90 03        	bcc	L55
  3535 00:1059: 82 20 00     	brl	L10053
  3536                        L55:
  Thu Dec  3 2020 22:25                                                Page 72


  3537                        	.line	494
  3538 00:105C: 22 xx xx xx  	jsl	~~k_font_getFontWidth
  3539 00:1060: 85 05        	sta	<R1
  3540 00:1062: A5 05        	lda	<R1
  3541 00:1064: 0A           	asl	A
  3542 00:1065: 85 01        	sta	<R0
  3543 00:1067: 38           	sec
  3544 00:1068: A0 0C 00     	ldy	#$c
  3545 00:106B: B7 15        	lda	[<L43+pWin_1],Y
  3546 00:106D: E5 01        	sbc	<R0
  3547 00:106F: 85 05        	sta	<R1
  3548 00:1071: 18           	clc
  3549 00:1072: A9 FF FF     	lda	#$ffff
  3550 00:1075: 65 05        	adc	<R1
  3551 00:1077: A0 0C 00     	ldy	#$c
  3552 00:107A: 97 19        	sta	[<L43+scrollbar_1],Y
  3553                        ;
  3554                        ;
  3555                        ;			if(scrollbar->rectThumb.x < FONT
                    W)
  3556                        L10053:
  3557                        	.line	497
  3558                        ;				scrollbar->rectThumb.x =
                     FONTW;
  3559 00:107C: 22 xx xx xx  	jsl	~~k_font_getFontWidth
  3560 00:1080: 85 01        	sta	<R0
  3561 00:1082: A0 0C 00     	ldy	#$c
  3562 00:1085: B7 19        	lda	[<L43+scrollbar_1],Y
  3563 00:1087: C5 01        	cmp	<R0
  3564 00:1089: 90 03        	bcc	L56
  3565 00:108B: 82 09 00     	brl	L10054
  3566                        L56:
  3567                        	.line	498
  3568 00:108E: 22 xx xx xx  	jsl	~~k_font_getFontWidth
  3569 00:1092: A0 0C 00     	ldy	#$c
  3570 00:1095: 97 19        	sta	[<L43+scrollbar_1],Y
  3571                        ;
  3572                        ;			scrollbar->rectThumb.y = 1;
  3573                        L10054:
  3574                        	.line	500
  3575 00:1097: A9 01 00     	lda	#$1
  3576 00:109A: A0 0E 00     	ldy	#$e
  3577 00:109D: 97 19        	sta	[<L43+scrollbar_1],Y
  3578                        ;
  3579                        ;
  3580                        ;			k_debug_integer("hscrollbarWindo
                    wProc::pWin->win_width:",pWin->win_width);
  3581                        	.line	503
  3582 00:109F: A0 0C 00     	ldy	#$c
  3583 00:10A2: B7 15        	lda	[<L43+pWin_1],Y
  3584 00:10A4: 48           	pha
  3585 00:10A5: F4 xx xx     	pea	#^L41+320
  3586 00:10A8: F4 xx xx     	pea	#<L41+320
  3587 00:10AB: 22 xx xx xx  	jsl	~~k_debug_integer
  3588                        ;			k_debug_integer("hscrollbarWindo
                    wProc::scrollbar->rectThumb.x:",scrollbar->rectThumb.x);
  3589                        	.line	504
  3590 00:10AF: A0 0C 00     	ldy	#$c
  Thu Dec  3 2020 22:25                                                Page 73


  3591 00:10B2: B7 19        	lda	[<L43+scrollbar_1],Y
  3592 00:10B4: 48           	pha
  3593 00:10B5: F4 xx xx     	pea	#^L41+359
  3594 00:10B8: F4 xx xx     	pea	#<L41+359
  3595 00:10BB: 22 xx xx xx  	jsl	~~k_debug_integer
  3596                        ;			k_debug_integer("hscrollbarWindo
                    wProc::location:",scrollbar->location);
  3597                        	.line	505
  3598 00:10BF: A0 08 00     	ldy	#$8
  3599 00:10C2: B7 19        	lda	[<L43+scrollbar_1],Y
  3600 00:10C4: 48           	pha
  3601 00:10C5: F4 xx xx     	pea	#^L41+405
  3602 00:10C8: F4 xx xx     	pea	#<L41+405
  3603 00:10CB: 22 xx xx xx  	jsl	~~k_debug_integer
  3604                        ;			k_debug_integer("hscrollbarWindo
                    wProc::increment:",scrollbar->increment);
  3605                        	.line	506
  3606 00:10CF: A0 04 00     	ldy	#$4
  3607 00:10D2: B7 19        	lda	[<L43+scrollbar_1],Y
  3608 00:10D4: 48           	pha
  3609 00:10D5: F4 xx xx     	pea	#^L41+437
  3610 00:10D8: F4 xx xx     	pea	#<L41+437
  3611 00:10DB: 22 xx xx xx  	jsl	~~k_debug_integer
  3612                        ;			k_debug_integer("hscrollbarWindo
                    wProc::offset:",scrollbar->rectThumb.x);
  3613                        	.line	507
  3614 00:10DF: A0 0C 00     	ldy	#$c
  3615 00:10E2: B7 19        	lda	[<L43+scrollbar_1],Y
  3616 00:10E4: 48           	pha
  3617 00:10E5: F4 xx xx     	pea	#^L41+470
  3618 00:10E8: F4 xx xx     	pea	#<L41+470
  3619 00:10EB: 22 xx xx xx  	jsl	~~k_debug_integer
  3620                        ;
  3621                        ;			k_user_DrawWindowTextToPointWith
                    Font(k_getHandleFromWindow(pWin),"\xBD",k_getUIGadgetColor()
                    ,&scrollbar->rectThumb,(LPCSTR)k_user_getFontClass("FXOS8x8"
                    ));
  3622                        	.line	509
  3623 00:10EF: F4 xx xx     	pea	#^L41+502
  3624 00:10F2: F4 xx xx     	pea	#<L41+502
  3625 00:10F5: 22 xx xx xx  	jsl	~~k_user_getFontClass
  3626 00:10F9: 85 01        	sta	<R0
  3627 00:10FB: 86 03        	stx	<R0+2
  3628 00:10FD: DA           	phx
  3629 00:10FE: 48           	pha
  3630 00:10FF: 18           	clc
  3631 00:1100: A9 0C 00     	lda	#$c
  3632 00:1103: 65 19        	adc	<L43+scrollbar_1
  3633 00:1105: 85 05        	sta	<R1
  3634 00:1107: A9 00 00     	lda	#$0
  3635 00:110A: 65 1B        	adc	<L43+scrollbar_1+2
  3636 00:110C: 85 07        	sta	<R1+2
  3637 00:110E: D4 07        	pei	<R1+2
  3638 00:1110: D4 05        	pei	<R1
  3639 00:1112: 22 xx xx xx  	jsl	~~k_getUIGadgetColor
  3640 00:1116: 48           	pha
  3641 00:1117: F4 xx xx     	pea	#^L41+500
  3642 00:111A: F4 xx xx     	pea	#<L41+500
  Thu Dec  3 2020 22:25                                                Page 74


  3643 00:111D: D4 17        	pei	<L43+pWin_1+2
  3644 00:111F: D4 15        	pei	<L43+pWin_1
  3645 00:1121: 22 xx xx xx  	jsl	~~k_getHandleFromWindow
  3646 00:1125: 85 09        	sta	<R2
  3647 00:1127: 86 0B        	stx	<R2+2
  3648 00:1129: DA           	phx
  3649 00:112A: 48           	pha
  3650 00:112B: 22 xx xx xx  	jsl	~~k_user_DrawWindowTextToPointWithFont
  3651                        ;
  3652                        ;
  3653                        ;			//k_debug_strings("hscrollbarWin
                    dowProc::send parent:",k_getWindowFromHandle(pWin->pParentWi
                    ndow)->win_title);
  3654                        ;			k_send_command_message(pWin->pPa
                    rentWindow,FX_SCROLLBAR_COMMAND,CTL_HORZ_SCROLL,scrollbar->l
                    ocation,scrollbar->location*scrollbar->increment,0L);
  3655                        	.line	513
  3656 00:112F: F4 00 00     	pea	#^$0
  3657 00:1132: F4 00 00     	pea	#<$0
  3658 00:1135: A0 04 00     	ldy	#$4
  3659 00:1138: B7 19        	lda	[<L43+scrollbar_1],Y
  3660 00:113A: AA           	tax
  3661 00:113B: A0 08 00     	ldy	#$8
  3662 00:113E: B7 19        	lda	[<L43+scrollbar_1],Y
  3663                        	xref	~~~mul
  3664 00:1140: 22 xx xx xx  	jsl	~~~mul
  3665 00:1144: 85 01        	sta	<R0
  3666 00:1146: A5 01        	lda	<R0
  3667 00:1148: 85 01        	sta	<R0
  3668 00:114A: 64 03        	stz	<R0+2
  3669 00:114C: D4 03        	pei	<R0+2
  3670 00:114E: D4 01        	pei	<R0
  3671 00:1150: A0 08 00     	ldy	#$8
  3672 00:1153: B7 19        	lda	[<L43+scrollbar_1],Y
  3673 00:1155: 48           	pha
  3674 00:1156: F4 02 00     	pea	#<$2
  3675 00:1159: F4 02 FA     	pea	#<$fa02
  3676 00:115C: A0 32 01     	ldy	#$132
  3677 00:115F: B7 15        	lda	[<L43+pWin_1],Y
  3678 00:1161: 48           	pha
  3679 00:1162: A0 30 01     	ldy	#$130
  3680 00:1165: B7 15        	lda	[<L43+pWin_1],Y
  3681 00:1167: 48           	pha
  3682 00:1168: 22 xx xx xx  	jsl	~~k_send_command_message
  3683                        ;
  3684                        ;
  3685                        ;			if(scrollbar)
  3686                        	.line	516
  3687                        ;			{
  3688 00:116C: A5 19        	lda	<L43+scrollbar_1
  3689 00:116E: 05 1B        	ora	<L43+scrollbar_1+2
  3690 00:1170: D0 03        	bne	L57
  3691 00:1172: 82 00 00     	brl	L10055
  3692                        L57:
  3693                        	.line	517
  3694                        ;
  3695                        ;				//k_debug_strings("butto
                    nWindowProc::CTL_CMD_CAPTION:", (LPCHAR)pButton->pCaption );
  Thu Dec  3 2020 22:25                                                Page 75


  3696                        ;
  3697                        ;				/*
  3698                        ;				k_vdraw_ui_window(pWin,p
                    Win->style,
  3699                        ;							
                    	  pWin->win_x ,pWin->win_y,
  3700                        ;							
                    	  pWin->win_height,pWin->win_width,
  3701                        ;							
                    	  pWin->win_title,
  3702                        ;							
                    	  k_getUIGadgetColor(), k_getUIMenuColor());
  3703                        ;
  3704                        ;				*/
  3705                        ;				/*
  3706                        ;				k_draw_line(pWin->win_x 
                    + 1 ,pWin->win_y + 1,
  3707                        ;						    pWin
                    ->win_x + 1,
  3708                        ;							
                    pWin->win_y + pWin->win_height - 1 , 0);
  3709                        ;
  3710                        ;				k_draw_line(pWin->win_x 
                    + 1 ,pWin->win_y + pWin->win_height - 1,
  3711                        ;						    pWin
                    ->win_x + pWin->win_width - 1,pWin->win_y + pWin->win_height
                     - 1 , 0);
  3712                        ;
  3713                        ;				*/
  3714                        ;
  3715                        ;				/*
  3716                        ;				k_draw_line(pWin->win_x 
                    + 1 ,
  3717                        ;							
                    pWin->win_y + 1,
  3718                        ;						    pWin
                    ->win_x + pWin->win_width - 1,
  3719                        ;							
                    pWin->win_y + 1,
  3720                        ;							
                    0);
  3721                        ;
  3722                        ;				k_draw_line(pWin->win_x 
                    + 1 ,
  3723                        ;							
                    pWin->win_y + 2,
  3724                        ;						    pWin
                    ->win_x + pWin->win_width - 1,
  3725                        ;							
                    pWin->win_y + 2,
  3726                        ;							
                    0);
  3727                        ;
  3728                        ;
  3729                        ;				k_draw_line(pWin->win_x 
                    + pWin->win_width  - 1,
  3730                        ;							
                    pWin->win_y + 1 ,
  Thu Dec  3 2020 22:25                                                Page 76


  3731                        ;						    pWin
                    ->win_x + pWin->win_width  - 1,
  3732                        ;							
                    pWin->win_y + pWin->win_height - 1,
  3733                        ;							
                    0);
  3734                        ;
  3735                        ;				k_draw_line(pWin->win_x 
                    + pWin->win_width  - 2,
  3736                        ;							
                    pWin->win_y + 1,
  3737                        ;						    pWin
                    ->win_x + pWin->win_width  - 2,
  3738                        ;							
                    pWin->win_y + pWin->win_height - 1,
  3739                        ;							
                    0);
  3740                        ;
  3741                        ;
  3742                        ;
  3743                        ;				size = strlen(pButton->p
                    Caption) * FONTW;
  3744                        ;				k_draw_text_point(pButto
                    n->pCaption,
  3745                        ;						        
                      pWin->win_x + (pWin->win_width/2)  - (size/2) - 2,
  3746                        ;							
                    	  pWin->win_y + (pWin->win_height/2) - (4) + 2     , k_g
                    etUIGadgetColor()) ;
  3747                        ;							
                    	  */
  3748                        ;
  3749                        ;
  3750                        ;				//k_draw_text_point("\x9
                    B",0,0,k_getUIGadgetColor()) ;
  3751                        ;				//k_draw_text_point("\x9
                    C",pWin->win_x + (pWin->win_width) - FONTW,0,k_getUIGadgetCo
                    lor()) ;
  3752                        ;			}
  3753                        	.line	576
  3754                        ;
  3755                        ;
  3756                        ;			break;
  3757                        L10055:
  3758                        	.line	579
  3759 00:1175: 82 7C 02     	brl	L10042
  3760                        ;
  3761                        ;		case FX_LBUTTON_UP:
  3762                        	.line	581
  3763                        L10056:
  3764                        ;			k_debug_string("hscrollbarWindow
                    Proc::FX_LBUTTON_UP\r\n");
  3765                        	.line	582
  3766 00:1178: F4 xx xx     	pea	#^L41+510
  3767 00:117B: F4 xx xx     	pea	#<L41+510
  3768 00:117E: 22 xx xx xx  	jsl	~~k_debug_string
  3769                        ;
  3770                        ;			rect.x = 0;
  Thu Dec  3 2020 22:25                                                Page 77


  3771                        	.line	584
  3772 00:1182: 64 1F        	stz	<L43+rect_1
  3773                        ;			rect.y = 1;
  3774                        	.line	585
  3775 00:1184: A9 01 00     	lda	#$1
  3776 00:1187: 85 21        	sta	<L43+rect_1+2
  3777                        ;			k_user_DrawWindowTextToPointWith
                    Font(k_getHandleFromWindow(pWin),"\xAF",k_getUIMenuColor(),&
                    rect,(LPCSTR)k_user_getFontClass("FXOS8x8"));
  3778                        	.line	586
  3779 00:1189: F4 xx xx     	pea	#^L41+550
  3780 00:118C: F4 xx xx     	pea	#<L41+550
  3781 00:118F: 22 xx xx xx  	jsl	~~k_user_getFontClass
  3782 00:1193: 85 01        	sta	<R0
  3783 00:1195: 86 03        	stx	<R0+2
  3784 00:1197: DA           	phx
  3785 00:1198: 48           	pha
  3786 00:1199: F4 00 00     	pea	#0
  3787 00:119C: 18           	clc
  3788 00:119D: 7B           	tdc
  3789 00:119E: 69 1F 00     	adc	#<L43+rect_1
  3790 00:11A1: 48           	pha
  3791 00:11A2: 22 xx xx xx  	jsl	~~k_getUIMenuColor
  3792 00:11A6: 48           	pha
  3793 00:11A7: F4 xx xx     	pea	#^L41+548
  3794 00:11AA: F4 xx xx     	pea	#<L41+548
  3795 00:11AD: D4 17        	pei	<L43+pWin_1+2
  3796 00:11AF: D4 15        	pei	<L43+pWin_1
  3797 00:11B1: 22 xx xx xx  	jsl	~~k_getHandleFromWindow
  3798 00:11B5: 85 05        	sta	<R1
  3799 00:11B7: 86 07        	stx	<R1+2
  3800 00:11B9: DA           	phx
  3801 00:11BA: 48           	pha
  3802 00:11BB: 22 xx xx xx  	jsl	~~k_user_DrawWindowTextToPointWithFont
  3803                        ;			k_user_DrawWindowTextToPointWith
                    Font(k_getHandleFromWindow(pWin),"\x9B",k_getUIGadgetColor()
                    ,&rect,(LPCSTR)k_user_getFontClass("FXOS8x8"));
  3804                        	.line	587
  3805 00:11BF: F4 xx xx     	pea	#^L41+560
  3806 00:11C2: F4 xx xx     	pea	#<L41+560
  3807 00:11C5: 22 xx xx xx  	jsl	~~k_user_getFontClass
  3808 00:11C9: 85 01        	sta	<R0
  3809 00:11CB: 86 03        	stx	<R0+2
  3810 00:11CD: DA           	phx
  3811 00:11CE: 48           	pha
  3812 00:11CF: F4 00 00     	pea	#0
  3813 00:11D2: 18           	clc
  3814 00:11D3: 7B           	tdc
  3815 00:11D4: 69 1F 00     	adc	#<L43+rect_1
  3816 00:11D7: 48           	pha
  3817 00:11D8: 22 xx xx xx  	jsl	~~k_getUIGadgetColor
  3818 00:11DC: 48           	pha
  3819 00:11DD: F4 xx xx     	pea	#^L41+558
  3820 00:11E0: F4 xx xx     	pea	#<L41+558
  3821 00:11E3: D4 17        	pei	<L43+pWin_1+2
  3822 00:11E5: D4 15        	pei	<L43+pWin_1
  3823 00:11E7: 22 xx xx xx  	jsl	~~k_getHandleFromWindow
  3824 00:11EB: 85 05        	sta	<R1
  Thu Dec  3 2020 22:25                                                Page 78


  3825 00:11ED: 86 07        	stx	<R1+2
  3826 00:11EF: DA           	phx
  3827 00:11F0: 48           	pha
  3828 00:11F1: 22 xx xx xx  	jsl	~~k_user_DrawWindowTextToPointWithFont
  3829                        ;
  3830                        ;			rect.x = pWin->win_width - FONTW
                     - 1;
  3831                        	.line	589
  3832 00:11F5: 22 xx xx xx  	jsl	~~k_font_getFontWidth
  3833 00:11F9: 85 01        	sta	<R0
  3834 00:11FB: 38           	sec
  3835 00:11FC: A0 0C 00     	ldy	#$c
  3836 00:11FF: B7 15        	lda	[<L43+pWin_1],Y
  3837 00:1201: E5 01        	sbc	<R0
  3838 00:1203: 85 05        	sta	<R1
  3839 00:1205: 18           	clc
  3840 00:1206: A9 FF FF     	lda	#$ffff
  3841 00:1209: 65 05        	adc	<R1
  3842 00:120B: 85 1F        	sta	<L43+rect_1
  3843                        ;			rect.y = 1;
  3844                        	.line	590
  3845 00:120D: A9 01 00     	lda	#$1
  3846 00:1210: 85 21        	sta	<L43+rect_1+2
  3847                        ;			k_user_DrawWindowTextToPointWith
                    Font(k_getHandleFromWindow(pWin),"\xAF",k_getUIMenuColor(),&
                    rect,(LPCSTR)k_user_getFontClass("FXOS8x8"));
  3848                        	.line	591
  3849 00:1212: F4 xx xx     	pea	#^L41+570
  3850 00:1215: F4 xx xx     	pea	#<L41+570
  3851 00:1218: 22 xx xx xx  	jsl	~~k_user_getFontClass
  3852 00:121C: 85 01        	sta	<R0
  3853 00:121E: 86 03        	stx	<R0+2
  3854 00:1220: DA           	phx
  3855 00:1221: 48           	pha
  3856 00:1222: F4 00 00     	pea	#0
  3857 00:1225: 18           	clc
  3858 00:1226: 7B           	tdc
  3859 00:1227: 69 1F 00     	adc	#<L43+rect_1
  3860 00:122A: 48           	pha
  3861 00:122B: 22 xx xx xx  	jsl	~~k_getUIMenuColor
  3862 00:122F: 48           	pha
  3863 00:1230: F4 xx xx     	pea	#^L41+568
  3864 00:1233: F4 xx xx     	pea	#<L41+568
  3865 00:1236: D4 17        	pei	<L43+pWin_1+2
  3866 00:1238: D4 15        	pei	<L43+pWin_1
  3867 00:123A: 22 xx xx xx  	jsl	~~k_getHandleFromWindow
  3868 00:123E: 85 05        	sta	<R1
  3869 00:1240: 86 07        	stx	<R1+2
  3870 00:1242: DA           	phx
  3871 00:1243: 48           	pha
  3872 00:1244: 22 xx xx xx  	jsl	~~k_user_DrawWindowTextToPointWithFont
  3873                        ;			k_user_DrawWindowTextToPointWith
                    Font(k_getHandleFromWindow(pWin),"\x9C",k_getUIGadgetColor()
                    ,&rect,(LPCSTR)k_user_getFontClass("FXOS8x8"));
  3874                        	.line	592
  3875 00:1248: F4 xx xx     	pea	#^L41+580
  3876 00:124B: F4 xx xx     	pea	#<L41+580
  3877 00:124E: 22 xx xx xx  	jsl	~~k_user_getFontClass
  Thu Dec  3 2020 22:25                                                Page 79


  3878 00:1252: 85 01        	sta	<R0
  3879 00:1254: 86 03        	stx	<R0+2
  3880 00:1256: DA           	phx
  3881 00:1257: 48           	pha
  3882 00:1258: F4 00 00     	pea	#0
  3883 00:125B: 18           	clc
  3884 00:125C: 7B           	tdc
  3885 00:125D: 69 1F 00     	adc	#<L43+rect_1
  3886 00:1260: 48           	pha
  3887 00:1261: 22 xx xx xx  	jsl	~~k_getUIGadgetColor
  3888 00:1265: 48           	pha
  3889 00:1266: F4 xx xx     	pea	#^L41+578
  3890 00:1269: F4 xx xx     	pea	#<L41+578
  3891 00:126C: D4 17        	pei	<L43+pWin_1+2
  3892 00:126E: D4 15        	pei	<L43+pWin_1
  3893 00:1270: 22 xx xx xx  	jsl	~~k_getHandleFromWindow
  3894 00:1274: 85 05        	sta	<R1
  3895 00:1276: 86 07        	stx	<R1+2
  3896 00:1278: DA           	phx
  3897 00:1279: 48           	pha
  3898 00:127A: 22 xx xx xx  	jsl	~~k_user_DrawWindowTextToPointWithFont
  3899                        ;
  3900                        ;
  3901                        ;			/*
  3902                        ;			rect.x = (pWin->win_width/2) - (
                    FONTW/2);
  3903                        ;			rect.y = 1;
  3904                        ;			k_user_DrawWindowTextToPointWith
                    Font(k_getHandleFromWindow(pWin),"\xAF",k_getUIMenuColor(),&
                    rect,(LPCSTR)k_user_getFontClass("FXOS8x8"));
  3905                        ;			k_user_DrawWindowTextToPointWith
                    Font(k_getHandleFromWindow(pWin),"\xBD",k_getUIGadgetColor()
                    ,&rect,(LPCSTR)k_user_getFontClass("FXOS8x8"));
  3906                        ;			*/
  3907                        ;			/*
  3908                        ;			if(pButton->pCaption)
  3909                        ;			{
  3910                        ;				//k_debug_strings("butto
                    nWindowProc::CTL_CMD_CAPTION:", (LPCHAR)pButton->pCaption );
  3911                        ;
  3912                        ;				k_vdraw_ui_window(pWin,F
                    XWS_BORDER | FXWS_VISIBLE,
  3913                        ;							
                    	  pWin->win_x ,pWin->win_y,
  3914                        ;							
                    	  pWin->win_height,pWin->win_width,
  3915                        ;							
                    	  pWin->win_title,
  3916                        ;							
                    	  k_getUIGadgetColor(), k_getUIMenuColor());
  3917                        ;
  3918                        ;				size = strlen(pButton->p
                    Caption) * FONTW;
  3919                        ;				k_draw_text_point(pButto
                    n->pCaption,
  3920                        ;						        
                      pWin->win_x + (pWin->win_width/2)  - (size/2),
  3921                        ;							
  Thu Dec  3 2020 22:25                                                Page 80


                    	  pWin->win_y + (pWin->win_height/2) - (4),k_getUIGadget
                    Color());
  3922                        ;			}
  3923                        ;			*/
  3924                        ;			//k_send_command_message(pWin->p
                    ParentWindow,FX_CONTROL_COMMAND,LOWORD((ULONG)pWin->hMenu),0
                    ,0L,0L);
  3925                        ;
  3926                        ;			k_send_command_message(pWin->pPa
                    rentWindow,FX_CONTROL_COMMAND,CTL_BUTTON_SELECTED,LOWORD((UL
                    ONG)pWin->hMenu),0L,0L);
  3927                        	.line	620
  3928 00:127E: F4 00 00     	pea	#^$0
  3929 00:1281: F4 00 00     	pea	#<$0
  3930 00:1284: F4 00 00     	pea	#^$0
  3931 00:1287: F4 00 00     	pea	#<$0
  3932 00:128A: A0 34 01     	ldy	#$134
  3933 00:128D: B7 15        	lda	[<L43+pWin_1],Y
  3934 00:128F: 48           	pha
  3935 00:1290: F4 02 00     	pea	#<$2
  3936 00:1293: F4 00 FA     	pea	#<$fa00
  3937 00:1296: A0 32 01     	ldy	#$132
  3938 00:1299: B7 15        	lda	[<L43+pWin_1],Y
  3939 00:129B: 48           	pha
  3940 00:129C: A0 30 01     	ldy	#$130
  3941 00:129F: B7 15        	lda	[<L43+pWin_1],Y
  3942 00:12A1: 48           	pha
  3943 00:12A2: 22 xx xx xx  	jsl	~~k_send_command_message
  3944                        ;
  3945                        ;			break;
  3946                        	.line	622
  3947 00:12A6: 82 4B 01     	brl	L10042
  3948                        ;		case FX_MOUSE_ENTER:
  3949                        	.line	623
  3950                        L10057:
  3951                        ;			k_debug_string("hscrollbarWindow
                    Proc::FX_MOUSE_ENTER\r\n");
  3952                        	.line	624
  3953 00:12A9: F4 xx xx     	pea	#^L41+588
  3954 00:12AC: F4 xx xx     	pea	#<L41+588
  3955 00:12AF: 22 xx xx xx  	jsl	~~k_debug_string
  3956                        ;
  3957                        ;			break;
  3958                        	.line	626
  3959 00:12B3: 82 3E 01     	brl	L10042
  3960                        ;		case FX_MOUSE_EXIT:
  3961                        	.line	627
  3962                        L10058:
  3963                        ;			k_debug_string("hscrollbarWindow
                    Proc::FX_MOUSE_EXIT\r\n");
  3964                        	.line	628
  3965 00:12B6: F4 xx xx     	pea	#^L41+627
  3966 00:12B9: F4 xx xx     	pea	#<L41+627
  3967 00:12BC: 22 xx xx xx  	jsl	~~k_debug_string
  3968                        ;
  3969                        ;			rect.x = 0;
  3970                        	.line	630
  3971 00:12C0: 64 1F        	stz	<L43+rect_1
  Thu Dec  3 2020 22:25                                                Page 81


  3972                        ;			rect.y = 1;
  3973                        	.line	631
  3974 00:12C2: A9 01 00     	lda	#$1
  3975 00:12C5: 85 21        	sta	<L43+rect_1+2
  3976                        ;			k_user_DrawWindowTextToPointWith
                    Font(k_getHandleFromWindow(pWin),"\xAF",k_getUIMenuColor(),&
                    rect,(LPCSTR)k_user_getFontClass("FXOS8x8"));
  3977                        	.line	632
  3978 00:12C7: F4 xx xx     	pea	#^L41+667
  3979 00:12CA: F4 xx xx     	pea	#<L41+667
  3980 00:12CD: 22 xx xx xx  	jsl	~~k_user_getFontClass
  3981 00:12D1: 85 01        	sta	<R0
  3982 00:12D3: 86 03        	stx	<R0+2
  3983 00:12D5: DA           	phx
  3984 00:12D6: 48           	pha
  3985 00:12D7: F4 00 00     	pea	#0
  3986 00:12DA: 18           	clc
  3987 00:12DB: 7B           	tdc
  3988 00:12DC: 69 1F 00     	adc	#<L43+rect_1
  3989 00:12DF: 48           	pha
  3990 00:12E0: 22 xx xx xx  	jsl	~~k_getUIMenuColor
  3991 00:12E4: 48           	pha
  3992 00:12E5: F4 xx xx     	pea	#^L41+665
  3993 00:12E8: F4 xx xx     	pea	#<L41+665
  3994 00:12EB: D4 17        	pei	<L43+pWin_1+2
  3995 00:12ED: D4 15        	pei	<L43+pWin_1
  3996 00:12EF: 22 xx xx xx  	jsl	~~k_getHandleFromWindow
  3997 00:12F3: 85 05        	sta	<R1
  3998 00:12F5: 86 07        	stx	<R1+2
  3999 00:12F7: DA           	phx
  4000 00:12F8: 48           	pha
  4001 00:12F9: 22 xx xx xx  	jsl	~~k_user_DrawWindowTextToPointWithFont
  4002                        ;			k_user_DrawWindowTextToPointWith
                    Font(k_getHandleFromWindow(pWin),"\x9B",k_getUIGadgetColor()
                    ,&rect,(LPCSTR)k_user_getFontClass("FXOS8x8"));
  4003                        	.line	633
  4004 00:12FD: F4 xx xx     	pea	#^L41+677
  4005 00:1300: F4 xx xx     	pea	#<L41+677
  4006 00:1303: 22 xx xx xx  	jsl	~~k_user_getFontClass
  4007 00:1307: 85 01        	sta	<R0
  4008 00:1309: 86 03        	stx	<R0+2
  4009 00:130B: DA           	phx
  4010 00:130C: 48           	pha
  4011 00:130D: F4 00 00     	pea	#0
  4012 00:1310: 18           	clc
  4013 00:1311: 7B           	tdc
  4014 00:1312: 69 1F 00     	adc	#<L43+rect_1
  4015 00:1315: 48           	pha
  4016 00:1316: 22 xx xx xx  	jsl	~~k_getUIGadgetColor
  4017 00:131A: 48           	pha
  4018 00:131B: F4 xx xx     	pea	#^L41+675
  4019 00:131E: F4 xx xx     	pea	#<L41+675
  4020 00:1321: D4 17        	pei	<L43+pWin_1+2
  4021 00:1323: D4 15        	pei	<L43+pWin_1
  4022 00:1325: 22 xx xx xx  	jsl	~~k_getHandleFromWindow
  4023 00:1329: 85 05        	sta	<R1
  4024 00:132B: 86 07        	stx	<R1+2
  4025 00:132D: DA           	phx
  Thu Dec  3 2020 22:25                                                Page 82


  4026 00:132E: 48           	pha
  4027 00:132F: 22 xx xx xx  	jsl	~~k_user_DrawWindowTextToPointWithFont
  4028                        ;
  4029                        ;			rect.x = pWin->win_width - FONTW
                     - 1;
  4030                        	.line	635
  4031 00:1333: 22 xx xx xx  	jsl	~~k_font_getFontWidth
  4032 00:1337: 85 01        	sta	<R0
  4033 00:1339: 38           	sec
  4034 00:133A: A0 0C 00     	ldy	#$c
  4035 00:133D: B7 15        	lda	[<L43+pWin_1],Y
  4036 00:133F: E5 01        	sbc	<R0
  4037 00:1341: 85 05        	sta	<R1
  4038 00:1343: 18           	clc
  4039 00:1344: A9 FF FF     	lda	#$ffff
  4040 00:1347: 65 05        	adc	<R1
  4041 00:1349: 85 1F        	sta	<L43+rect_1
  4042                        ;			rect.y = 1;
  4043                        	.line	636
  4044 00:134B: A9 01 00     	lda	#$1
  4045 00:134E: 85 21        	sta	<L43+rect_1+2
  4046                        ;			k_user_DrawWindowTextToPointWith
                    Font(k_getHandleFromWindow(pWin),"\xAF",k_getUIMenuColor(),&
                    rect,(LPCSTR)k_user_getFontClass("FXOS8x8"));
  4047                        	.line	637
  4048 00:1350: F4 xx xx     	pea	#^L41+687
  4049 00:1353: F4 xx xx     	pea	#<L41+687
  4050 00:1356: 22 xx xx xx  	jsl	~~k_user_getFontClass
  4051 00:135A: 85 01        	sta	<R0
  4052 00:135C: 86 03        	stx	<R0+2
  4053 00:135E: DA           	phx
  4054 00:135F: 48           	pha
  4055 00:1360: F4 00 00     	pea	#0
  4056 00:1363: 18           	clc
  4057 00:1364: 7B           	tdc
  4058 00:1365: 69 1F 00     	adc	#<L43+rect_1
  4059 00:1368: 48           	pha
  4060 00:1369: 22 xx xx xx  	jsl	~~k_getUIMenuColor
  4061 00:136D: 48           	pha
  4062 00:136E: F4 xx xx     	pea	#^L41+685
  4063 00:1371: F4 xx xx     	pea	#<L41+685
  4064 00:1374: D4 17        	pei	<L43+pWin_1+2
  4065 00:1376: D4 15        	pei	<L43+pWin_1
  4066 00:1378: 22 xx xx xx  	jsl	~~k_getHandleFromWindow
  4067 00:137C: 85 05        	sta	<R1
  4068 00:137E: 86 07        	stx	<R1+2
  4069 00:1380: DA           	phx
  4070 00:1381: 48           	pha
  4071 00:1382: 22 xx xx xx  	jsl	~~k_user_DrawWindowTextToPointWithFont
  4072                        ;			k_user_DrawWindowTextToPointWith
                    Font(k_getHandleFromWindow(pWin),"\x9C",k_getUIGadgetColor()
                    ,&rect,(LPCSTR)k_user_getFontClass("FXOS8x8"));
  4073                        	.line	638
  4074 00:1386: F4 xx xx     	pea	#^L41+697
  4075 00:1389: F4 xx xx     	pea	#<L41+697
  4076 00:138C: 22 xx xx xx  	jsl	~~k_user_getFontClass
  4077 00:1390: 85 01        	sta	<R0
  4078 00:1392: 86 03        	stx	<R0+2
  Thu Dec  3 2020 22:25                                                Page 83


  4079 00:1394: DA           	phx
  4080 00:1395: 48           	pha
  4081 00:1396: F4 00 00     	pea	#0
  4082 00:1399: 18           	clc
  4083 00:139A: 7B           	tdc
  4084 00:139B: 69 1F 00     	adc	#<L43+rect_1
  4085 00:139E: 48           	pha
  4086 00:139F: 22 xx xx xx  	jsl	~~k_getUIGadgetColor
  4087 00:13A3: 48           	pha
  4088 00:13A4: F4 xx xx     	pea	#^L41+695
  4089 00:13A7: F4 xx xx     	pea	#<L41+695
  4090 00:13AA: D4 17        	pei	<L43+pWin_1+2
  4091 00:13AC: D4 15        	pei	<L43+pWin_1
  4092 00:13AE: 22 xx xx xx  	jsl	~~k_getHandleFromWindow
  4093 00:13B2: 85 05        	sta	<R1
  4094 00:13B4: 86 07        	stx	<R1+2
  4095 00:13B6: DA           	phx
  4096 00:13B7: 48           	pha
  4097 00:13B8: 22 xx xx xx  	jsl	~~k_user_DrawWindowTextToPointWithFont
  4098                        ;
  4099                        ;
  4100                        ;
  4101                        ;			break;
  4102                        	.line	642
  4103 00:13BC: 82 35 00     	brl	L10042
  4104                        ;		case FX_MOUSE_MOVE:
  4105                        	.line	643
  4106                        L10059:
  4107                        ;
  4108                        ;			/*
  4109                        ;		    cy = *((INT*)&pMsg->data[3]) - pWin-
                    >win_y;
  4110                        ;			cx = *((INT*)&pMsg->data[1]) - p
                    Win->win_x;
  4111                        ;
  4112                        ;			if(cx > 0 &&  cx < FONTW)
  4113                        ;			{
  4114                        ;				k_debug_integer("hscroll
                    barWindowProc::LEFT ARROW:",cx);
  4115                        ;			}
  4116                        ;			if(cx > (pWin->win_width - FONTW
                    ) &&  cx < (pWin->win_width))
  4117                        ;			{
  4118                        ;				k_debug_integer("hscroll
                    barWindowProc::RIGHT ARROW:",cx);
  4119                        ;			}
  4120                        ;			*/
  4121                        ;
  4122                        ;			break;
  4123                        	.line	659
  4124 00:13BF: 82 32 00     	brl	L10042
  4125                        ;		case FX_CONTROL_COMMAND:
  4126                        	.line	660
  4127                        L10060:
  4128                        ;			//k_debug_string("buttonWindowPr
                    oc::FX_CONTROL_COMMAND\r\n");
  4129                        ;
  4130                        ;
  Thu Dec  3 2020 22:25                                                Page 84


  4131                        ;			/*
  4132                        ;			if( ((PFXCMDMESSAGE)pMsg)->cmdCI
                    d == CTL_CMD_CAPTION )
  4133                        ;			{
  4134                        ;				pButton->pCaption = (LPC
                    HAR)((PFXCMDMESSAGE)pMsg)->parameter1;
  4135                        ;
  4136                        ;				if(pButton->pCaption)
  4137                        ;				{
  4138                        ;					//k_debug_string
                    s("buttonWindowProc::CTL_CMD_CAPTION:", (LPCHAR)pButton->pCa
                    ption );
  4139                        ;
  4140                        ;					size = strlen(pB
                    utton->pCaption) * FONTW;
  4141                        ;					k_draw_text_poin
                    t(pButton->pCaption,
  4142                        ;							
                              pWin->win_x + (pWin->win_width/2)  - (size/2),
  4143                        ;							
                    		  pWin->win_y + (pWin->win_height/2) - (4),k_get
                    UIGadgetColor());
  4144                        ;				}
  4145                        ;			}
  4146                        ;			*/
  4147                        ;			break;
  4148                        	.line	680
  4149 00:13C2: 82 2F 00     	brl	L10042
  4150                        ;		default:
  4151                        	.line	681
  4152                        L10061:
  4153                        ;			break;
  4154                        	.line	682
  4155 00:13C5: 82 2C 00     	brl	L10042
  4156                        ;		}
  4157                        	.line	683
  4158                        L10041:
  4159                        	xref	~~~swt
  4160 00:13C8: 22 xx xx xx  	jsl	~~~swt
  4161 00:13CC: 09 00        	dw	9
  4162 00:13CE: 01 0F        	dw	3841
  4163 00:13D0: xx xx        	dw	L10057-1
  4164 00:13D2: 02 0F        	dw	3842
  4165 00:13D4: xx xx        	dw	L10058-1
  4166 00:13D6: 03 0F        	dw	3843
  4167 00:13D8: xx xx        	dw	L10059-1
  4168 00:13DA: 04 0F        	dw	3844
  4169 00:13DC: xx xx        	dw	L10047-1
  4170 00:13DE: 06 0F        	dw	3846
  4171 00:13E0: xx xx        	dw	L10056-1
  4172 00:13E2: 00 FA        	dw	64000
  4173 00:13E4: xx xx        	dw	L10060-1
  4174 00:13E6: 00 FB        	dw	64256
  4175 00:13E8: xx xx        	dw	L10044-1
  4176 00:13EA: 07 FB        	dw	64263
  4177 00:13EC: xx xx        	dw	L10046-1
  4178 00:13EE: 03 FF        	dw	65283
  4179 00:13F0: xx xx        	dw	L10043-1
  Thu Dec  3 2020 22:25                                                Page 85


  4180 00:13F2: xx xx        	dw	L10061-1
  4181                        L10042:
  4182                        ;	}
  4183                        	.line	684
  4184                        ;
  4185                        ;	return TRUE;
  4186                        L10040:
  4187                        	.line	686
  4188 00:13F4: A9 01 00     	lda	#$1
  4189                        L58:
  4190 00:13F7: A8           	tay
  4191 00:13F8: A5 2C        	lda	<L42+2
  4192 00:13FA: 85 30        	sta	<L42+2+4
  4193 00:13FC: A5 2B        	lda	<L42+1
  4194 00:13FE: 85 2F        	sta	<L42+1+4
  4195 00:1400: 2B           	pld
  4196 00:1401: 3B           	tsc
  4197 00:1402: 18           	clc
  4198 00:1403: 69 2E 00     	adc	#L42+4
  4199 00:1406: 1B           	tcs
  4200 00:1407: 98           	tya
  4201 00:1408: 6B           	rtl
  4202                        ;
  4203                        ;}
  4204                        	.line	688
  4205                        	.endblock	688
  4206             0000002A   L42	equ	42
  4207             00000011   L43	equ	17
  4208                        	ends
  4209                        	efunc
  4210                        	.endfunc	688,17,42
  4211                        	.line	688
  4212                        	data
  4213                        L41:
  4214 00:03DA: 68 73 63 72  	db	$68,$73,$63,$72,$6F,$6C,$6C,$62,$61,$72,
                    $57,$69,$6E,$64,$6F
       00:03DE: 6F 6C 6C 62 
       00:03E2: 61 72 57 69 
       00:03E6: 6E 64 6F 
  4215 00:03E9: 77 50 72 6F  	db	$77,$50,$72,$6F,$63,$3A,$3A,$73,$74,$6F,
                    $70,$73,$69,$7A,$65
       00:03ED: 63 3A 3A 73 
       00:03F1: 74 6F 70 73 
       00:03F5: 69 7A 65 
  4216 00:03F8: 3A 00 68 73  	db	$3A,$00,$68,$73,$63,$72,$6F,$6C,$6C,$62,
                    $61,$72,$57,$69,$6E
       00:03FC: 63 72 6F 6C 
       00:0400: 6C 62 61 72 
       00:0404: 57 69 6E 
  4217 00:0407: 64 6F 77 50  	db	$64,$6F,$77,$50,$72,$6F,$63,$3A,$3A,$46,
                    $58,$5F,$44,$52,$41
       00:040B: 72 6F 63 3A 
       00:040F: 3A 46 58 5F 
       00:0413: 44 52 41 
  4218 00:0416: 57 5F 57 49  	db	$57,$5F,$57,$49,$4E,$44,$4F,$57,$3A,$00,
                    $FFFFFFAF,$00,$46,$58,$4F
       00:041A: 4E 44 4F 57 
       00:041E: 3A 00 AF 00 
  Thu Dec  3 2020 22:25                                                Page 86


       00:0422: 46 58 4F 
  4219 00:0425: 53 38 78 38  	db	$53,$38,$78,$38,$00,$FFFFFF9B,$00,$46,$5
                    8,$4F,$53,$38,$78,$38,$00
       00:0429: 00 9B 00 46 
       00:042D: 58 4F 53 38 
       00:0431: 78 38 00 
  4220 00:0434: AF 00 46 58  	db	$AF,$00,$46,$58,$4F,$53,$38,$78,$38,$00,
                    $FFFFFF9C,$00,$46,$58,$4F
       00:0438: 4F 53 38 78 
       00:043C: 38 00 9C 00 
       00:0440: 46 58 4F 
  4221 00:0443: 53 38 78 38  	db	$53,$38,$78,$38,$00,$FFFFFFBD,$00,$46,$5
                    8,$4F,$53,$38,$78,$38,$00
       00:0447: 00 BD 00 46 
       00:044B: 58 4F 53 38 
       00:044F: 78 38 00 
  4222 00:0452: 68 73 63 72  	db	$68,$73,$63,$72,$6F,$6C,$6C,$62,$61,$72,
                    $57,$69,$6E,$64,$6F
       00:0456: 6F 6C 6C 62 
       00:045A: 61 72 57 69 
       00:045E: 6E 64 6F 
  4223 00:0461: 77 50 72 6F  	db	$77,$50,$72,$6F,$63,$3A,$3A,$46,$58,$5F,
                    $52,$45,$44,$52,$41
       00:0465: 63 3A 3A 46 
       00:0469: 58 5F 52 45 
       00:046D: 44 52 41 
  4224 00:0470: 57 5F 57 49  	db	$57,$5F,$57,$49,$4E,$44,$4F,$57,$0D,$0A,
                    $00,$68,$73,$63,$72
       00:0474: 4E 44 4F 57 
       00:0478: 0D 0A 00 68 
       00:047C: 73 63 72 
  4225 00:047F: 6F 6C 6C 62  	db	$6F,$6C,$6C,$62,$61,$72,$57,$69,$6E,$64,
                    $6F,$77,$50,$72,$6F
       00:0483: 61 72 57 69 
       00:0487: 6E 64 6F 77 
       00:048B: 50 72 6F 
  4226 00:048E: 63 3A 3A 46  	db	$63,$3A,$3A,$46,$58,$5F,$4C,$42,$55,$54,
                    $54,$4F,$4E,$5F,$44
       00:0492: 58 5F 4C 42 
       00:0496: 55 54 54 4F 
       00:049A: 4E 5F 44 
  4227 00:049D: 4F 57 4E 0D  	db	$4F,$57,$4E,$0D,$0A,$00,$68,$73,$63,$72,
                    $6F,$6C,$6C,$62,$61
       00:04A1: 0A 00 68 73 
       00:04A5: 63 72 6F 6C 
       00:04A9: 6C 62 61 
  4228 00:04AC: 72 57 69 6E  	db	$72,$57,$69,$6E,$64,$6F,$77,$50,$72,$6F,
                    $63,$3A,$3A,$4C,$45
       00:04B0: 64 6F 77 50 
       00:04B4: 72 6F 63 3A 
       00:04B8: 3A 4C 45 
  4229 00:04BB: 46 54 20 41  	db	$46,$54,$20,$41,$52,$52,$4F,$57,$3A,$00,
                    $FFFFFFAF,$00,$46,$58,$4F
       00:04BF: 52 52 4F 57 
       00:04C3: 3A 00 AF 00 
       00:04C7: 46 58 4F 
  4230 00:04CA: 53 38 78 38  	db	$53,$38,$78,$38,$00,$FFFFFFB0,$00,$46,$5
                    8,$4F,$53,$38,$78,$38,$00
  Thu Dec  3 2020 22:25                                                Page 87


       00:04CE: 00 B0 00 46 
       00:04D2: 58 4F 53 38 
       00:04D6: 78 38 00 
  4231 00:04D9: 68 73 63 72  	db	$68,$73,$63,$72,$6F,$6C,$6C,$62,$61,$72,
                    $57,$69,$6E,$64,$6F
       00:04DD: 6F 6C 6C 62 
       00:04E1: 61 72 57 69 
       00:04E5: 6E 64 6F 
  4232 00:04E8: 77 50 72 6F  	db	$77,$50,$72,$6F,$63,$3A,$3A,$52,$49,$47,
                    $48,$54,$20,$41,$52
       00:04EC: 63 3A 3A 52 
       00:04F0: 49 47 48 54 
       00:04F4: 20 41 52 
  4233 00:04F7: 52 4F 57 3A  	db	$52,$4F,$57,$3A,$00,$FFFFFFAF,$00,$46,$5
                    8,$4F,$53,$38,$78,$38,$00
       00:04FB: 00 AF 00 46 
       00:04FF: 58 4F 53 38 
       00:0503: 78 38 00 
  4234 00:0506: B1 00 46 58  	db	$B1,$00,$46,$58,$4F,$53,$38,$78,$38,$00,
                    $FFFFFFAF,$00,$46,$58,$4F
       00:050A: 4F 53 38 78 
       00:050E: 38 00 AF 00 
       00:0512: 46 58 4F 
  4235 00:0515: 53 38 78 38  	db	$53,$38,$78,$38,$00,$68,$73,$63,$72,$6F,
                    $6C,$6C,$62,$61,$72
       00:0519: 00 68 73 63 
       00:051D: 72 6F 6C 6C 
       00:0521: 62 61 72 
  4236 00:0524: 57 69 6E 64  	db	$57,$69,$6E,$64,$6F,$77,$50,$72,$6F,$63,
                    $3A,$3A,$70,$57,$69
       00:0528: 6F 77 50 72 
       00:052C: 6F 63 3A 3A 
       00:0530: 70 57 69 
  4237 00:0533: 6E 2D 3E 77  	db	$6E,$2D,$3E,$77,$69,$6E,$5F,$77,$69,$64,
                    $74,$68,$3A,$00,$68
       00:0537: 69 6E 5F 77 
       00:053B: 69 64 74 68 
       00:053F: 3A 00 68 
  4238 00:0542: 73 63 72 6F  	db	$73,$63,$72,$6F,$6C,$6C,$62,$61,$72,$57,
                    $69,$6E,$64,$6F,$77
       00:0546: 6C 6C 62 61 
       00:054A: 72 57 69 6E 
       00:054E: 64 6F 77 
  4239 00:0551: 50 72 6F 63  	db	$50,$72,$6F,$63,$3A,$3A,$73,$63,$72,$6F,
                    $6C,$6C,$62,$61,$72
       00:0555: 3A 3A 73 63 
       00:0559: 72 6F 6C 6C 
       00:055D: 62 61 72 
  4240 00:0560: 2D 3E 72 65  	db	$2D,$3E,$72,$65,$63,$74,$54,$68,$75,$6D,
                    $62,$2E,$78,$3A,$00
       00:0564: 63 74 54 68 
       00:0568: 75 6D 62 2E 
       00:056C: 78 3A 00 
  4241 00:056F: 68 73 63 72  	db	$68,$73,$63,$72,$6F,$6C,$6C,$62,$61,$72,
                    $57,$69,$6E,$64,$6F
       00:0573: 6F 6C 6C 62 
       00:0577: 61 72 57 69 
       00:057B: 6E 64 6F 
  Thu Dec  3 2020 22:25                                                Page 88


  4242 00:057E: 77 50 72 6F  	db	$77,$50,$72,$6F,$63,$3A,$3A,$6C,$6F,$63,
                    $61,$74,$69,$6F,$6E
       00:0582: 63 3A 3A 6C 
       00:0586: 6F 63 61 74 
       00:058A: 69 6F 6E 
  4243 00:058D: 3A 00 68 73  	db	$3A,$00,$68,$73,$63,$72,$6F,$6C,$6C,$62,
                    $61,$72,$57,$69,$6E
       00:0591: 63 72 6F 6C 
       00:0595: 6C 62 61 72 
       00:0599: 57 69 6E 
  4244 00:059C: 64 6F 77 50  	db	$64,$6F,$77,$50,$72,$6F,$63,$3A,$3A,$69,
                    $6E,$63,$72,$65,$6D
       00:05A0: 72 6F 63 3A 
       00:05A4: 3A 69 6E 63 
       00:05A8: 72 65 6D 
  4245 00:05AB: 65 6E 74 3A  	db	$65,$6E,$74,$3A,$00,$68,$73,$63,$72,$6F,
                    $6C,$6C,$62,$61,$72
       00:05AF: 00 68 73 63 
       00:05B3: 72 6F 6C 6C 
       00:05B7: 62 61 72 
  4246 00:05BA: 57 69 6E 64  	db	$57,$69,$6E,$64,$6F,$77,$50,$72,$6F,$63,
                    $3A,$3A,$6F,$66,$66
       00:05BE: 6F 77 50 72 
       00:05C2: 6F 63 3A 3A 
       00:05C6: 6F 66 66 
  4247 00:05C9: 73 65 74 3A  	db	$73,$65,$74,$3A,$00,$FFFFFFBD,$00,$46,$5
                    8,$4F,$53,$38,$78,$38,$00
       00:05CD: 00 BD 00 46 
       00:05D1: 58 4F 53 38 
       00:05D5: 78 38 00 
  4248 00:05D8: 68 73 63 72  	db	$68,$73,$63,$72,$6F,$6C,$6C,$62,$61,$72,
                    $57,$69,$6E,$64,$6F
       00:05DC: 6F 6C 6C 62 
       00:05E0: 61 72 57 69 
       00:05E4: 6E 64 6F 
  4249 00:05E7: 77 50 72 6F  	db	$77,$50,$72,$6F,$63,$3A,$3A,$46,$58,$5F,
                    $4C,$42,$55,$54,$54
       00:05EB: 63 3A 3A 46 
       00:05EF: 58 5F 4C 42 
       00:05F3: 55 54 54 
  4250 00:05F6: 4F 4E 5F 55  	db	$4F,$4E,$5F,$55,$50,$0D,$0A,$00,$FFFFFFA
                    F,$00,$46,$58,$4F,$53,$38
       00:05FA: 50 0D 0A 00 
       00:05FE: AF 00 46 58 
       00:0602: 4F 53 38 
  4251 00:0605: 78 38 00 9B  	db	$78,$38,$00,$FFFFFF9B,$00,$46,$58,$4F,$5
                    3,$38,$78,$38,$00,$FFFFFFAF,$00
       00:0609: 00 46 58 4F 
       00:060D: 53 38 78 38 
       00:0611: 00 AF 00 
  4252 00:0614: 46 58 4F 53  	db	$46,$58,$4F,$53,$38,$78,$38,$00,$FFFFFF9
                    C,$00,$46,$58,$4F,$53,$38
       00:0618: 38 78 38 00 
       00:061C: 9C 00 46 58 
       00:0620: 4F 53 38 
  4253 00:0623: 78 38 00 68  	db	$78,$38,$00,$68,$73,$63,$72,$6F,$6C,$6C,
                    $62,$61,$72,$57,$69
       00:0627: 73 63 72 6F 
  Thu Dec  3 2020 22:25                                                Page 89


       00:062B: 6C 6C 62 61 
       00:062F: 72 57 69 
  4254 00:0632: 6E 64 6F 77  	db	$6E,$64,$6F,$77,$50,$72,$6F,$63,$3A,$3A,
                    $46,$58,$5F,$4D,$4F
       00:0636: 50 72 6F 63 
       00:063A: 3A 3A 46 58 
       00:063E: 5F 4D 4F 
  4255 00:0641: 55 53 45 5F  	db	$55,$53,$45,$5F,$45,$4E,$54,$45,$52,$0D,
                    $0A,$00,$68,$73,$63
       00:0645: 45 4E 54 45 
       00:0649: 52 0D 0A 00 
       00:064D: 68 73 63 
  4256 00:0650: 72 6F 6C 6C  	db	$72,$6F,$6C,$6C,$62,$61,$72,$57,$69,$6E,
                    $64,$6F,$77,$50,$72
       00:0654: 62 61 72 57 
       00:0658: 69 6E 64 6F 
       00:065C: 77 50 72 
  4257 00:065F: 6F 63 3A 3A  	db	$6F,$63,$3A,$3A,$46,$58,$5F,$4D,$4F,$55,
                    $53,$45,$5F,$45,$58
       00:0663: 46 58 5F 4D 
       00:0667: 4F 55 53 45 
       00:066B: 5F 45 58 
  4258 00:066E: 49 54 0D 0A  	db	$49,$54,$0D,$0A,$00,$FFFFFFAF,$00,$46,$5
                    8,$4F,$53,$38,$78,$38,$00
       00:0672: 00 AF 00 46 
       00:0676: 58 4F 53 38 
       00:067A: 78 38 00 
  4259 00:067D: 9B 00 46 58  	db	$9B,$00,$46,$58,$4F,$53,$38,$78,$38,$00,
                    $FFFFFFAF,$00,$46,$58,$4F
       00:0681: 4F 53 38 78 
       00:0685: 38 00 AF 00 
       00:0689: 46 58 4F 
  4260 00:068C: 53 38 78 38  	db	$53,$38,$78,$38,$00,$FFFFFF9C,$00,$46,$5
                    8,$4F,$53,$38,$78,$38,$00
       00:0690: 00 9C 00 46 
       00:0694: 58 4F 53 38 
       00:0698: 78 38 00 
  4261 00:069B:              	ends
  4262                        ;
  4263                        ;VOID processSBCommand(PWINDOW pWin, UINT cmdCId,U
                    INT cmdMId,ULONG parameter1)
  4264                        ;{
  4265                        	.line	690
  4266                        	.line	691
  4267                        	code
  4268                        	xdef	~~processSBCommand
  4269                        	func
  4270                        	.function	691
  4271                        ~~processSBCommand:
  4272                        	longa	on
  4273                        	longi	on
  4274 00:1409: 3B           	tsc
  4275 00:140A: 38           	sec
  4276 00:140B: E9 00 00     	sbc	#L60
  4277 00:140E: 1B           	tcs
  4278 00:140F: 0B           	phd
  4279 00:1410: 5B           	tcd
  4280             00000004   pWin_0	set	4
  Thu Dec  3 2020 22:25                                                Page 90


  4281             00000008   cmdCId_0	set	8
  4282             0000000A   cmdMId_0	set	10
  4283             0000000C   parameter1_0	set	12
  4284                        	.block	691
  4285                        ;	switch(cmdCId)
  4286                        	.sym	pWin,4,138,6,32,27
  4287                        	.sym	cmdCId,8,16,6,16
  4288                        	.sym	cmdMId,10,16,6,16
  4289                        	.sym	parameter1,12,18,6,32
  4290                        	.line	692
  4291 00:1411: A5 08        	lda	<L60+cmdCId_0
  4292 00:1413: 82 5E 00     	brl	L10062
  4293                        ;	{
  4294                        	.line	693
  4295                        ;	case CTL_SB_ADD_ITEM:
  4296                        	.line	694
  4297                        L10064:
  4298                        ;		k_debug_string("processSBCommand::CTL_SB
                    _ADD_ITEM\r\n");
  4299                        	.line	695
  4300 00:1416: F4 xx xx     	pea	#^L59
  4301 00:1419: F4 xx xx     	pea	#<L59
  4302 00:141C: 22 xx xx xx  	jsl	~~k_debug_string
  4303                        ;		break;
  4304                        	.line	696
  4305 00:1420: 82 69 00     	brl	L10063
  4306                        ;	case CTL_SB_ADD_ITEMS:
  4307                        	.line	697
  4308                        L10065:
  4309                        ;		k_debug_string("processSBCommand::CTL_SB
                    _ADD_ITEMS\r\n");
  4310                        	.line	698
  4311 00:1423: F4 xx xx     	pea	#^L59+36
  4312 00:1426: F4 xx xx     	pea	#<L59+36
  4313 00:1429: 22 xx xx xx  	jsl	~~k_debug_string
  4314                        ;		break;
  4315                        	.line	699
  4316 00:142D: 82 5C 00     	brl	L10063
  4317                        ;	case CTL_SB_REMOVE_ITEM:
  4318                        	.line	700
  4319                        L10066:
  4320                        ;		k_debug_string("processSBCommand::CTL_SB
                    _REMOVE_ITEM\r\n");
  4321                        	.line	701
  4322 00:1430: F4 xx xx     	pea	#^L59+73
  4323 00:1433: F4 xx xx     	pea	#<L59+73
  4324 00:1436: 22 xx xx xx  	jsl	~~k_debug_string
  4325                        ;		break;
  4326                        	.line	702
  4327 00:143A: 82 4F 00     	brl	L10063
  4328                        ;	case CTL_SB_CLEAR_ITEMS:
  4329                        	.line	703
  4330                        L10067:
  4331                        ;		k_debug_string("processSBCommand::CTL_SB
                    _CLEAR_ITEMS\r\n");
  4332                        	.line	704
  4333 00:143D: F4 xx xx     	pea	#^L59+112
  4334 00:1440: F4 xx xx     	pea	#<L59+112
  Thu Dec  3 2020 22:25                                                Page 91


  4335 00:1443: 22 xx xx xx  	jsl	~~k_debug_string
  4336                        ;		break;
  4337                        	.line	705
  4338 00:1447: 82 42 00     	brl	L10063
  4339                        ;	case CTL_SB_SET_MIN:
  4340                        	.line	706
  4341                        L10068:
  4342                        ;		k_debug_string("processSBCommand::CTL_SB
                    _SET_MIN\r\n");
  4343                        	.line	707
  4344 00:144A: F4 xx xx     	pea	#^L59+151
  4345 00:144D: F4 xx xx     	pea	#<L59+151
  4346 00:1450: 22 xx xx xx  	jsl	~~k_debug_string
  4347                        ;		break;
  4348                        	.line	708
  4349 00:1454: 82 35 00     	brl	L10063
  4350                        ;	case CTL_SB_SET_MAX:
  4351                        	.line	709
  4352                        L10069:
  4353                        ;		k_debug_string("processSBCommand::CTL_SB
                    _SET_MAX\r\n");
  4354                        	.line	710
  4355 00:1457: F4 xx xx     	pea	#^L59+186
  4356 00:145A: F4 xx xx     	pea	#<L59+186
  4357 00:145D: 22 xx xx xx  	jsl	~~k_debug_string
  4358                        ;		break;
  4359                        	.line	711
  4360 00:1461: 82 28 00     	brl	L10063
  4361                        ;	case CTL_SB_SET_INCREMENT:
  4362                        	.line	712
  4363                        L10070:
  4364                        ;		k_debug_string("processSBCommand::CTL_SB
                    _SET_INCREMENT\r\n");
  4365                        	.line	713
  4366 00:1464: F4 xx xx     	pea	#^L59+221
  4367 00:1467: F4 xx xx     	pea	#<L59+221
  4368 00:146A: 22 xx xx xx  	jsl	~~k_debug_string
  4369                        ;		break;
  4370                        	.line	714
  4371 00:146E: 82 1B 00     	brl	L10063
  4372                        ;	default:
  4373                        	.line	715
  4374                        L10071:
  4375                        ;		break;
  4376                        	.line	716
  4377 00:1471: 82 18 00     	brl	L10063
  4378                        ;	}
  4379                        	.line	717
  4380                        L10062:
  4381                        	xref	~~~fsw
  4382 00:1474: 22 xx xx xx  	jsl	~~~fsw
  4383 00:1478: 03 00        	dw	3
  4384 00:147A: 07 00        	dw	7
  4385 00:147C: xx xx        	dw	L10071-1
  4386 00:147E: xx xx        	dw	L10064-1
  4387 00:1480: xx xx        	dw	L10065-1
  4388 00:1482: xx xx        	dw	L10066-1
  4389 00:1484: xx xx        	dw	L10067-1
  Thu Dec  3 2020 22:25                                                Page 92


  4390 00:1486: xx xx        	dw	L10068-1
  4391 00:1488: xx xx        	dw	L10069-1
  4392 00:148A: xx xx        	dw	L10070-1
  4393                        L10063:
  4394                        ;
  4395                        ;	return;
  4396                        	.line	719
  4397                        L63:
  4398 00:148C: A5 02        	lda	<L60+2
  4399 00:148E: 85 0E        	sta	<L60+2+12
  4400 00:1490: A5 01        	lda	<L60+1
  4401 00:1492: 85 0D        	sta	<L60+1+12
  4402 00:1494: 2B           	pld
  4403 00:1495: 3B           	tsc
  4404 00:1496: 18           	clc
  4405 00:1497: 69 0C 00     	adc	#L60+12
  4406 00:149A: 1B           	tcs
  4407 00:149B: 6B           	rtl
  4408                        ;}
  4409                        	.line	720
  4410                        	.endblock	720
  4411             00000000   L60	equ	0
  4412             00000001   L61	equ	1
  4413                        	ends
  4414                        	efunc
  4415                        	.endfunc	720,1,0
  4416                        	.line	720
  4417                        	data
  4418                        L59:
  4419 00:069B: 70 72 6F 63  	db	$70,$72,$6F,$63,$65,$73,$73,$53,$42,$43,
                    $6F,$6D,$6D,$61,$6E
       00:069F: 65 73 73 53 
       00:06A3: 42 43 6F 6D 
       00:06A7: 6D 61 6E 
  4420 00:06AA: 64 3A 3A 43  	db	$64,$3A,$3A,$43,$54,$4C,$5F,$53,$42,$5F,
                    $41,$44,$44,$5F,$49
       00:06AE: 54 4C 5F 53 
       00:06B2: 42 5F 41 44 
       00:06B6: 44 5F 49 
  4421 00:06B9: 54 45 4D 0D  	db	$54,$45,$4D,$0D,$0A,$00,$70,$72,$6F,$63,
                    $65,$73,$73,$53,$42
       00:06BD: 0A 00 70 72 
       00:06C1: 6F 63 65 73 
       00:06C5: 73 53 42 
  4422 00:06C8: 43 6F 6D 6D  	db	$43,$6F,$6D,$6D,$61,$6E,$64,$3A,$3A,$43,
                    $54,$4C,$5F,$53,$42
       00:06CC: 61 6E 64 3A 
       00:06D0: 3A 43 54 4C 
       00:06D4: 5F 53 42 
  4423 00:06D7: 5F 41 44 44  	db	$5F,$41,$44,$44,$5F,$49,$54,$45,$4D,$53,
                    $0D,$0A,$00,$70,$72
       00:06DB: 5F 49 54 45 
       00:06DF: 4D 53 0D 0A 
       00:06E3: 00 70 72 
  4424 00:06E6: 6F 63 65 73  	db	$6F,$63,$65,$73,$73,$53,$42,$43,$6F,$6D,
                    $6D,$61,$6E,$64,$3A
       00:06EA: 73 53 42 43 
       00:06EE: 6F 6D 6D 61 
  Thu Dec  3 2020 22:25                                                Page 93


       00:06F2: 6E 64 3A 
  4425 00:06F5: 3A 43 54 4C  	db	$3A,$43,$54,$4C,$5F,$53,$42,$5F,$52,$45,
                    $4D,$4F,$56,$45,$5F
       00:06F9: 5F 53 42 5F 
       00:06FD: 52 45 4D 4F 
       00:0701: 56 45 5F 
  4426 00:0704: 49 54 45 4D  	db	$49,$54,$45,$4D,$0D,$0A,$00,$70,$72,$6F,
                    $63,$65,$73,$73,$53
       00:0708: 0D 0A 00 70 
       00:070C: 72 6F 63 65 
       00:0710: 73 73 53 
  4427 00:0713: 42 43 6F 6D  	db	$42,$43,$6F,$6D,$6D,$61,$6E,$64,$3A,$3A,
                    $43,$54,$4C,$5F,$53
       00:0717: 6D 61 6E 64 
       00:071B: 3A 3A 43 54 
       00:071F: 4C 5F 53 
  4428 00:0722: 42 5F 43 4C  	db	$42,$5F,$43,$4C,$45,$41,$52,$5F,$49,$54,
                    $45,$4D,$53,$0D,$0A
       00:0726: 45 41 52 5F 
       00:072A: 49 54 45 4D 
       00:072E: 53 0D 0A 
  4429 00:0731: 00 70 72 6F  	db	$00,$70,$72,$6F,$63,$65,$73,$73,$53,$42,
                    $43,$6F,$6D,$6D,$61
       00:0735: 63 65 73 73 
       00:0739: 53 42 43 6F 
       00:073D: 6D 6D 61 
  4430 00:0740: 6E 64 3A 3A  	db	$6E,$64,$3A,$3A,$43,$54,$4C,$5F,$53,$42,
                    $5F,$53,$45,$54,$5F
       00:0744: 43 54 4C 5F 
       00:0748: 53 42 5F 53 
       00:074C: 45 54 5F 
  4431 00:074F: 4D 49 4E 0D  	db	$4D,$49,$4E,$0D,$0A,$00,$70,$72,$6F,$63,
                    $65,$73,$73,$53,$42
       00:0753: 0A 00 70 72 
       00:0757: 6F 63 65 73 
       00:075B: 73 53 42 
  4432 00:075E: 43 6F 6D 6D  	db	$43,$6F,$6D,$6D,$61,$6E,$64,$3A,$3A,$43,
                    $54,$4C,$5F,$53,$42
       00:0762: 61 6E 64 3A 
       00:0766: 3A 43 54 4C 
       00:076A: 5F 53 42 
  4433 00:076D: 5F 53 45 54  	db	$5F,$53,$45,$54,$5F,$4D,$41,$58,$0D,$0A,
                    $00,$70,$72,$6F,$63
       00:0771: 5F 4D 41 58 
       00:0775: 0D 0A 00 70 
       00:0779: 72 6F 63 
  4434 00:077C: 65 73 73 53  	db	$65,$73,$73,$53,$42,$43,$6F,$6D,$6D,$61,
                    $6E,$64,$3A,$3A,$43
       00:0780: 42 43 6F 6D 
       00:0784: 6D 61 6E 64 
       00:0788: 3A 3A 43 
  4435 00:078B: 54 4C 5F 53  	db	$54,$4C,$5F,$53,$42,$5F,$53,$45,$54,$5F,
                    $49,$4E,$43,$52,$45
       00:078F: 42 5F 53 45 
       00:0793: 54 5F 49 4E 
       00:0797: 43 52 45 
  4436 00:079A: 4D 45 4E 54  	db	$4D,$45,$4E,$54,$0D,$0A,$00
       00:079E: 0D 0A 00 
  Thu Dec  3 2020 22:25                                                Page 94


  4437 00:07A1:              	ends
  4438                        ;
  4439                        	.line	720
  4440                        	.file	"G:\devprojects\c256Foenix\fxos\FXOSWork
                    space\FXOSv1\src\fx_ctl_scrollbar.c",690
  4441                        	xref	~~DefWindowProc
  4442                        	xref	~~k_user_DrawWindowTextToPointWithFont
  4443                        	xref	~~k_user_getFontClass
  4444                        	xref	~~k_user_CreateWindow
  4445                        	xref	~~k_user_getSystemMetric
  4446                        	xref	~~k_getHandleFromWindow
  4447                        	xref	~~k_getWindowFromHandle
  4448                        	xref	~~k_font_getFontWidth
  4449                        	xref	~~k_font_getFontHeight
  4450                        	xref	~~k_vdraw_ui_window
  4451                        	xref	~~k_getUIGadgetColor
  4452                        	xref	~~k_getUIMenuColor
  4453                        	xref	~~k_mem_allocate_heap
  4454                        	xref	~~k_send_command_message
  4455                        	xref	~~k_send_window_message
  4456                        	xref	~~k_exec_get_current_process
  4457                        	xref	~~k_debug_integer
  4458                        	xref	~~k_debug_pointer
  4459                        	xref	~~k_debug_string
  4460                        	.sym	~~k_user_CreateHorizontalScrollbar,~~k_u
                    ser_CreateHorizontalScrollbar,1098,2,32,27
  4461                        	.sym	~~processSBCommand,~~processSBCommand,65
                    ,2,0
  4462                        	.sym	PEACHCHILD_MSG,0,138,14,32,63
  4463                        	.sym	EACHCHILD_MSG,0,10,14,64,63
  4464                        	.sym	~~hscrollbarWindowProc,~~hscrollbarWindo
                    wProc,78,2,0
  4465                        	.sym	~~vscrollbarWindowProc,~~vscrollbarWindo
                    wProc,78,2,0
  4466                        	.sym	~~DefWindowProc,~~DefWindowProc,78,18,0
  4467                        	.sym	~~k_user_DrawWindowTextToPointWithFont,~
                    ~k_user_DrawWindowTextToPointWithFont,80,18,0
  4468                        	.sym	~~k_user_CreateVerticalScrollBar,~~k_use
                    r_CreateVerticalScrollBar,1098,2,32,27
  4469                        	.sym	~~k_user_getFontClass,~~k_user_getFontCl
                    ass,1089,18,32
  4470                        	.sym	~~k_user_CreateWindow,~~k_user_CreateWin
                    dow,1098,18,32,27
  4471                        	.sym	~~k_user_getSystemMetric,~~k_user_getSys
                    temMetric,69,18,0
  4472                        	.sym	~~k_getHandleFromWindow,~~k_getHandleFro
                    mWindow,1089,18,32
  4473                        	.sym	~~k_getWindowFromHandle,~~k_getWindowFro
                    mHandle,1098,18,32,27
  4474                        	.sym	~~k_font_getFontWidth,~~k_font_getFontWi
                    dth,80,18,0
  4475                        	.sym	~~k_font_getFontHeight,~~k_font_getFontH
                    eight,80,18,0
  4476                        	.sym	~~k_vdraw_ui_window,~~k_vdraw_ui_window,
                    65,18,0
  4477                        	.sym	~~k_getUIGadgetColor,~~k_getUIGadgetColo
                    r,69,18,0
  4478                        	.sym	~~k_getUIMenuColor,~~k_getUIMenuColor,69
  Thu Dec  3 2020 22:25                                                Page 95


                    ,18,0
  4479                        	.sym	PCUR_PALETTE_MAP,0,138,14,32,62
  4480                        	.sym	CUR_PALETTE_MAP,0,10,14,400,62
  4481                        	.sym	PCLICKDETECTED,0,138,14,32,61
  4482                        	.sym	CLICKDETECTED,0,10,14,64,61
  4483                        	.sym	OBJECTCLICKED,0,641,14,32
  4484                        	.sym	~~k_mem_allocate_heap,~~k_mem_allocate_h
                    eap,1089,18,32
  4485                        	.sym	MemoryCallback,0,641,14,32
  4486                        	.sym	PFXMEMORYMAP,0,138,14,32,60
  4487                        	.sym	FXMEMORYMAP,0,10,14,2072,60
  4488                        	.sym	UMM_HEAP_INFO,0,10,14,256,59
  4489                        	.sym	PCOMMANDARGS,0,138,14,32,58
  4490                        	.sym	COMMANDARGS,0,10,14,64,58
  4491                        	.sym	PTOKENIZESTATE,0,133,14,32
  4492                        	.sym	TOKENIZESTATE,0,5,14,16
  4493                        	.sym	PTOKEN,0,138,14,32,57
  4494                        	.sym	TOKEN,0,10,14,64,57
  4495                        	.sym	PTOKENTYPE,0,133,14,32
  4496                        	.sym	TOKENTYPE,0,5,14,16
  4497                        	.sym	FXCommandHandler,0,656,14,32
  4498                        	.sym	PCONSOLECTX,0,138,14,32,56
  4499                        	.sym	CONSOLECTX,0,10,14,1144,56
  4500                        	.sym	PSPINNERCTX,0,138,14,32,55
  4501                        	.sym	SPINNERCTX,0,10,14,48,55
  4502                        	.sym	~~k_send_command_message,~~k_send_comman
                    d_message,78,18,0
  4503                        	.sym	~~k_send_window_message,~~k_send_window_
                    message,78,18,0
  4504                        	.sym	PMOUSE_MSG_STATE,0,138,14,32,54
  4505                        	.sym	MOUSE_MSG_STATE,0,10,14,184,54
  4506                        	.sym	PFXEVENTPROCESS,0,138,14,32,53
  4507                        	.sym	FXEVENTPROCESS,0,10,14,64,53
  4508                        	.sym	FXEventProc,0,641,14,32
  4509                        	.sym	PMOUSEMSGDATA,0,138,14,32,52
  4510                        	.sym	MOUSEMSGDATA,0,10,14,64,52
  4511                        	.sym	MSGIRQ,0,5,14,16
  4512                        	.sym	MAINLOOPARGS,0,10,14,16,51
  4513                        	.sym	~~k_exec_get_current_process,~~k_exec_ge
                    t_current_process,1098,18,32,17
  4514                        	.sym	PFXSTRING,0,138,14,32,50
  4515                        	.sym	FXSTRING,0,10,14,64,50
  4516                        	.sym	DEVICEDRIVER_COMMAND,0,656,14,32
  4517                        	.sym	DEVICEDRIVER_UNLOAD,0,654,14,32
  4518                        	.sym	DEVICEDRIVER_WRITE,0,656,14,32
  4519                        	.sym	DEVICEDRIVER_READ,0,656,14,32
  4520                        	.sym	DEVICEDRIVER_LOAD,0,654,14,32
  4521                        	.sym	PFX_BLOCK_DEVICE_DRIVER,0,138,14,32,49
  4522                        	.sym	FX_BLOCK_DEVICE_DRIVER,0,10,14,1448,49
  4523                        	.sym	PFX_DEVICE_DRIVER,0,138,14,32,48
  4524                        	.sym	FX_DEVICE_DRIVER,0,10,14,1416,48
  4525                        	.sym	~~k_debug_integer,~~k_debug_integer,65,1
                    8,0
  4526                        	.sym	~~k_debug_pointer,~~k_debug_pointer,65,1
                    8,0
  4527                        	.sym	~~k_debug_string,~~k_debug_string,65,18,
                    0
  4528                        	.sym	PDEBUGBYTEBITS,0,138,14,32,47
  Thu Dec  3 2020 22:25                                                Page 96


  4529                        	.sym	DEBUGBYTEBITS,0,10,14,8,47
  4530                        	.sym	PFXENVIRONMENT,0,138,14,32,46
  4531                        	.sym	FXENVIRONMENT,0,10,14,96,46
  4532                        	.sym	PFXZERPOPAGE,0,138,14,32,45
  4533                        	.sym	FXZERPOPAGE,0,10,14,448,45
  4534                        	.sym	KERNELTRAPCALL,0,641,14,32
  4535                        	.sym	FOREACHNODEUNTIL,0,654,14,32
  4536                        	.sym	FOREACHNODE,0,641,14,32
  4537                        	.sym	Boolean_T,0,5,14,16
  4538                        	.sym	ldiv_t,0,10,14,64,43
  4539                        	.sym	div_t,0,10,14,32,42
  4540                        	.sym	wctype_t,0,16,14,16
  4541                        	.sym	wint_t,0,16,14,16
  4542                        	.sym	wchar_t,0,14,14,8
  4543                        	.sym	ptrdiff_t,0,7,14,32
  4544                        	.sym	size_t,0,16,14,16
  4545                        	.sym	PFXCOMBUFFER,0,138,14,32,41
  4546                        	.sym	FXCOMBUFFER,0,10,14,2080,41
  4547                        	.sym	PSUBMENULIST,0,138,14,32,40
  4548                        	.sym	SUBMENULIST,0,10,14,40,40
  4549                        	.sym	HSUBMENU,0,7,14,32
  4550                        	.sym	PSUBMENU,0,138,14,32,39
  4551                        	.sym	SUBMENU,0,10,14,64,39
  4552                        	.sym	MenuAction,0,641,14,32
  4553                        	.sym	PMENUANCHOR,0,138,14,32,38
  4554                        	.sym	MENUANCHOR,0,10,14,144,38
  4555                        	.sym	PTEXTBOX,0,138,14,32,37
  4556                        	.sym	TEXTBOX,0,10,14,144,37
  4557                        	.sym	PLISTBOX,0,138,14,32,36
  4558                        	.sym	LISTBOX,0,10,14,240,36
  4559                        	.sym	PSCROLLBAR,0,138,14,32,35
  4560                        	.sym	SCROLLBAR,0,10,14,192,35
  4561                        	.sym	PBUTTON,0,138,14,32,34
  4562                        	.sym	BUTTON,0,10,14,80,34
  4563                        	.sym	PMENUDROPDOWNDATA,0,138,14,32,33
  4564                        	.sym	MENUDROPDOWNDATA,0,10,14,3568,33
  4565                        	.sym	PMENUTAG,0,138,14,32,32
  4566                        	.sym	MENUTAG,0,10,14,112,32
  4567                        	.sym	PMENU,0,138,14,32,31
  4568                        	.sym	MENU,0,10,14,248,31
  4569                        	.sym	HMENURESOURCE,0,129,14,32
  4570                        	.sym	HTEXTBOX,0,7,14,32
  4571                        	.sym	PTEXTBOXX,0,138,14,32,30
  4572                        	.sym	TEXTBOXX,0,10,14,112,30
  4573                        	.sym	FONTMETRIC,0,10,14,32,29
  4574                        	.sym	TITLE,0,142,14,32
  4575                        	.sym	PHANDLE,0,1153,14,32
  4576                        	.sym	HANDLE,0,129,14,32
  4577                        	.sym	PWINDOWEX,0,138,14,32,28
  4578                        	.sym	WINDOWEX,0,10,14,2704,28
  4579                        	.sym	PWINDOW,0,138,14,32,27
  4580                        	.sym	WINDOW,0,10,14,2808,27
  4581                        	.sym	PDRAGDATA,0,138,14,32,26
  4582                        	.sym	DRAGDATA,0,10,14,136,26
  4583                        	.sym	PNCCLICKABLE,0,138,14,32,25
  4584                        	.sym	NCCLICKABLE,0,10,14,88,25
  4585                        	.sym	HCLICKABLE,0,7,14,32
  4586                        	.sym	PCLICKABLE,0,138,14,32,24
  Thu Dec  3 2020 22:25                                                Page 97


  4587                        	.sym	CLICKABLE,0,10,14,88,24
  4588                        	.sym	PWNDCLASS,0,138,14,32,23
  4589                        	.sym	WNDCLASS,0,10,14,256,23
  4590                        	.sym	HBRUSH,0,129,14,32
  4591                        	.sym	HCURSOR,0,129,14,32
  4592                        	.sym	HICON,0,129,14,32
  4593                        	.sym	HINSTANCE,0,129,14,32
  4594                        	.sym	FXWndProc,0,654,14,32
  4595                        	.sym	PRECT,0,138,14,32,22
  4596                        	.sym	RECT,0,10,14,64,22
  4597                        	.sym	PPOINT,0,138,14,32,21
  4598                        	.sym	POINT,0,10,14,32,21
  4599                        	.sym	PFXPROPERTY,0,138,14,32,19
  4600                        	.sym	FXPROPERTY,0,10,14,384,19
  4601                        	.sym	SCANCODE,0,14,14,8
  4602                        	.sym	KEYCODE,0,14,14,8
  4603                        	.sym	PFXPROCESSMESSAGE,0,138,14,32,18
  4604                        	.sym	FXPROCESSMESSAGE,0,10,14,112,18
  4605                        	.sym	PFXPROCESS,0,138,14,32,17
  4606                        	.sym	FXPROCESS,0,10,14,800,17
  4607                        	.sym	PDESKTOP_CONTROL,0,138,14,32,16
  4608                        	.sym	DESKTOP_CONTROL,0,10,14,392,16
  4609                        	.sym	PCONSOLE_CONTROL,0,138,14,32,15
  4610                        	.sym	CONSOLE_CONTROL,0,10,14,448,15
  4611                        	.sym	FXProcessProc,0,641,14,32
  4612                        	.sym	PFXCMDMESSAGE,0,138,14,32,14
  4613                        	.sym	FXCMDMESSAGE,0,10,14,304,14
  4614                        	.sym	PFXOSMESSAGE,0,138,14,32,13
  4615                        	.sym	FXOSMESSAGE,0,10,14,304,13
  4616                        	.sym	PINT_REGS,0,138,14,32,12
  4617                        	.sym	INT_REGS,0,10,14,104,12
  4618                        	.sym	TASK_STACK,0,10,14,32,11
  4619                        	.sym	TASK,0,10,14,48,10
  4620                        	.sym	PIRQDATA,0,138,14,32,9
  4621                        	.sym	IRQDATA,0,10,14,48,9
  4622                        	.sym	HMENU,0,129,14,32
  4623                        	.sym	HWND,0,129,14,32
  4624                        	.sym	MSGDATA,0,14,14,8
  4625                        	.sym	MSGDEST,0,18,14,32
  4626                        	.sym	MSGSRC,0,18,14,32
  4627                        	.sym	MSGTYPE,0,16,14,16
  4628                        	.sym	PROCESS_RESOURCE_LIST,0,138,14,32,3
  4629                        	.sym	PROCESS_TLS_LIST,0,138,14,32,3
  4630                        	.sym	SEMAPHORE_LIST,0,138,14,32,3
  4631                        	.sym	FILE_BLOCK_LIST,0,138,14,32,3
  4632                        	.sym	FILE_PATH_LIST,0,138,14,32,3
  4633                        	.sym	PROCEDURE_LIST,0,138,14,32,3
  4634                        	.sym	FILE_HANDLE,0,138,14,32,8
  4635                        	.sym	FILE_BLOCK,0,10,14,552,8
  4636                        	.sym	SEMAPHORE,0,10,14,16,7
  4637                        	.sym	PPROCESS_SIGNAL,0,138,14,32,6
  4638                        	.sym	PROCESS_SIGNAL,0,10,14,16,6
  4639                        	.sym	KRESULT,0,18,14,32
  4640                        	.sym	PKERNEL_ERROR,0,138,14,32,5
  4641                        	.sym	KERNEL_ERROR,0,10,14,32,5
  4642                        	.sym	PROCESS_STATUS,0,16,14,16
  4643                        	.sym	FILE_PATH_NAME,0,142,14,32
  4644                        	.sym	PROCESS_RESOURCE,0,129,14,32
  Thu Dec  3 2020 22:25                                                Page 98


  4645                        	.sym	PROCESS_TLS,0,129,14,32
  4646                        	.sym	PROCESS_CTX,0,129,14,32
  4647                        	.sym	USERID,0,16,14,16
  4648                        	.sym	PROCESS_ID,0,18,14,32
  4649                        	.sym	PROCESS_BANK,0,14,14,8
  4650                        	.sym	PFXQUEUE,0,138,14,32,4
  4651                        	.sym	FXQUEUE,0,10,14,80,4
  4652                        	.sym	PFXNODELIST,0,138,14,32,3
  4653                        	.sym	FXNODELIST,0,10,14,96,3
  4654                        	.sym	NodeListDeallocator,0,641,14,32
  4655                        	.sym	PFXNODE,0,138,14,32,2
  4656                        	.sym	FXNODE,0,10,14,384,2
  4657                        	.sym	PBYTEBITS,0,138,14,32,1
  4658                        	.sym	BYTEBITS,0,10,14,8,1
  4659                        	.sym	HCOLOR,0,129,14,32
  4660                        	.sym	HFONT,0,129,14,32
  4661                        	.sym	HDC,0,129,14,32
  4662                        	.sym	HPOINTER,0,129,14,32
  4663                        	.sym	uint32_t,0,18,14,32
  4664                        	.sym	uint8_t,0,14,14,8
  4665                        	.sym	PFAR,0,142,14,32
  4666                        	.sym	LPBOOL,0,142,14,32
  4667                        	.sym	BOOL,0,14,14,8
  4668                        	.sym	DWORD,0,18,14,32
  4669                        	.sym	ULONG,0,18,14,32
  4670                        	.sym	LPLONG,0,135,14,32
  4671                        	.sym	LONG,0,7,14,32
  4672                        	.sym	PUINT,0,144,14,32
  4673                        	.sym	USHORT,0,16,14,16
  4674                        	.sym	UINT,0,16,14,16
  4675                        	.sym	INT,0,5,14,16
  4676                        	.sym	WORD,0,5,14,16
  4677                        	.sym	PBYTE,0,142,14,32
  4678                        	.sym	BYTE,0,14,14,8
  4679                        	.sym	UCHAR,0,14,14,8
  4680                        	.sym	LPWCSTR,0,142,14,32
  4681                        	.sym	LPCSTR,0,142,14,32
  4682                        	.sym	LPSTR,0,142,14,32
  4683                        	.sym	LPCHAR,0,142,14,32
  4684                        	.sym	CHAR,0,14,14,8
  4685                        	.sym	LPVOID,0,129,14,32
  4686                        	.sym	VOID,0,1,14,32
  4687                        	end


      Lines assembled: 4687
      Errors: 0
