  Thu Dec  3 2020 22:25                                                Page 1


                     ***************************************
                     **      WDC 65C816 Macro Assembler   **
                     **                                   **
                     **     Version 3.49.1- Feb  6 2006    **
                     ***************************************

     1                        ;:ts=8
     2             00000001   R0	equ	1
     3             00000005   R1	equ	5
     4             00000009   R2	equ	9
     5             0000000D   R3	equ	13
     6                        	.file	"G:\devprojects\c256Foenix\fxos\FXOSWork
                    space\FXOSv1\src\fxos_desktop_proc.c",0
     7                        ;
     8                        ;#include "fxos_desktop_proc.h"
     9                        	.file	"G:\devprojects\c256Foenix\fxos\FXOSWork
                    space\FXOSv1\src\fxos_desktop_proc.h",0
    10                        	.file	"G:\devprojects\c256Foenix\fxos\FXOSWork
                    space\FXOSv1\src\fxtypes.h",0
    11                        	.stag	_fx_bytebits,8,1
    12                        	.member	b7,0,14,17,1
    13                        	.member	b6,1,14,17,1
    14                        	.member	b5,2,14,17,1
    15                        	.member	b4,3,14,17,1
    16                        	.member	b3,4,14,17,1
    17                        	.member	b2,5,14,17,1
    18                        	.member	b1,6,14,17,1
    19                        	.member	b0,7,14,17,1
    20                        	.eos
    21                        	.stag	_fx_node,384,2
    22                        	.member	type,0,14,8,8
    23                        	.member	Reserved0,8,14,8,8
    24                        	.member	data,16,129,8,32
    25                        	.member	last,48,138,8,32,2
    26                        	.member	next,80,138,8,32,2
    27                        	.member	name,112,110,8,0,32
    28                        	.member	Reserved1,368,16,8,16
    29                        	.eos
    30                        	.stag	_fx_nodelist,96,3
    31                        	.member	listhead,0,138,8,32,2
    32                        	.member	listData,32,129,8,32
    33                        	.member	deallocator,64,641,8,32
    34                        	.eos
    35                        	.stag	_fx_queue,80,4
    36                        	.member	count,0,5,8,16
    37                        	.member	front,16,138,8,32,2
    38                        	.member	rear,48,138,8,32,2
    39                        	.eos
    40                        	.stag	fake5_,32,5
    41                        	.member	subsystem,0,14,8,8
    42                        	.member	level,8,14,8,8
    43                        	.member	error,16,16,8,16
    44                        	.eos
    45                        	.stag	_fx_process_signal,16,6
    46                        	.member	cbSize,0,16,8,16
    47                        	.eos
    48                        	.stag	_fx_semaphore,16,7
    49                        	.member	reserved,0,5,8,16
  Thu Dec  3 2020 22:25                                                Page 2


    50                        	.eos
    51                        	.stag	_fx_fileBlock,552,8
    52                        	.member	openCount,0,16,8,16
    53                        	.member	lockCount,16,16,8,16
    54                        	.member	dirty,32,14,8,8
    55                        	.member	fileBuffer,40,110,8,0,64
    56                        	.eos
    57                        	.stag	_fx_irq_data,48,9
    58                        	.member	line,0,5,8,16
    59                        	.member	keycode,16,142,8,32
    60                        	.eos
    61                        	.stag	_task,48,10
    62                        	.member	SPL,0,14,8,8
    63                        	.member	SPH,8,14,8,8
    64                        	.member	pstack,16,142,8,32
    65                        	.eos
    66                        	.stag	_task_stack,32,11
    67                        	.member	SS,0,142,8,32
    68                        	.eos
    69                        	.stag	int_regs,104,12
    70                        	.member	PB,0,14,8,8
    71                        	.member	PH,8,14,8,8
    72                        	.member	PL,16,14,8,8
    73                        	.member	PP,24,14,8,8
    74                        	.member	DB,32,14,8,8
    75                        	.member	DH,40,14,8,8
    76                        	.member	DL,48,14,8,8
    77                        	.member	AH,56,14,8,8
    78                        	.member	AL,64,14,8,8
    79                        	.member	XH,72,14,8,8
    80                        	.member	XL,80,14,8,8
    81                        	.member	YH,88,14,8,8
    82                        	.member	YL,96,14,8,8
    83                        	.eos
    84                        	.stag	_fx_eventMessage,304,13
    85                        	.member	src,0,18,8,32
    86                        	.member	dest,32,18,8,32
    87                        	.member	type,64,16,8,16
    88                        	.member	hwnd,80,129,8,32
    89                        	.member	pheap,112,129,8,32
    90                        	.member	msgTime,144,18,8,32
    91                        	.member	data,176,110,8,0,16
    92                        	.eos
    93                        	.stag	_fx_cmdMessage,304,14
    94                        	.member	src,0,18,8,32
    95                        	.member	dest,32,18,8,32
    96                        	.member	type,64,16,8,16
    97                        	.member	hwnd,80,129,8,32
    98                        	.member	pheap,112,129,8,32
    99                        	.member	msgTime,144,18,8,32
   100                        	.member	cmdCId,176,16,8,16
   101                        	.member	cmdMId,192,16,8,16
   102                        	.member	parameter1,208,18,8,32
   103                        	.member	parameter2,240,18,8,32
   104                        	.member	parameter3,272,18,8,32
   105                        	.eos
   106                        	.stag	_fx_console_ctl,448,15
   107                        	.member	maxCols,0,5,8,16
  Thu Dec  3 2020 22:25                                                Page 3


   108                        	.member	maxRows,16,5,8,16
   109                        	.member	curX,32,5,8,16
   110                        	.member	curY,48,5,8,16
   111                        	.member	fgColor,64,5,8,16
   112                        	.member	bgColor,80,5,8,16
   113                        	.member	mode,96,14,8,8
   114                        	.member	kbBuffer,104,101,8,0,16
   115                        	.member	screenBuffer,360,142,8,32
   116                        	.member	desktopMode,392,14,8,8
   117                        	.member	lastMouseButton,400,5,8,16
   118                        	.member	lastMouseX,416,5,8,16
   119                        	.member	lastMouseY,432,5,8,16
   120                        	.eos
   121                        	.stag	_fx_desktop_ctl,392,16
   122                        	.member	desktopMode,0,14,8,8
   123                        	.member	cursorCtl,8,5,8,16
   124                        	.member	cursorState,24,5,8,16
   125                        	.member	backgroundColor,40,5,8,16
   126                        	.member	foregroundColor,56,5,8,16
   127                        	.member	menuMode,72,5,8,16
   128                        	.member	lastMouseButton,88,5,8,16
   129                        	.member	lastMouseX,104,5,8,16
   130                        	.member	lastMouseY,120,5,8,16
   131                        	.member	currentDiskName,136,142,8,32
   132                        	.member	diskNodes,168,129,8,32
   133                        	.member	titleNodes,200,129,8,32
   134                        	.member	menuNodes,232,129,8,32
   135                        	.member	iconNodes,264,129,8,32
   136                        	.member	windowNodes,296,129,8,32
   137                        	.member	fontNodes,328,129,8,32
   138                        	.member	wndProc,360,138,8,32,3
   139                        	.eos
   140                        	.stag	_fx_process,800,17
   141                        	.member	cbSize,0,5,8,16
   142                        	.member	procId,16,18,8,32
   143                        	.member	parentId,48,18,8,32
   144                        	.member	ctx,80,129,8,32
   145                        	.member	userId,112,16,8,16
   146                        	.member	status,128,16,8,16
   147                        	.member	foregroundActive,144,14,8,8
   148                        	.member	tls,152,1121,8,32,8
   149                        	.member	commandLine,408,142,8,32
   150                        	.member	semaphores,440,138,8,32,3
   151                        	.member	fileHandles,472,138,8,32,3
   152                        	.member	pathList,504,138,8,32,3
   153                        	.member	resources,536,138,8,32,3
   154                        	.member	timerAware,568,14,8,8
   155                        	.member	timerTicks,576,112,8,0,2
   156                        	.member	timerTickCount,608,112,8,0,2
   157                        	.member	kernelError,640,10,8,32,5
   158                        	.member	consoleCtl,672,138,8,32,15
   159                        	.member	desktopCtl,704,138,8,32,16
   160                        	.member	execProc,736,641,8,32
   161                        	.member	startupArgs,768,129,8,32
   162                        	.eos
   163                        	.stag	_fxProcessMessage,112,18
   164                        	.member	src,0,18,8,32
   165                        	.member	dest,32,18,8,32
  Thu Dec  3 2020 22:25                                                Page 4


   166                        	.member	type,64,16,8,16
   167                        	.member	processInfo,80,138,8,32,17
   168                        	.eos
   169                        	.stag	_fx_property,384,19
   170                        	.member	name,0,110,8,0,16
   171                        	.member	value,128,110,8,0,32
   172                        	.eos
   173                        	.utag	_24bitPointer,32,20
   174                        	.member	address,0,142,11,32
   175                        	.member	bytes,0,110,11,0,4
   176                        	.eos
   177                        	.stag	_PointStruct,32,21
   178                        	.member	x,0,5,8,16
   179                        	.member	y,16,5,8,16
   180                        	.eos
   181                        	.stag	_RectStruct,64,22
   182                        	.member	x,0,5,8,16
   183                        	.member	y,16,5,8,16
   184                        	.member	width,32,5,8,16
   185                        	.member	height,48,5,8,16
   186                        	.eos
   187                        	.stag	_k_WindowClass,256,23
   188                        	.member	cbSize,0,16,8,16
   189                        	.member	style,16,16,8,16
   190                        	.member	pWndProc,32,654,8,32
   191                        	.member	hInstance,64,129,8,32
   192                        	.member	hIcon,96,129,8,32
   193                        	.member	hCursor,128,129,8,32
   194                        	.member	hbrBackground,160,129,8,32
   195                        	.member	lpszMenuName,192,142,8,32
   196                        	.member	lpszClassName,224,142,8,32
   197                        	.eos
   198                        	.stag	_ClickableRect,88,24
   199                        	.member	area,0,10,8,64,22
   200                        	.member	z,64,5,8,16
   201                        	.member	enabled,80,14,8,8
   202                        	.eos
   203                        	.stag	_NCClickableRect,88,25
   204                        	.member	area,0,10,8,64,22
   205                        	.member	msgType,64,16,8,16
   206                        	.member	enabled,80,14,8,8
   207                        	.eos
   208                        	.stag	_DragData,136,26
   209                        	.member	area,0,10,8,64,22
   210                        	.member	xoffset,64,5,8,16
   211                        	.member	yoffset,80,5,8,16
   212                        	.member	msgType,96,16,8,16
   213                        	.member	isDrag,112,14,8,8
   214                        	.member	canDrag,120,14,8,8
   215                        	.member	canDrop,128,14,8,8
   216                        	.eos
   217                        	.stag	_k_WindowStruct,2808,27
   218                        	.member	cbSize,0,16,8,16
   219                        	.member	style,16,18,8,32
   220                        	.member	win_id,48,5,8,16
   221                        	.member	win_x,64,5,8,16
   222                        	.member	win_y,80,5,8,16
   223                        	.member	win_width,96,5,8,16
  Thu Dec  3 2020 22:25                                                Page 5


   224                        	.member	win_height,112,5,8,16
   225                        	.member	wndRect,128,10,8,64,22
   226                        	.member	clientRect,192,10,8,64,22
   227                        	.member	nonclientGadgets,256,106,8,0,25,16
   228                        	.member	clickable,1664,129,8,32
   229                        	.member	win_title,1696,110,8,0,32
   230                        	.member	Reserved0,1952,16,8,16
   231                        	.member	win_class,1968,110,8,0,16
   232                        	.member	win_class_name,2096,110,8,0,32
   233                        	.member	nBitmapLayer,2352,16,8,16
   234                        	.member	procid,2368,18,8,32
   235                        	.member	pWndClass,2400,138,8,32,23
   236                        	.member	pParentWindow,2432,129,8,32
   237                        	.member	hMenu,2464,129,8,32
   238                        	.member	pChildWindows,2496,138,8,32,3
   239                        	.member	pChildHitList,2528,138,8,32,3
   240                        	.member	isVisible,2560,14,8,8
   241                        	.member	windowData,2568,129,8,32
   242                        	.member	clientData,2600,1121,8,32,6
   243                        	.member	isClosed,2792,14,8,8
   244                        	.member	isClosing,2800,14,8,8
   245                        	.eos
   246                        	.stag	_k_WindowStructEx,2704,28
   247                        	.member	cbSize,0,16,8,16
   248                        	.member	style,16,18,8,32
   249                        	.member	win_id,48,5,8,16
   250                        	.member	win_x,64,5,8,16
   251                        	.member	win_y,80,5,8,16
   252                        	.member	win_width,96,5,8,16
   253                        	.member	win_height,112,5,8,16
   254                        	.member	wndRect,128,10,8,64,22
   255                        	.member	clientRect,192,10,8,64,22
   256                        	.member	nonclientGadgets,256,106,8,0,25,16
   257                        	.member	clickable,1664,129,8,32
   258                        	.member	win_title,1696,110,8,0,32
   259                        	.member	Reserved0,1952,16,8,16
   260                        	.member	win_class,1968,110,8,0,16
   261                        	.member	nBitmapLayer,2096,16,8,16
   262                        	.member	procid,2112,18,8,32
   263                        	.member	pWndClass,2144,138,8,32,23
   264                        	.member	pParentWindow,2176,129,8,32
   265                        	.member	hMenu,2208,129,8,32
   266                        	.member	pChildWindows,2240,138,8,32,3
   267                        	.member	pChildHitList,2272,138,8,32,3
   268                        	.member	isVisible,2304,14,8,8
   269                        	.member	windowData,2312,129,8,32
   270                        	.member	clientData,2344,1121,8,32,4
   271                        	.member	isClosed,2472,14,8,8
   272                        	.member	hWnd,2480,129,8,32
   273                        	.member	localRect,2512,10,8,64,22
   274                        	.member	globalRect,2576,10,8,64,22
   275                        	.member	clientOffsetRect,2640,10,8,64,22
   276                        	.eos
   277                        	.stag	_FontMetric,32,29
   278                        	.member	width,0,5,8,16
   279                        	.member	height,16,5,8,16
   280                        	.eos
   281                        	.stag	_ctl_Textbox,112,30
  Thu Dec  3 2020 22:25                                                Page 6


   282                        	.member	win_id,0,5,8,16
   283                        	.member	win_x,16,5,8,16
   284                        	.member	win_y,32,5,8,16
   285                        	.member	win_width,48,5,8,16
   286                        	.member	win_height,64,5,8,16
   287                        	.member	content,80,1166,8,32
   288                        	.eos
   289                        	.stag	_MenuStruct,248,31
   290                        	.member	cx,0,5,8,16
   291                        	.member	cy,16,5,8,16
   292                        	.member	width,32,5,8,16
   293                        	.member	height,48,5,8,16
   294                        	.member	fcolor,64,14,8,8
   295                        	.member	bcolor,72,14,8,8
   296                        	.member	chromeLeft,80,14,8,8
   297                        	.member	chromeRight1,88,14,8,8
   298                        	.member	chromeRight2,96,14,8,8
   299                        	.member	itemId,104,16,8,16
   300                        	.member	pCaption,120,142,8,32
   301                        	.member	subMenus,152,138,8,32,3
   302                        	.member	pBackground,184,129,8,32
   303                        	.member	hWndOwner,216,129,8,32
   304                        	.eos
   305                        	.stag	fake32_,112,32
   306                        	.member	menuId,0,16,8,16
   307                        	.member	caption,16,142,8,32
   308                        	.member	rect,48,10,8,64,22
   309                        	.eos
   310                        	.stag	fake33_,3568,33
   311                        	.member	pParent,0,138,8,32,27
   312                        	.member	rect,32,10,8,64,22
   313                        	.member	captions,96,1134,8,32,24
   314                        	.member	chrome,864,110,8,0,24
   315                        	.member	ids,1056,112,8,0,24
   316                        	.member	clickable,1440,106,8,0,24,24
   317                        	.member	selected,3552,16,8,16
   318                        	.eos
   319                        	.stag	_fx_button_t,80,34
   320                        	.member	pCaption,0,142,8,32
   321                        	.member	data,32,129,8,32
   322                        	.member	captionPixelWidth,64,16,8,16
   323                        	.eos
   324                        	.stag	_fx_scrollbar_t,192,35
   325                        	.member	min,0,16,8,16
   326                        	.member	max,16,16,8,16
   327                        	.member	increment,32,16,8,16
   328                        	.member	stopsize,48,16,8,16
   329                        	.member	location,64,5,8,16
   330                        	.member	state,80,5,8,16
   331                        	.member	rectThumb,96,10,8,64,22
   332                        	.member	data,160,129,8,32
   333                        	.eos
   334                        	.stag	_fx_listbox_t,240,36
   335                        	.member	pos,0,5,8,16
   336                        	.member	selected,16,16,8,16
   337                        	.member	offsetX,32,5,8,16
   338                        	.member	offsetY,48,5,8,16
   339                        	.member	inc,64,5,8,16
  Thu Dec  3 2020 22:25                                                Page 7


   340                        	.member	direction,80,5,8,16
   341                        	.member	top,96,5,8,16
   342                        	.member	bottom,112,5,8,16
   343                        	.member	indexTop,128,5,8,16
   344                        	.member	indexBottom,144,5,8,16
   345                        	.member	maxItems,160,16,8,16
   346                        	.member	fontSet,176,142,8,32
   347                        	.member	data,208,129,8,32
   348                        	.eos
   349                        	.stag	_fx_textbox_t,144,37
   350                        	.member	pos,0,5,8,16
   351                        	.member	selected,16,16,8,16
   352                        	.member	offsetX,32,5,8,16
   353                        	.member	offsetY,48,5,8,16
   354                        	.member	isShifted,64,14,8,8
   355                        	.member	cursorState,72,14,8,8
   356                        	.member	fontSet,80,142,8,32
   357                        	.member	data,112,129,8,32
   358                        	.eos
   359                        	.stag	_fx_menuAnchor_t,144,38
   360                        	.member	pCaption,0,142,8,32
   361                        	.member	renderLayoutX,32,16,8,16
   362                        	.member	renderLayoutY,48,16,8,16
   363                        	.member	captionPixelWidth,64,16,8,16
   364                        	.member	data,80,129,8,32
   365                        	.member	droppedWindow,112,138,8,32,27
   366                        	.eos
   367                        	.stag	_SubMenuStruct,64,39
   368                        	.member	caption,0,142,8,32
   369                        	.member	action,32,641,8,32
   370                        	.eos
   371                        	.stag	_SubMenuListStruct,40,40
   372                        	.member	cMenus,0,14,8,8
   373                        	.member	psubmenus,8,9354,8,32,39
   374                        	.eos
   375                        	.stag	_fx_ComBuffer,2080,41
   376                        	.member	cbSize,0,16,8,16
   377                        	.member	cbBuffer,16,16,8,16
   378                        	.member	buffer,32,110,8,0,256
   379                        	.eos
   380                        	.line	708
   381                        	.file	"G:\devprojects\c256Foenix\fxos\FXOSWork
                    space\FXOSv1\src\fxos_desktop_proc.h",5
   382                        	.file	"G:\devprojects\c256Foenix\fxos\FXOSWork
                    space\FXOSv1\src\fxc256fmx.h",0
   383                        	.file	"G:\devprojects\c256Foenix\fxos\FXOSWork
                    space\FXOSv1\src\fxtypes.h",0
   384                        	.line	708
   385                        	.file	"G:\devprojects\c256Foenix\fxos\FXOSWork
                    space\FXOSv1\src\fxc256fmx.h",5
   386                        	.file	"G:\devprojects\c256Foenix\fxos\FXOSWork
                    space\FXOSv1\src\fmx_vicky.h",0
   387                        	.file	"G:\devprojects\c256Foenix\fxos\FXOSWork
                    space\FXOSv1\src\fxtypes.h",0
   388                        	.line	708
   389                        	.file	"G:\devprojects\c256Foenix\fxos\FXOSWork
                    space\FXOSv1\src\fmx_vicky.h",11
   390                        	.line	72
  Thu Dec  3 2020 22:25                                                Page 8


   391                        	.file	"G:\devprojects\c256Foenix\fxos\FXOSWork
                    space\FXOSv1\src\fxc256fmx.h",6
   392                        	.line	1325
   393                        	.file	"G:\devprojects\c256Foenix\fxos\FXOSWork
                    space\FXOSv1\src\fxos_desktop_proc.h",8
   394                        	.file	"G:\devprojects\c256Foenix\fxos\FXOSWork
                    space\FXOSv1\src\fxstring.h",0
   395                        	.file	"G:\devtools\WDCTools\wdc\Tools\include\
                    stdlib.h",0
   396                        	.file	"G:\devtools\WDCTools\wdc\Tools\include\
                    stddef.h",0
   397                        	.line	88
   398                        	.file	"G:\devtools\WDCTools\wdc\Tools\include\
                    stdlib.h",43
   399                        	.stag	fake42_,32,42
   400                        	.member	quot,0,5,8,16
   401                        	.member	rem,16,5,8,16
   402                        	.eos
   403                        	.stag	fake43_,64,43
   404                        	.member	quot,0,7,8,32
   405                        	.member	rem,32,7,8,32
   406                        	.eos
   407                        	.stag	int_sqrt,32,44
   408                        	.member	sqrt,0,16,8,16
   409                        	.member	frac,16,16,8,16
   410                        	.eos
   411                        	.line	205
   412                        	.file	"G:\devprojects\c256Foenix\fxos\FXOSWork
                    space\FXOSv1\src\fxstring.h",5
   413                        	.file	"G:\devtools\WDCTools\wdc\Tools\include\
                    string.h",0
   414                        	.line	134
   415                        	.file	"G:\devprojects\c256Foenix\fxos\FXOSWork
                    space\FXOSv1\src\fxstring.h",6
   416                        	.file	"G:\devprojects\c256Foenix\fxos\FXOSWork
                    space\FXOSv1\src\fxtypes.h",0
   417                        	.line	708
   418                        	.file	"G:\devprojects\c256Foenix\fxos\FXOSWork
                    space\FXOSv1\src\fxstring.h",7
   419                        	.stag	_fx_string,64,45
   420                        	.member	size,0,16,8,16
   421                        	.member	pos,16,5,8,16
   422                        	.member	buffer,32,142,8,32
   423                        	.eos
   424                        	.line	71
   425                        	.file	"G:\devprojects\c256Foenix\fxos\FXOSWork
                    space\FXOSv1\src\fxos_desktop_proc.h",13
   426                        	.file	"G:\devprojects\c256Foenix\fxos\FXOSWork
                    space\FXOSv1\src\fxeventmanager.h",0
   427                        	.file	"G:\devprojects\c256Foenix\fxos\FXOSWork
                    space\FXOSv1\src\fxos.h",0
   428                        	.file	"G:\devtools\WDCTools\wdc\Tools\include\
                    stdlib.h",0
   429                        	.line	205
   430                        	.file	"G:\devprojects\c256Foenix\fxos\FXOSWork
                    space\FXOSv1\src\fxos.h",4
   431                        	.file	"G:\devtools\WDCTools\wdc\Tools\include\
                    string.h",0
  Thu Dec  3 2020 22:25                                                Page 9


   432                        	.line	134
   433                        	.file	"G:\devprojects\c256Foenix\fxos\FXOSWork
                    space\FXOSv1\src\fxos.h",5
   434                        	.file	"G:\devtools\WDCTools\wdc\Tools\include\
                    ctype.h",0
   435                        	.line	103
   436                        	.file	"G:\devprojects\c256Foenix\fxos\FXOSWork
                    space\FXOSv1\src\fxos.h",6
   437                        	.file	"G:\devprojects\c256Foenix\fxos\FXOSWork
                    space\FXOSv1\src\fxtypes.h",0
   438                        	.line	708
   439                        	.file	"G:\devprojects\c256Foenix\fxos\FXOSWork
                    space\FXOSv1\src\fxos.h",8
   440                        	.file	"G:\devprojects\c256Foenix\fxos\FXOSWork
                    space\FXOSv1\src\fxstringtable.h",0
   441                        	.line	89
   442                        	.file	"G:\devprojects\c256Foenix\fxos\FXOSWork
                    space\FXOSv1\src\fxos.h",9
   443                        	.file	"G:\devprojects\c256Foenix\fxos\FXOSWork
                    space\FXOSv1\src\fxc256fmx.h",0
   444                        	.line	1325
   445                        	.file	"G:\devprojects\c256Foenix\fxos\FXOSWork
                    space\FXOSv1\src\fxos.h",13
   446                        	.file	"G:\devprojects\c256Foenix\fxos\FXOSWork
                    space\FXOSv1\src\fxkernel.h",0
   447                        	.file	"G:\devprojects\c256Foenix\fxos\FXOSWork
                    space\FXOSv1\src\fxos.h",0
   448                        	.line	25
   449                        	.file	"G:\devprojects\c256Foenix\fxos\FXOSWork
                    space\FXOSv1\src\fxkernel.h",5
   450                        	.file	"G:\devprojects\c256Foenix\fxos\FXOSWork
                    space\FXOSv1\src\fxnode.h",0
   451                        	.file	"G:\devprojects\c256Foenix\fxos\FXOSWork
                    space\FXOSv1\src\fxtypes.h",0
   452                        	.line	708
   453                        	.file	"G:\devprojects\c256Foenix\fxos\FXOSWork
                    space\FXOSv1\src\fxnode.h",5
   454                        	.line	61
   455                        	.file	"G:\devprojects\c256Foenix\fxos\FXOSWork
                    space\FXOSv1\src\fxkernel.h",6
   456                        	.stag	_fx_zero_page,448,46
   457                        	.member	fxos_mouse_byte_0,0,14,8,8
   458                        	.member	fxos_mouse_byte_1,8,14,8,8
   459                        	.member	fxos_mouse_byte_2,16,14,8,8
   460                        	.member	fxos_mouse_byte_t,24,14,8,8
   461                        	.member	fxos_mouse_byte_x_l,32,14,8,8
   462                        	.member	fxos_mouse_byte_x_h,40,14,8,8
   463                        	.member	fxos_mouse_byte_y_l,48,14,8,8
   464                        	.member	fxos_mouse_byte_y_h,56,14,8,8
   465                        	.member	fxos_key_byte_0,64,14,8,8
   466                        	.member	fxos_key_byte_1,72,14,8,8
   467                        	.member	fxos_key_byte_2,80,14,8,8
   468                        	.member	fxos_mouse_ctl,88,14,8,8
   469                        	.member	fxos_mouse_index,96,14,8,8
   470                        	.member	fxos_mouse_status,104,14,8,8
   471                        	.member	VersionMajor,112,16,8,16
   472                        	.member	VersionMinor,128,16,8,16
   473                        	.member	VersionRelease,144,16,8,16
  Thu Dec  3 2020 22:25                                                Page 10


   474                        	.member	topMemory,160,18,8,32
   475                        	.member	bottomMemory,192,18,8,32
   476                        	.member	availableMemory,224,18,8,32
   477                        	.member	availableMemoryK,256,18,8,32
   478                        	.member	availableHeapMemory,288,18,8,32
   479                        	.member	availableHeapMemoryK,320,18,8,32
   480                        	.member	kernelFunctionCallId,352,16,8,16
   481                        	.member	kernelFunctionCallBank,368,14,8,8
   482                        	.member	kernelFunctionCallReserved,376,14,8,8
   483                        	.member	kernelFunctionCallParameter,384,129,8,32
   484                        	.member	kernelFunctionCallReturn,416,129,8,32
   485                        	.eos
   486                        	.stag	_fx_environment,96,47
   487                        	.member	variables,0,142,8,32
   488                        	.member	reserved1,32,5,8,16
   489                        	.member	reserved2,48,5,8,16
   490                        	.member	reserved3,64,5,8,16
   491                        	.member	reserved4,80,5,8,16
   492                        	.eos
   493                        	.stag	_debug_byte_bits,8,48
   494                        	.member	bit7,0,14,17,1
   495                        	.member	bit6,1,14,17,1
   496                        	.member	bit5,2,14,17,1
   497                        	.member	bit4,3,14,17,1
   498                        	.member	bit3,4,14,17,1
   499                        	.member	bit2,5,14,17,1
   500                        	.member	bit1,6,14,17,1
   501                        	.member	bit0,7,14,17,1
   502                        	.eos
   503                        	.stag	_fx_device_driver,1416,49
   504                        	.member	name,0,110,8,0,64
   505                        	.member	version,512,110,8,0,64
   506                        	.member	hmajor,1024,110,8,0,16
   507                        	.member	hminor,1152,110,8,0,16
   508                        	.member	type,1280,14,8,8
   509                        	.member	f_driver_load,1288,129,8,32
   510                        	.member	f_driver_read,1320,129,8,32
   511                        	.member	f_driver_write,1352,129,8,32
   512                        	.member	f_driver_unload,1384,129,8,32
   513                        	.eos
   514                        	.stag	_fx_block_device_driver,1448,50
   515                        	.member	name,0,110,8,0,64
   516                        	.member	version,512,110,8,0,64
   517                        	.member	hmajor,1024,110,8,0,16
   518                        	.member	hminor,1152,110,8,0,16
   519                        	.member	type,1280,14,8,8
   520                        	.member	f_driver_load,1288,129,8,32
   521                        	.member	f_driver_read,1320,129,8,32
   522                        	.member	f_driver_write,1352,129,8,32
   523                        	.member	f_driver_unload,1384,129,8,32
   524                        	.member	f_driver_command,1416,129,8,32
   525                        	.eos
   526                        	.line	270
   527                        	.file	"G:\devprojects\c256Foenix\fxos\FXOSWork
                    space\FXOSv1\src\fxos.h",19
   528                        	.file	"G:\devprojects\c256Foenix\fxos\FXOSWork
                    space\FXOSv1\src\fxconsole.h",0
   529                        	.file	"G:\devtools\WDCTools\wdc\Tools\include\
  Thu Dec  3 2020 22:25                                                Page 11


                    string.h",0
   530                        	.line	134
   531                        	.file	"G:\devprojects\c256Foenix\fxos\FXOSWork
                    space\FXOSv1\src\fxconsole.h",5
   532                        	.file	"G:\devtools\WDCTools\wdc\Tools\include\
                    stdlib.h",0
   533                        	.line	205
   534                        	.file	"G:\devprojects\c256Foenix\fxos\FXOSWork
                    space\FXOSv1\src\fxconsole.h",6
   535                        	.file	"G:\devprojects\c256Foenix\fxos\FXOSWork
                    space\FXOSv1\src\fxtypes.h",0
   536                        	.line	708
   537                        	.file	"G:\devprojects\c256Foenix\fxos\FXOSWork
                    space\FXOSv1\src\fxconsole.h",7
   538                        	.file	"G:\devprojects\c256Foenix\fxos\FXOSWork
                    space\FXOSv1\src\fxc256fmx.h",0
   539                        	.line	1325
   540                        	.file	"G:\devprojects\c256Foenix\fxos\FXOSWork
                    space\FXOSv1\src\fxconsole.h",10
   541                        	.file	"G:\devprojects\c256Foenix\fxos\FXOSWork
                    space\FXOSv1\src\fxstring.h",0
   542                        	.line	71
   543                        	.file	"G:\devprojects\c256Foenix\fxos\FXOSWork
                    space\FXOSv1\src\fxconsole.h",15
   544                        	.file	"G:\devprojects\c256Foenix\fxos\FXOSWork
                    space\FXOSv1\src\fxeventmanager.h",0
   545                        	.line	743
   546                        	.file	"G:\devprojects\c256Foenix\fxos\FXOSWork
                    space\FXOSv1\src\fxconsole.h",16
   547                        	.stag	_fx_spinner_ctx,48,51
   548                        	.member	index,0,5,8,16
   549                        	.member	spinner,16,142,8,32
   550                        	.eos
   551                        	.stag	_fx_console_ctx,1144,52
   552                        	.member	lineBufferIndex,0,5,8,16
   553                        	.member	lineBuffer,16,110,8,0,128
   554                        	.member	isShifted,1040,14,8,8
   555                        	.member	userData,1048,129,8,32
   556                        	.member	screenBuffer,1080,129,8,32
   557                        	.member	Reserved1,1112,129,8,32
   558                        	.eos
   559                        	.stag	_token,64,53
   560                        	.member	type,0,5,8,16
   561                        	.member	depth,16,16,8,16
   562                        	.member	text,32,142,8,32
   563                        	.eos
   564                        	.stag	_command_args,64,54
   565                        	.member	proc,0,656,8,32
   566                        	.member	tokens,32,138,8,32,2
   567                        	.eos
   568                        	.line	171
   569                        	.file	"G:\devprojects\c256Foenix\fxos\FXOSWork
                    space\FXOSv1\src\fxos.h",20
   570                        	.file	"G:\devprojects\c256Foenix\fxos\FXOSWork
                    space\FXOSv1\src\fxstring.h",0
   571                        	.line	71
   572                        	.file	"G:\devprojects\c256Foenix\fxos\FXOSWork
                    space\FXOSv1\src\fxos.h",21
  Thu Dec  3 2020 22:25                                                Page 12


   573                        	.file	"G:\devprojects\c256Foenix\fxos\FXOSWork
                    space\FXOSv1\src\fxnode.h",0
   574                        	.line	61
   575                        	.file	"G:\devprojects\c256Foenix\fxos\FXOSWork
                    space\FXOSv1\src\fxos.h",22
   576                        	.line	25
   577                        	.file	"G:\devprojects\c256Foenix\fxos\FXOSWork
                    space\FXOSv1\src\fxeventmanager.h",5
   578                        	.file	"G:\devprojects\c256Foenix\fxos\FXOSWork
                    space\FXOSv1\src\fxexec.h",0
   579                        	.file	"G:\devprojects\c256Foenix\fxos\FXOSWork
                    space\FXOSv1\src\fxtypes.h",0
   580                        	.line	708
   581                        	.file	"G:\devprojects\c256Foenix\fxos\FXOSWork
                    space\FXOSv1\src\fxexec.h",5
   582                        	.line	52
   583                        	.file	"G:\devprojects\c256Foenix\fxos\FXOSWork
                    space\FXOSv1\src\fxeventmanager.h",6
   584                        	.file	"G:\devprojects\c256Foenix\fxos\FXOSWork
                    space\FXOSv1\src\fxnode.h",0
   585                        	.line	61
   586                        	.file	"G:\devprojects\c256Foenix\fxos\FXOSWork
                    space\FXOSv1\src\fxeventmanager.h",7
   587                        	.file	"G:\devprojects\c256Foenix\fxos\FXOSWork
                    space\FXOSv1\src\fxconsole.h",0
   588                        	.line	171
   589                        	.file	"G:\devprojects\c256Foenix\fxos\FXOSWork
                    space\FXOSv1\src\fxeventmanager.h",8
   590                        	.file	"G:\devprojects\c256Foenix\fxos\FXOSWork
                    space\FXOSv1\src\fxwindowmanager.h",0
   591                        	.file	"G:\devprojects\c256Foenix\fxos\FXOSWork
                    space\FXOSv1\src\fxtypes.h",0
   592                        	.line	708
   593                        	.file	"G:\devprojects\c256Foenix\fxos\FXOSWork
                    space\FXOSv1\src\fxwindowmanager.h",5
   594                        	.file	"G:\devprojects\c256Foenix\fxos\FXOSWork
                    space\FXOSv1\src\fxos.h",0
   595                        	.line	25
   596                        	.file	"G:\devprojects\c256Foenix\fxos\FXOSWork
                    space\FXOSv1\src\fxwindowmanager.h",6
   597                        	.file	"G:\devprojects\c256Foenix\fxos\FXOSWork
                    space\FXOSv1\src\fxmemorymanager.h",0
   598                        	.file	"G:\devprojects\c256Foenix\fxos\FXOSWork
                    space\FXOSv1\src\fxos.h",0
   599                        	.line	25
   600                        	.file	"G:\devprojects\c256Foenix\fxos\FXOSWork
                    space\FXOSv1\src\fxmemorymanager.h",5
   601                        	.file	"G:\devprojects\c256Foenix\fxos\FXOSWork
                    space\FXOSv1\src\umm_malloc_cfg.h",0
   602                        	.file	"G:\devprojects\c256Foenix\fxos\FXOSWork
                    space\FXOSv1\src\fxos_build_parameters.h",0
   603                        	.line	32
   604                        	.file	"G:\devprojects\c256Foenix\fxos\FXOSWork
                    space\FXOSv1\src\umm_malloc_cfg.h",8
   605                        	.stag	UMM_HEAP_INFO_t,256,55
   606                        	.member	totalEntries,0,18,8,32
   607                        	.member	usedEntries,32,18,8,32
   608                        	.member	freeEntries,64,18,8,32
  Thu Dec  3 2020 22:25                                                Page 13


   609                        	.member	totalBlocks,96,18,8,32
   610                        	.member	usedBlocks,128,18,8,32
   611                        	.member	freeBlocks,160,18,8,32
   612                        	.member	maxFreeContiguousBlocks,192,18,8,32
   613                        	.member	blockSize,224,18,8,32
   614                        	.eos
   615                        	.line	199
   616                        	.file	"G:\devprojects\c256Foenix\fxos\FXOSWork
                    space\FXOSv1\src\fxmemorymanager.h",6
   617                        	.file	"G:\devprojects\c256Foenix\fxos\FXOSWork
                    space\FXOSv1\src\umm_malloc.h",0
   618                        	.file	"G:\devprojects\c256Foenix\fxos\FXOSWork
                    space\FXOSv1\src\fxtypes.h",0
   619                        	.line	708
   620                        	.file	"G:\devprojects\c256Foenix\fxos\FXOSWork
                    space\FXOSv1\src\umm_malloc.h",11
   621                        	.line	24
   622                        	.file	"G:\devprojects\c256Foenix\fxos\FXOSWork
                    space\FXOSv1\src\fxmemorymanager.h",7
   623                        	.stag	_fx_memory_map,2072,56
   624                        	.member	availableMemory,0,18,8,32
   625                        	.member	valid_segments,32,110,8,0,255
   626                        	.eos
   627                        	.line	39
   628                        	.file	"G:\devprojects\c256Foenix\fxos\FXOSWork
                    space\FXOSv1\src\fxwindowmanager.h",7
   629                        	.file	"G:\devprojects\c256Foenix\fxos\FXOSWork
                    space\FXOSv1\src\fxeventmanager.h",0
   630                        	.line	743
   631                        	.file	"G:\devprojects\c256Foenix\fxos\FXOSWork
                    space\FXOSv1\src\fxwindowmanager.h",8
   632                        	.file	"G:\devprojects\c256Foenix\fxos\FXOSWork
                    space\FXOSv1\src\fxgui.h",0
   633                        	.file	"G:\devprojects\c256Foenix\fxos\FXOSWork
                    space\FXOSv1\src\fxfont.h",0
   634                        	.file	"G:\devprojects\c256Foenix\fxos\FXOSWork
                    space\FXOSv1\src\fxtypes.h",0
   635                        	.line	708
   636                        	.file	"G:\devprojects\c256Foenix\fxos\FXOSWork
                    space\FXOSv1\src\fxfont.h",6
   637                        	.line	64
   638                        	.file	"G:\devprojects\c256Foenix\fxos\FXOSWork
                    space\FXOSv1\src\fxgui.h",4
   639                        	.stag	_click_detected,64,57
   640                        	.member	window,0,138,8,32,27
   641                        	.member	handler,32,641,8,32
   642                        	.eos
   643                        	.stag	_current_palette_map,400,58
   644                        	.member	CUR_DESKTOP,0,5,8,16
   645                        	.member	CUR_BACKGROUND,16,5,8,16
   646                        	.member	CUR_FONT,32,5,8,16
   647                        	.member	CUR_SELECTED_FONT,48,5,8,16
   648                        	.member	CUR_HIGHLIGHT_COLOR,64,5,8,16
   649                        	.member	CUR_WINDOWFRAME,80,5,8,16
   650                        	.member	CUR_WINDOWBORDER,96,5,8,16
   651                        	.member	CUR_WINDOWSHADOW,112,5,8,16
   652                        	.member	CUR_MENU,128,5,8,16
   653                        	.member	CUR_GADGET,144,5,8,16
  Thu Dec  3 2020 22:25                                                Page 14


   654                        	.member	CUR_COLOR,160,101,8,0,15
   655                        	.eos
   656                        	.line	264
   657                        	.file	"G:\devprojects\c256Foenix\fxos\FXOSWork
                    space\FXOSv1\src\fxwindowmanager.h",9
   658                        	.stag	_childMessage_t,64,59
   659                        	.member	msgType,0,16,8,16
   660                        	.member	msgData,16,129,8,32
   661                        	.member	dataSize,48,16,8,16
   662                        	.eos
   663                        	.line	362
   664                        	.file	"G:\devprojects\c256Foenix\fxos\FXOSWork
                    space\FXOSv1\src\fxeventmanager.h",9
   665                        	.stag	_fx_main_loopvars,16,60
   666                        	.member	dummy,0,5,8,16
   667                        	.eos
   668                        	.stag	_fxMouseMessageData,64,61
   669                        	.member	button1,0,14,8,8
   670                        	.member	button2,8,14,8,8
   671                        	.member	button3,16,14,8,8
   672                        	.member	button4,24,14,8,8
   673                        	.member	x,32,16,8,16
   674                        	.member	y,48,16,8,16
   675                        	.eos
   676                        	.stag	_fx_eventProcess,64,62
   677                        	.member	process,0,138,8,32,17
   678                        	.member	eventProc,32,641,8,32
   679                        	.eos
   680                        	.stag	_mouse_msg_state,184,63
   681                        	.member	lastEvent,0,18,8,32
   682                        	.member	buttonLeftDown,32,14,8,8
   683                        	.member	lastLeftDown,40,18,8,32
   684                        	.member	buttonRightDown,72,14,8,8
   685                        	.member	lastRightDown,80,18,8,32
   686                        	.member	buttonMiddleDown,112,14,8,8
   687                        	.member	lastMiddleDown,120,18,8,32
   688                        	.member	lastX,152,16,8,16
   689                        	.member	lastY,168,16,8,16
   690                        	.eos
   691                        	.line	743
   692                        	.file	"G:\devprojects\c256Foenix\fxos\FXOSWork
                    space\FXOSv1\src\fxos_desktop_proc.h",14
   693                        	.file	"G:\devprojects\c256Foenix\fxos\FXOSWork
                    space\FXOSv1\src\fxgui.h",0
   694                        	.line	264
   695                        	.file	"G:\devprojects\c256Foenix\fxos\FXOSWork
                    space\FXOSv1\src\fxos_desktop_proc.h",15
   696                        	.file	"G:\devprojects\c256Foenix\fxos\FXOSWork
                    space\FXOSv1\src\fxwindowmanager.h",0
   697                        	.line	362
   698                        	.file	"G:\devprojects\c256Foenix\fxos\FXOSWork
                    space\FXOSv1\src\fxos_desktop_proc.h",16
   699                        	.line	62
   700                        	.file	"G:\devprojects\c256Foenix\fxos\FXOSWork
                    space\FXOSv1\src\fxos_desktop_proc.c",2
   701                        ;#include "fxdos.h"
   702                        	.file	"G:\devprojects\c256Foenix\fxos\FXOSWork
                    space\FXOSv1\src\fxdos.h",0
  Thu Dec  3 2020 22:25                                                Page 15


   703                        	.file	"G:\devprojects\c256Foenix\fxos\FXOSWork
                    space\FXOSv1\src\fxtypes.h",0
   704                        	.line	708
   705                        	.file	"G:\devprojects\c256Foenix\fxos\FXOSWork
                    space\FXOSv1\src\fxdos.h",5
   706                        	.stag	_fx_sd_direntry,256,64
   707                        	.member	filename,0,110,8,0,11
   708                        	.member	type,88,14,8,8
   709                        	.member	attrs,96,110,8,0,20
   710                        	.eos
   711                        	.stag	_fx_info,416,65
   712                        	.member	stgName,0,110,8,0,32
   713                        	.member	Reserved1,256,14,8,8
   714                        	.member	stgType,264,16,8,16
   715                        	.member	Reserved2,280,14,8,8
   716                        	.member	stgReserved,288,110,8,0,16
   717                        	.eos
   718                        	.stag	_fx_fileinfo,136,66
   719                        	.member	type,0,14,8,8
   720                        	.member	pFilename,8,142,8,32
   721                        	.member	lSize,40,18,8,32
   722                        	.member	lcreateDate,72,18,8,32
   723                        	.member	lchangeDate,104,18,8,32
   724                        	.eos
   725                        	.stag	_FX_FAT_DIR_INFO,256,67
   726                        	.member	DIR_Name,0,110,8,0,11
   727                        	.member	DIR_Attr,88,14,8,8
   728                        	.member	DIR_NTRes,96,14,8,8
   729                        	.member	DIR_CrtTimeTenth,104,14,8,8
   730                        	.member	DIR_CrtTime,112,16,8,16
   731                        	.member	DIR_CrtDate,128,16,8,16
   732                        	.member	DIR_LstAccDate,144,16,8,16
   733                        	.member	DIR_FstClusHI,160,16,8,16
   734                        	.member	DIR_WrtTime,176,16,8,16
   735                        	.member	DIR_WrtDate,192,16,8,16
   736                        	.member	DIR_FstClusLO,208,16,8,16
   737                        	.member	DIR_FileSize,224,18,8,32
   738                        	.eos
   739                        	.stag	fat_extBS_32,416,68
   740                        	.member	table_size_32,0,18,8,32
   741                        	.member	extended_flags,32,16,8,16
   742                        	.member	fat_version,48,16,8,16
   743                        	.member	root_cluster,64,18,8,32
   744                        	.member	fat_info,96,16,8,16
   745                        	.member	backup_BS_sector,112,16,8,16
   746                        	.member	reserved_0,128,110,8,0,12
   747                        	.member	drive_number,224,14,8,8
   748                        	.member	reserved_1,232,14,8,8
   749                        	.member	boot_signature,240,14,8,8
   750                        	.member	volume_id,248,16,8,16
   751                        	.member	volume_label,264,110,8,0,11
   752                        	.member	fat_type_label,352,110,8,0,8
   753                        	.eos
   754                        	.stag	fat_extBS_16,192,69
   755                        	.member	bios_drive_num,0,14,8,8
   756                        	.member	reserved1,8,14,8,8
   757                        	.member	boot_signature,16,14,8,8
   758                        	.member	volume_id,24,16,8,16
  Thu Dec  3 2020 22:25                                                Page 16


   759                        	.member	volume_label,40,110,8,0,11
   760                        	.member	fat_type_label,128,110,8,0,8
   761                        	.eos
   762                        	.stag	fat_BS,688,70
   763                        	.member	bootjmp,0,110,8,0,3
   764                        	.member	oem_name,24,110,8,0,8
   765                        	.member	bytes_per_sector,88,16,8,16
   766                        	.member	sectors_per_cluster,104,14,8,8
   767                        	.member	reserved_sector_count,112,16,8,16
   768                        	.member	table_count,128,14,8,8
   769                        	.member	root_entry_count,136,16,8,16
   770                        	.member	total_sectors_16,152,16,8,16
   771                        	.member	media_type,168,14,8,8
   772                        	.member	table_size_16,176,16,8,16
   773                        	.member	sectors_per_track,192,16,8,16
   774                        	.member	head_side_count,208,16,8,16
   775                        	.member	hidden_sector_count,224,16,8,16
   776                        	.member	total_sectors_32,240,16,8,16
   777                        	.member	extended_section,256,110,8,0,54
   778                        	.eos
   779                        	.stag	__FATBootSector,928,71
   780                        	.member	bootjmp,0,110,8,0,3
   781                        	.member	oem_name,24,110,8,0,8
   782                        	.member	bytes_per_sector,88,16,8,16
   783                        	.member	sectors_per_cluster,104,14,8,8
   784                        	.member	reserved_sector_count,112,16,8,16
   785                        	.member	fat_table_count,128,14,8,8
   786                        	.member	root_entry_count,136,16,8,16
   787                        	.member	total_sectors_16,152,16,8,16
   788                        	.member	media_type,168,14,8,8
   789                        	.member	sectors_per_fat,176,16,8,16
   790                        	.member	sectors_per_track,192,16,8,16
   791                        	.member	head_side_count,208,16,8,16
   792                        	.member	hidden_sector_count,224,18,8,32
   793                        	.member	total_sectors_32,256,18,8,32
   794                        	.member	drive_number,288,14,8,8
   795                        	.member	reserved1,296,14,8,8
   796                        	.member	boot_sig,304,14,8,8
   797                        	.member	vol_id,312,18,8,32
   798                        	.member	vol_name,344,110,8,0,11
   799                        	.member	file_system_type,432,110,8,0,8
   800                        	.member	extended_section,496,110,8,0,54
   801                        	.eos
   802                        	.stag	__PARTITIONTABLE,128,72
   803                        	.member	first_byte,0,14,8,8
   804                        	.member	start_chs,8,110,8,0,3
   805                        	.member	partition_type,32,14,8,8
   806                        	.member	end_chs,40,110,8,0,3
   807                        	.member	start_sector,64,18,8,32
   808                        	.member	length_sectors,96,18,8,32
   809                        	.eos
   810                        	.stag	fake73_,4096,73
   811                        	.member	jmp,0,110,8,0,3
   812                        	.member	oem,24,110,8,0,8
   813                        	.member	sector_size,88,15,8,16
   814                        	.member	sectors_per_cluster,104,14,8,8
   815                        	.member	reserved_sectors,112,15,8,16
   816                        	.member	number_of_fats,128,14,8,8
  Thu Dec  3 2020 22:25                                                Page 17


   817                        	.member	root_dir_entries,136,15,8,16
   818                        	.member	total_sectors_short,152,15,8,16
   819                        	.member	media_descriptor,168,14,8,8
   820                        	.member	fat_size_sectors,176,15,8,16
   821                        	.member	sectors_per_track,192,15,8,16
   822                        	.member	number_of_heads,208,15,8,16
   823                        	.member	hidden_sectors,224,18,8,32
   824                        	.member	total_sectors_long,256,18,8,32
   825                        	.member	drive_number,288,14,8,8
   826                        	.member	current_head,296,14,8,8
   827                        	.member	boot_signature,304,14,8,8
   828                        	.member	volume_id,312,18,8,32
   829                        	.member	volume_label,344,110,8,0,11
   830                        	.member	fs_type,432,110,8,0,8
   831                        	.member	boot_code,496,110,8,0,448
   832                        	.member	boot_sector_signature,4080,15,8,16
   833                        	.eos
   834                        	.stag	__FAT16ENTRY,256,74
   835                        	.member	filename,0,110,8,0,8
   836                        	.member	ext,64,110,8,0,3
   837                        	.member	attributes,88,14,8,8
   838                        	.member	reserved,96,110,8,0,10
   839                        	.member	modify_time,176,16,8,16
   840                        	.member	modify_date,192,16,8,16
   841                        	.member	starting_cluster,208,16,8,16
   842                        	.member	file_size,224,18,8,32
   843                        	.eos
   844                        	.stag	__FAT16ENTRYLONG,288,75
   845                        	.member	filename,0,110,8,0,8
   846                        	.member	ext,64,110,8,0,3
   847                        	.member	attributes,88,14,8,8
   848                        	.member	reserved,96,110,8,0,10
   849                        	.member	modify_time,176,16,8,16
   850                        	.member	modify_date,192,16,8,16
   851                        	.member	starting_cluster,208,16,8,16
   852                        	.member	file_size,224,18,8,32
   853                        	.member	plongfileName,256,142,8,32
   854                        	.eos
   855                        	.stag	_LongFileName,256,76
   856                        	.member	sequenceNo,0,14,8,8
   857                        	.member	fileName_Part1,8,110,8,0,10
   858                        	.member	fileattribute,88,14,8,8
   859                        	.member	type,96,14,8,8
   860                        	.member	checksum,104,14,8,8
   861                        	.member	fileName_Part2,112,110,8,0,12
   862                        	.member	fstclusLO,208,5,8,16
   863                        	.member	fileName_Part3,224,110,8,0,4
   864                        	.eos
   865                        	.stag	_IDSECTOR,2048,77
   866                        	.member	wGenConfig,0,16,8,16
   867                        	.member	wNumCyls,16,16,8,16
   868                        	.member	wReserved,32,16,8,16
   869                        	.member	wNumHeads,48,16,8,16
   870                        	.member	wBytesPerTrack,64,16,8,16
   871                        	.member	wBytesPerSector,80,16,8,16
   872                        	.member	wSectorsPerTrack,96,16,8,16
   873                        	.member	wVendorUnique,112,112,8,0,3
   874                        	.member	sSerialNumber,160,110,8,0,20
  Thu Dec  3 2020 22:25                                                Page 18


   875                        	.member	wBufferType,320,16,8,16
   876                        	.member	wBufferSize,336,16,8,16
   877                        	.member	wECCSize,352,16,8,16
   878                        	.member	sFirmwareRev,368,110,8,0,8
   879                        	.member	sModelNumber,432,110,8,0,40
   880                        	.member	wMoreVendorUnique,752,16,8,16
   881                        	.member	wDoubleWordIO,768,16,8,16
   882                        	.member	wCapabilities,784,16,8,16
   883                        	.member	wReserved1,800,16,8,16
   884                        	.member	wPIOTiming,816,16,8,16
   885                        	.member	wDMATiming,832,16,8,16
   886                        	.member	wBS,848,16,8,16
   887                        	.member	wNumCurrentCyls,864,16,8,16
   888                        	.member	wNumCurrentHeads,880,16,8,16
   889                        	.member	wNumCurrentSectorsPerTrack,896,16,8,16
   890                        	.member	ulCurrentSectorCapacity,912,18,8,32
   891                        	.member	wMultSectorStuff,944,16,8,16
   892                        	.member	ulTotalAddressableSectors,960,18,8,32
   893                        	.member	wSingleWordDMA,992,16,8,16
   894                        	.member	wMultiWordDMA,1008,16,8,16
   895                        	.member	bReserved,1024,110,8,0,128
   896                        	.eos
   897                        	.stag	fake78_,16,78
   898                        	.member	Reserved1,0,16,17,1
   899                        	.member	Retired3,1,16,17,1
   900                        	.member	ResponseIncomplete,2,16,17,1
   901                        	.member	Retired2,3,16,17,3
   902                        	.member	FixedDevice,6,16,17,1
   903                        	.member	RemovableMedia,7,16,17,1
   904                        	.member	Retired1,8,16,17,7
   905                        	.member	DeviceType,15,16,17,1
   906                        	.eos
   907                        	.stag	fake79_,16,79
   908                        	.member	FeatureSupported,0,16,17,1
   909                        	.member	Reserved,1,16,17,15
   910                        	.eos
   911                        	.stag	fake80_,32,80
   912                        	.member	CurrentLongPhysicalSectorAlignment,0,14,
                    17,2
   913                        	.member	ReservedByte49,2,14,17,6
   914                        	.member	DmaSupported,8,14,17,1
   915                        	.member	LbaSupported,9,14,17,1
   916                        	.member	IordyDisable,10,14,17,1
   917                        	.member	IordySupported,11,14,17,1
   918                        	.member	Reserved1,12,14,17,1
   919                        	.member	StandybyTimerSupport,13,14,17,1
   920                        	.member	Reserved2,14,14,17,2
   921                        	.member	ReservedWord50,16,16,8,16
   922                        	.eos
   923                        	.stag	fake81_,16,81
   924                        	.member	ZonedCapabilities,0,16,17,2
   925                        	.member	NonVolatileWriteCache,2,16,17,1
   926                        	.member	ExtendedUserAddressableSectorsSupported,
                    3,16,17,1
   927                        	.member	DeviceEncryptsAllUserData,4,16,17,1
   928                        	.member	ReadZeroAfterTrimSupported,5,16,17,1
   929                        	.member	Optional28BitCommandsSupported,6,16,17,1
   930                        	.member	IEEE1667,7,16,17,1
  Thu Dec  3 2020 22:25                                                Page 19


   931                        	.member	DownloadMicrocodeDmaSupported,8,16,17,1
   932                        	.member	SetMaxSetPasswordUnlockDmaSupported,9,16
                    ,17,1
   933                        	.member	WriteBufferDmaSupported,10,16,17,1
   934                        	.member	ReadBufferDmaSupported,11,16,17,1
   935                        	.member	DeviceConfigIdentifySetDmaSupported,12,1
                    6,17,1
   936                        	.member	LPSAERCSupported,13,16,17,1
   937                        	.member	DeterministicReadAfterTrimSupported,14,1
                    6,17,1
   938                        	.member	CFastSpecSupported,15,16,17,1
   939                        	.eos
   940                        	.stag	fake82_,32,82
   941                        	.member	Reserved0,0,16,17,1
   942                        	.member	SataGen1,1,16,17,1
   943                        	.member	SataGen2,2,16,17,1
   944                        	.member	SataGen3,3,16,17,1
   945                        	.member	Reserved1,4,16,17,4
   946                        	.member	NCQ,8,16,17,1
   947                        	.member	HIPM,9,16,17,1
   948                        	.member	PhyEvents,10,16,17,1
   949                        	.member	NcqUnload,11,16,17,1
   950                        	.member	NcqPriority,12,16,17,1
   951                        	.member	HostAutoPS,13,16,17,1
   952                        	.member	DeviceAutoPS,14,16,17,1
   953                        	.member	ReadLogDMA,15,16,17,1
   954                        	.member	Reserved2,16,16,17,1
   955                        	.member	CurrentSpeed,17,16,17,3
   956                        	.member	NcqStreaming,20,16,17,1
   957                        	.member	NcqQueueMgmt,21,16,17,1
   958                        	.member	NcqReceiveSend,22,16,17,1
   959                        	.member	DEVSLPtoReducedPwrState,23,16,17,1
   960                        	.member	Reserved3,24,16,17,8
   961                        	.eos
   962                        	.stag	fake83_,16,83
   963                        	.member	Reserved0,0,16,17,1
   964                        	.member	NonZeroOffsets,1,16,17,1
   965                        	.member	DmaSetupAutoActivate,2,16,17,1
   966                        	.member	DIPM,3,16,17,1
   967                        	.member	InOrderData,4,16,17,1
   968                        	.member	HardwareFeatureControl,5,16,17,1
   969                        	.member	SoftwareSettingsPreservation,6,16,17,1
   970                        	.member	NCQAutosense,7,16,17,1
   971                        	.member	DEVSLP,8,16,17,1
   972                        	.member	HybridInformation,9,16,17,1
   973                        	.member	Reserved1,10,16,17,6
   974                        	.eos
   975                        	.stag	fake84_,16,84
   976                        	.member	Reserved0,0,16,17,1
   977                        	.member	NonZeroOffsets,1,16,17,1
   978                        	.member	DmaSetupAutoActivate,2,16,17,1
   979                        	.member	DIPM,3,16,17,1
   980                        	.member	InOrderData,4,16,17,1
   981                        	.member	HardwareFeatureControl,5,16,17,1
   982                        	.member	SoftwareSettingsPreservation,6,16,17,1
   983                        	.member	DeviceAutoPS,7,16,17,1
   984                        	.member	DEVSLP,8,16,17,1
   985                        	.member	HybridInformation,9,16,17,1
  Thu Dec  3 2020 22:25                                                Page 20


   986                        	.member	Reserved1,10,16,17,6
   987                        	.eos
   988                        	.stag	fake85_,48,85
   989                        	.member	SmartCommands,0,16,17,1
   990                        	.member	SecurityMode,1,16,17,1
   991                        	.member	RemovableMediaFeature,2,16,17,1
   992                        	.member	PowerManagement,3,16,17,1
   993                        	.member	Reserved1,4,16,17,1
   994                        	.member	WriteCache,5,16,17,1
   995                        	.member	LookAhead,6,16,17,1
   996                        	.member	ReleaseInterrupt,7,16,17,1
   997                        	.member	ServiceInterrupt,8,16,17,1
   998                        	.member	DeviceReset,9,16,17,1
   999                        	.member	HostProtectedArea,10,16,17,1
  1000                        	.member	Obsolete1,11,16,17,1
  1001                        	.member	WriteBuffer,12,16,17,1
  1002                        	.member	ReadBuffer,13,16,17,1
  1003                        	.member	Nop,14,16,17,1
  1004                        	.member	Obsolete2,15,16,17,1
  1005                        	.member	DownloadMicrocode,16,16,17,1
  1006                        	.member	DmaQueued,17,16,17,1
  1007                        	.member	Cfa,18,16,17,1
  1008                        	.member	AdvancedPm,19,16,17,1
  1009                        	.member	Msn,20,16,17,1
  1010                        	.member	PowerUpInStandby,21,16,17,1
  1011                        	.member	ManualPowerUp,22,16,17,1
  1012                        	.member	Reserved2,23,16,17,1
  1013                        	.member	SetMax,24,16,17,1
  1014                        	.member	Acoustics,25,16,17,1
  1015                        	.member	BigLba,26,16,17,1
  1016                        	.member	DeviceConfigOverlay,27,16,17,1
  1017                        	.member	FlushCache,28,16,17,1
  1018                        	.member	FlushCacheExt,29,16,17,1
  1019                        	.member	WordValid83,30,16,17,2
  1020                        	.member	SmartErrorLog,32,16,17,1
  1021                        	.member	SmartSelfTest,33,16,17,1
  1022                        	.member	MediaSerialNumber,34,16,17,1
  1023                        	.member	MediaCardPassThrough,35,16,17,1
  1024                        	.member	StreamingFeature,36,16,17,1
  1025                        	.member	GpLogging,37,16,17,1
  1026                        	.member	WriteFua,38,16,17,1
  1027                        	.member	WriteQueuedFua,39,16,17,1
  1028                        	.member	WWN64Bit,40,16,17,1
  1029                        	.member	URGReadStream,41,16,17,1
  1030                        	.member	URGWriteStream,42,16,17,1
  1031                        	.member	ReservedForTechReport,43,16,17,2
  1032                        	.member	IdleWithUnloadFeature,45,16,17,1
  1033                        	.member	WordValid,46,16,17,2
  1034                        	.eos
  1035                        	.stag	fake86_,48,86
  1036                        	.member	SmartCommands,0,16,17,1
  1037                        	.member	SecurityMode,1,16,17,1
  1038                        	.member	RemovableMediaFeature,2,16,17,1
  1039                        	.member	PowerManagement,3,16,17,1
  1040                        	.member	Reserved1,4,16,17,1
  1041                        	.member	WriteCache,5,16,17,1
  1042                        	.member	LookAhead,6,16,17,1
  1043                        	.member	ReleaseInterrupt,7,16,17,1
  Thu Dec  3 2020 22:25                                                Page 21


  1044                        	.member	ServiceInterrupt,8,16,17,1
  1045                        	.member	DeviceReset,9,16,17,1
  1046                        	.member	HostProtectedArea,10,16,17,1
  1047                        	.member	Obsolete1,11,16,17,1
  1048                        	.member	WriteBuffer,12,16,17,1
  1049                        	.member	ReadBuffer,13,16,17,1
  1050                        	.member	Nop,14,16,17,1
  1051                        	.member	Obsolete2,15,16,17,1
  1052                        	.member	DownloadMicrocode,16,16,17,1
  1053                        	.member	DmaQueued,17,16,17,1
  1054                        	.member	Cfa,18,16,17,1
  1055                        	.member	AdvancedPm,19,16,17,1
  1056                        	.member	Msn,20,16,17,1
  1057                        	.member	PowerUpInStandby,21,16,17,1
  1058                        	.member	ManualPowerUp,22,16,17,1
  1059                        	.member	Reserved2,23,16,17,1
  1060                        	.member	SetMax,24,16,17,1
  1061                        	.member	Acoustics,25,16,17,1
  1062                        	.member	BigLba,26,16,17,1
  1063                        	.member	DeviceConfigOverlay,27,16,17,1
  1064                        	.member	FlushCache,28,16,17,1
  1065                        	.member	FlushCacheExt,29,16,17,1
  1066                        	.member	Resrved3,30,16,17,1
  1067                        	.member	Words119_120Valid,31,16,17,1
  1068                        	.member	SmartErrorLog,32,16,17,1
  1069                        	.member	SmartSelfTest,33,16,17,1
  1070                        	.member	MediaSerialNumber,34,16,17,1
  1071                        	.member	MediaCardPassThrough,35,16,17,1
  1072                        	.member	StreamingFeature,36,16,17,1
  1073                        	.member	GpLogging,37,16,17,1
  1074                        	.member	WriteFua,38,16,17,1
  1075                        	.member	WriteQueuedFua,39,16,17,1
  1076                        	.member	WWN64Bit,40,16,17,1
  1077                        	.member	URGReadStream,41,16,17,1
  1078                        	.member	URGWriteStream,42,16,17,1
  1079                        	.member	ReservedForTechReport,43,16,17,2
  1080                        	.member	IdleWithUnloadFeature,45,16,17,1
  1081                        	.member	Reserved4,46,16,17,2
  1082                        	.eos
  1083                        	.stag	fake87_,16,87
  1084                        	.member	TimeRequired,0,16,17,15
  1085                        	.member	ExtendedTimeReported,15,16,17,1
  1086                        	.eos
  1087                        	.stag	fake88_,16,88
  1088                        	.member	TimeRequired,0,16,17,15
  1089                        	.member	ExtendedTimeReported,15,16,17,1
  1090                        	.eos
  1091                        	.stag	fake89_,16,89
  1092                        	.member	LogicalSectorsPerPhysicalSector,0,16,17,
                    4
  1093                        	.member	Reserved0,4,16,17,8
  1094                        	.member	LogicalSectorLongerThan256Words,12,16,17
                    ,1
  1095                        	.member	MultipleLogicalSectorsPerPhysicalSector,
                    13,16,17,1
  1096                        	.member	Reserved1,14,16,17,2
  1097                        	.eos
  1098                        	.stag	fake90_,16,90
  Thu Dec  3 2020 22:25                                                Page 22


  1099                        	.member	ReservedForDrqTechnicalReport,0,16,17,1
  1100                        	.member	WriteReadVerify,1,16,17,1
  1101                        	.member	WriteUncorrectableExt,2,16,17,1
  1102                        	.member	ReadWriteLogDmaExt,3,16,17,1
  1103                        	.member	DownloadMicrocodeMode3,4,16,17,1
  1104                        	.member	FreefallControl,5,16,17,1
  1105                        	.member	SenseDataReporting,6,16,17,1
  1106                        	.member	ExtendedPowerConditions,7,16,17,1
  1107                        	.member	Reserved0,8,16,17,6
  1108                        	.member	WordValid,14,16,17,2
  1109                        	.eos
  1110                        	.stag	fake91_,16,91
  1111                        	.member	ReservedForDrqTechnicalReport,0,16,17,1
  1112                        	.member	WriteReadVerify,1,16,17,1
  1113                        	.member	WriteUncorrectableExt,2,16,17,1
  1114                        	.member	ReadWriteLogDmaExt,3,16,17,1
  1115                        	.member	DownloadMicrocodeMode3,4,16,17,1
  1116                        	.member	FreefallControl,5,16,17,1
  1117                        	.member	SenseDataReporting,6,16,17,1
  1118                        	.member	ExtendedPowerConditions,7,16,17,1
  1119                        	.member	Reserved0,8,16,17,6
  1120                        	.member	Reserved1,14,16,17,2
  1121                        	.eos
  1122                        	.stag	fake92_,16,92
  1123                        	.member	SecuritySupported,0,16,17,1
  1124                        	.member	SecurityEnabled,1,16,17,1
  1125                        	.member	SecurityLocked,2,16,17,1
  1126                        	.member	SecurityFrozen,3,16,17,1
  1127                        	.member	SecurityCountExpired,4,16,17,1
  1128                        	.member	EnhancedSecurityEraseSupported,5,16,17,1
  1129                        	.member	Reserved0,6,16,17,2
  1130                        	.member	SecurityLevel,8,16,17,1
  1131                        	.member	Reserved1,9,16,17,7
  1132                        	.eos
  1133                        	.stag	fake93_,16,93
  1134                        	.member	MaximumCurrentInMA,0,16,17,12
  1135                        	.member	CfaPowerMode1Disabled,12,16,17,1
  1136                        	.member	CfaPowerMode1Required,13,16,17,1
  1137                        	.member	Reserved0,14,16,17,1
  1138                        	.member	Word160Supported,15,16,17,1
  1139                        	.eos
  1140                        	.stag	fake94_,16,94
  1141                        	.member	SupportsTrim,0,16,17,1
  1142                        	.member	Reserved0,1,16,17,15
  1143                        	.eos
  1144                        	.stag	fake95_,16,95
  1145                        	.member	Supported,0,16,17,1
  1146                        	.member	Reserved0,1,16,17,1
  1147                        	.member	WriteSameSuported,2,16,17,1
  1148                        	.member	ErrorRecoveryControlSupported,3,16,17,1
  1149                        	.member	FeatureControlSuported,4,16,17,1
  1150                        	.member	DataTablesSuported,5,16,17,1
  1151                        	.member	Reserved1,6,16,17,6
  1152                        	.member	VendorSpecific,12,16,17,4
  1153                        	.eos
  1154                        	.stag	fake96_,16,96
  1155                        	.member	AlignmentOfLogicalWithinPhysical,0,16,17
                    ,14
  Thu Dec  3 2020 22:25                                                Page 23


  1156                        	.member	Word209Supported,14,16,17,1
  1157                        	.member	Reserved0,15,16,17,1
  1158                        	.eos
  1159                        	.stag	fake97_,16,97
  1160                        	.member	NVCachePowerModeEnabled,0,16,17,1
  1161                        	.member	Reserved0,1,16,17,3
  1162                        	.member	NVCacheFeatureSetEnabled,4,16,17,1
  1163                        	.member	Reserved1,5,16,17,3
  1164                        	.member	NVCachePowerModeVersion,8,16,17,4
  1165                        	.member	NVCacheFeatureSetVersion,12,16,17,4
  1166                        	.eos
  1167                        	.stag	fake98_,16,98
  1168                        	.member	NVCacheEstimatedTimeToSpinUpInSeconds,0,
                    14,8,8
  1169                        	.member	Reserved,8,14,8,8
  1170                        	.eos
  1171                        	.stag	fake99_,16,99
  1172                        	.member	MajorVersion,0,16,17,12
  1173                        	.member	TransportType,12,16,17,4
  1174                        	.eos
  1175                        	.stag	_IDENTIFY_DEVICE_DATA,4096,100
  1176                        	.member	GeneralConfiguration,0,10,8,16,78
  1177                        	.member	NumCylinders,16,16,8,16
  1178                        	.member	SpecificConfiguration,32,16,8,16
  1179                        	.member	NumHeads,48,16,8,16
  1180                        	.member	Retired1Bytes,64,110,8,0,4
  1181                        	.member	NumSectorsPerTrack,96,16,8,16
  1182                        	.member	VendorUnique1Bytes,112,110,8,0,6
  1183                        	.member	SerialNumber,160,110,8,0,20
  1184                        	.member	Retired2,320,112,8,0,2
  1185                        	.member	Obsolete1,352,16,8,16
  1186                        	.member	FirmwareRevision,368,110,8,0,8
  1187                        	.member	ModelNumber,432,110,8,0,40
  1188                        	.member	MaximumBlockTransfer,752,14,8,8
  1189                        	.member	VendorUnique2,760,14,8,8
  1190                        	.member	TrustedComputing,768,10,8,16,79
  1191                        	.member	Capabilities,784,10,8,32,80
  1192                        	.member	ObsoleteWords51,816,112,8,0,2
  1193                        	.member	TranslationFieldsValid,848,16,17,3
  1194                        	.member	Reserved3,851,16,17,5
  1195                        	.member	FreeFallControlSensitivity,856,16,17,8
  1196                        	.member	NumberOfCurrentCylinders,864,16,8,16
  1197                        	.member	NumberOfCurrentHeads,880,16,8,16
  1198                        	.member	CurrentSectorsPerTrack,896,16,8,16
  1199                        	.member	CurrentSectorCapacity,912,18,8,32
  1200                        	.member	CurrentMultiSectorSetting,944,14,8,8
  1201                        	.member	MultiSectorSettingValid,952,14,17,1
  1202                        	.member	ReservedByte59,953,14,17,3
  1203                        	.member	SanitizeFeatureSupported,956,14,17,1
  1204                        	.member	CryptoScrambleExtCommandSupported,957,14
                    ,17,1
  1205                        	.member	OverwriteExtCommandSupported,958,14,17,1
  1206                        	.member	BlockEraseExtCommandSupported,959,14,17,
                    1
  1207                        	.member	UserAddressableSectors,960,18,8,32
  1208                        	.member	ObsoleteWord62,992,16,8,16
  1209                        	.member	MultiWordDMASupport,1008,16,17,8
  1210                        	.member	MultiWordDMAActive,1016,16,17,8
  Thu Dec  3 2020 22:25                                                Page 24


  1211                        	.member	AdvancedPIOModes,1024,16,17,8
  1212                        	.member	ReservedByte64,1032,16,17,8
  1213                        	.member	MinimumMWXferCycleTime,1040,16,8,16
  1214                        	.member	RecommendedMWXferCycleTime,1056,16,8,16
  1215                        	.member	MinimumPIOCycleTime,1072,16,8,16
  1216                        	.member	MinimumPIOCycleTimeIORDY,1088,16,8,16
  1217                        	.member	AdditionalSupported,1104,10,8,16,81
  1218                        	.member	ReservedWords70,1120,112,8,0,5
  1219                        	.member	QueueDepth,1200,16,17,5
  1220                        	.member	ReservedWord75,1205,16,17,11
  1221                        	.member	SerialAtaCapabilities,1216,10,8,32,82
  1222                        	.member	SerialAtaFeaturesSupported,1248,10,8,16,
                    83
  1223                        	.member	SerialAtaFeaturesEnabled,1264,10,8,16,84
  1224                        	.member	MajorRevision,1280,16,8,16
  1225                        	.member	MinorRevision,1296,16,8,16
  1226                        	.member	CommandSetSupport,1312,10,8,48,85
  1227                        	.member	CommandSetActive,1360,10,8,48,86
  1228                        	.member	UltraDMASupport,1408,16,17,8
  1229                        	.member	UltraDMAActive,1416,16,17,8
  1230                        	.member	NormalSecurityEraseUnit,1424,10,8,16,87
  1231                        	.member	EnhancedSecurityEraseUnit,1440,10,8,16,8
                    8
  1232                        	.member	CurrentAPMLevel,1456,16,17,8
  1233                        	.member	ReservedWord91,1464,16,17,8
  1234                        	.member	MasterPasswordID,1472,16,8,16
  1235                        	.member	HardwareResetResult,1488,16,8,16
  1236                        	.member	CurrentAcousticValue,1504,16,17,8
  1237                        	.member	RecommendedAcousticValue,1512,16,17,8
  1238                        	.member	StreamMinRequestSize,1520,16,8,16
  1239                        	.member	StreamingTransferTimeDMA,1536,16,8,16
  1240                        	.member	StreamingAccessLatencyDMAPIO,1552,16,8,1
                    6
  1241                        	.member	StreamingPerfGranularity,1568,18,8,32
  1242                        	.member	Max48BitLBA,1600,114,8,0,2
  1243                        	.member	StreamingTransferTime,1664,16,8,16
  1244                        	.member	DsmCap,1680,16,8,16
  1245                        	.member	PhysicalLogicalSectorSize,1696,10,8,16,8
                    9
  1246                        	.member	InterSeekDelay,1712,16,8,16
  1247                        	.member	WorldWideName,1728,112,8,0,4
  1248                        	.member	ReservedForWorldWideName128,1792,112,8,0
                    ,4
  1249                        	.member	ReservedForTlcTechnicalReport,1856,16,8,
                    16
  1250                        	.member	WordsPerLogicalSector,1872,112,8,0,2
  1251                        	.member	CommandSetSupportExt,1904,10,8,16,90
  1252                        	.member	CommandSetActiveExt,1920,10,8,16,91
  1253                        	.member	ReservedForExpandedSupportandActive,1936
                    ,112,8,0,6
  1254                        	.member	MsnSupport,2032,16,17,2
  1255                        	.member	ReservedWord127,2034,16,17,14
  1256                        	.member	SecurityStatus,2048,10,8,16,92
  1257                        	.member	ReservedWord129,2064,112,8,0,31
  1258                        	.member	CfaPowerMode1,2560,10,8,16,93
  1259                        	.member	ReservedForCfaWord161,2576,112,8,0,7
  1260                        	.member	NominalFormFactor,2688,16,17,4
  1261                        	.member	ReservedWord168,2692,16,17,12
  Thu Dec  3 2020 22:25                                                Page 25


  1262                        	.member	DataSetManagementFeature,2704,10,8,16,94
  1263                        	.member	AdditionalProductID,2720,112,8,0,4
  1264                        	.member	ReservedForCfaWord174,2784,112,8,0,2
  1265                        	.member	CurrentMediaSerialNumber,2816,112,8,0,30
  1266                        	.member	SCTCommandTransport,3296,10,8,16,95
  1267                        	.member	ReservedWord207,3312,112,8,0,2
  1268                        	.member	BlockAlignment,3344,10,8,16,96
  1269                        	.member	WriteReadVerifySectorCountMode3Only,3360
                    ,112,8,0,2
  1270                        	.member	WriteReadVerifySectorCountMode2Only,3392
                    ,112,8,0,2
  1271                        	.member	NVCacheCapabilities,3424,10,8,16,97
  1272                        	.member	NVCacheSizeLSW,3440,16,8,16
  1273                        	.member	NVCacheSizeMSW,3456,16,8,16
  1274                        	.member	NominalMediaRotationRate,3472,16,8,16
  1275                        	.member	ReservedWord218,3488,16,8,16
  1276                        	.member	NVCacheOptions,3504,10,8,16,98
  1277                        	.member	WriteReadVerifySectorCountMode,3520,16,1
                    7,8
  1278                        	.member	ReservedWord220,3528,16,17,8
  1279                        	.member	ReservedWord221,3536,16,8,16
  1280                        	.member	TransportMajorVersion,3552,10,8,16,99
  1281                        	.member	TransportMinorVersion,3568,16,8,16
  1282                        	.member	ReservedWord224,3584,112,8,0,6
  1283                        	.member	ExtendedNumberOfUserAddressableSectors,3
                    680,114,8,0,2
  1284                        	.member	MinBlocksPerDownloadMicrocodeMode03,3744
                    ,16,8,16
  1285                        	.member	MaxBlocksPerDownloadMicrocodeMode03,3760
                    ,16,8,16
  1286                        	.member	ReservedWord236,3776,112,8,0,19
  1287                        	.member	Signature,4080,16,17,8
  1288                        	.member	CheckSum,4088,16,17,8
  1289                        	.eos
  1290                        	.stag	_FXDosDevice,5648,101
  1291                        	.member	type,0,14,8,8
  1292                        	.member	initialized,8,14,8,8
  1293                        	.member	devdata,16,129,8,32
  1294                        	.member	devstatus,48,14,8,8
  1295                        	.member	bootSector,56,10,8,928,71
  1296                        	.member	partitionTable,984,10,8,128,72
  1297                        	.member	fileAllocationTable,1112,110,8,0,512
  1298                        	.member	bsOffset,5208,18,8,32
  1299                        	.member	rootDirSectors,5240,18,8,32
  1300                        	.member	root_entry_count,5272,5,8,16
  1301                        	.member	rootEntriesPerPage,5288,5,8,16
  1302                        	.member	sectors_per_cluster,5304,5,8,16
  1303                        	.member	fatTableOffset,5320,18,8,32
  1304                        	.member	volume_name,5352,110,8,0,12
  1305                        	.member	root_volume_name,5448,110,8,0,12
  1306                        	.member	errorCode,5544,14,8,8
  1307                        	.member	pfInit,5552,641,8,32
  1308                        	.member	pfReader,5584,654,8,32
  1309                        	.member	pfWriter,5616,654,8,32
  1310                        	.eos
  1311                        	.line	705
  1312                        	.file	"G:\devprojects\c256Foenix\fxos\FXOSWork
                    space\FXOSv1\src\fxos_desktop_proc.c",3
  Thu Dec  3 2020 22:25                                                Page 26


  1313                        ;#include "fxnode.h"
  1314                        	.file	"G:\devprojects\c256Foenix\fxos\FXOSWork
                    space\FXOSv1\src\fxnode.h",0
  1315                        	.line	61
  1316                        	.file	"G:\devprojects\c256Foenix\fxos\FXOSWork
                    space\FXOSv1\src\fxos_desktop_proc.c",4
  1317                        ;#include "fxmemorymanager.h"
  1318                        	.file	"G:\devprojects\c256Foenix\fxos\FXOSWork
                    space\FXOSv1\src\fxmemorymanager.h",0
  1319                        	.line	39
  1320                        	.file	"G:\devprojects\c256Foenix\fxos\FXOSWork
                    space\FXOSv1\src\fxos_desktop_proc.c",5
  1321                        ;#include "fxgui.h"
  1322                        	.file	"G:\devprojects\c256Foenix\fxos\FXOSWork
                    space\FXOSv1\src\fxgui.h",0
  1323                        	.line	264
  1324                        	.file	"G:\devprojects\c256Foenix\fxos\FXOSWork
                    space\FXOSv1\src\fxos_desktop_proc.c",6
  1325                        ;#include "fxmenumanager.h"
  1326                        	.file	"G:\devprojects\c256Foenix\fxos\FXOSWork
                    space\FXOSv1\src\fxmenumanager.h",0
  1327                        	.line	26
  1328                        	.file	"G:\devprojects\c256Foenix\fxos\FXOSWork
                    space\FXOSv1\src\fxos_desktop_proc.c",7
  1329                        ;
  1330                        ;int tempX = 0;
  1331                        	data
  1332                        	xdef	~~tempX
  1333                        ~~tempX:
  1334 00:0000: 00 00        	dw	$0
  1335 00:0002:              	ends
  1336                        ;int tempY = 0;
  1337                        	data
  1338                        	xdef	~~tempY
  1339                        ~~tempY:
  1340 00:0002: 00 00        	dw	$0
  1341 00:0004:              	ends
  1342                        ;
  1343                        ;LPCHAR textData = "Test String.";
  1344                        	data
  1345                        	xdef	~~textData
  1346                        ~~textData:
  1347 00:0004: xx xx xx xx  	dl	L1+0
  1348 00:0008:              	ends
  1349                        	data
  1350                        L1:
  1351 00:0008: 54 65 73 74  	db	$54,$65,$73,$74,$20,$53,$74,$72,$69,$6E,
                    $67,$2E,$00
       00:000C: 20 53 74 72 
       00:0010: 69 6E 67 2E 
       00:0014: 00 
  1352 00:0015:              	ends
  1353                        ;
  1354                        ;static int xscale,yscale,xoffset,yoffset,p[4];
  1355                        ;static float a[4],b[4],c[4],d[4],e[4],f[4];
  1356                        ;
  1357                        ;void drawImage(int color);
  1358                        ;void drawMandelbrot(void);
  Thu Dec  3 2020 22:25                                                Page 27


  1359                        ;
  1360                        ;
  1361                        ;#define DEBUG_MOUSE_ENABLE 		0
  1362                        ;#define DEBUG_MOUSE_CX 	   		1
  1363                        ;#define DEBUG_MOUSE_CY 	   		2
  1364                        ;#define DEBUG_MOUSE_BOXING 		3
  1365                        ;#define DEBUG_MOUSE_BOX_TOP 	4
  1366                        ;#define DEBUG_MOUSE_BOX_LEFT 	5
  1367                        ;#define DEBUG_MOUSE_BOX_ENABLE 	6
  1368                        ;
  1369                        ;#pragma section CODE=DTOP,offset $07:7FFF
  1370                        DTOP	section	offset $07:7FFF
  1371 07:7FFF:              	ends
  1372                        ;
  1373                        ;VOID DesktopEnvironmentProc(PFXOSMESSAGE pMsg)
  1374                        ;{
  1375                        	.line	31
  1376                        	.line	32
  1377                        	DTOP
  1378                        	xdef	~~DesktopEnvironmentProc
  1379                        	func
  1380                        	.function	32
  1381                        ~~DesktopEnvironmentProc:
  1382                        	longa	on
  1383                        	longi	on
  1384 07:7FFF: 3B           	tsc
  1385 07:8000: 38           	sec
  1386 07:8001: E9 08 00     	sbc	#L3
  1387 07:8004: 1B           	tcs
  1388 07:8005: 0B           	phd
  1389 07:8006: 5B           	tcd
  1390             00000004   pMsg_0	set	4
  1391                        	.block	32
  1392                        ;	PFXPROCESS p = NULL;
  1393                        ;
  1394                        ;	//k_debug_string("DesktopEnvironmentProc enter\r
                    \n");
  1395                        ;
  1396                        ;	if(pMsg!=NULL)
  1397             00000000   p_1	set	0
  1398                        	.sym	p,0,138,1,32,17
  1399                        	.sym	pMsg,4,138,6,32,13
  1400 07:8007: 64 05        	stz	<L4+p_1
  1401 07:8009: 64 07        	stz	<L4+p_1+2
  1402                        	.line	37
  1403                        ;	{
  1404 07:800B: A5 0C        	lda	<L3+pMsg_0
  1405 07:800D: 05 0E        	ora	<L3+pMsg_0+2
  1406 07:800F: D0 03        	bne	L6
  1407 07:8011: 82 FE 00     	brl	L10001
  1408                        L6:
  1409                        	.line	38
  1410                        ;		p = k_exec_get_current_process();
  1411                        	.line	39
  1412 07:8014: 22 xx xx xx  	jsl	~~k_exec_get_current_process
  1413 07:8018: 85 05        	sta	<L4+p_1
  1414 07:801A: 86 07        	stx	<L4+p_1+2
  1415                        ;
  Thu Dec  3 2020 22:25                                                Page 28


  1416                        ;		switch(pMsg->type)
  1417                        	.line	41
  1418 07:801C: A0 08 00     	ldy	#$8
  1419 07:801F: B7 0C        	lda	[<L3+pMsg_0],Y
  1420 07:8021: 82 DE 00     	brl	L10002
  1421                        ;		{
  1422                        	.line	42
  1423                        ;		case FX_INIT_MESSAGE:
  1424                        	.line	43
  1425                        L10004:
  1426                        ;			if(p!=NULL)
  1427                        	.line	44
  1428                        ;			{
  1429 07:8024: A5 05        	lda	<L4+p_1
  1430 07:8026: 05 07        	ora	<L4+p_1+2
  1431 07:8028: D0 03        	bne	L7
  1432 07:802A: 82 CC 00     	brl	L10005
  1433                        L7:
  1434                        	.line	45
  1435                        ;				k_debug_long("DesktopEnv
                    ironmentProc::ProcessId:",p->procId);
  1436                        	.line	46
  1437 07:802D: A0 04 00     	ldy	#$4
  1438 07:8030: B7 05        	lda	[<L4+p_1],Y
  1439 07:8032: 48           	pha
  1440 07:8033: A0 02 00     	ldy	#$2
  1441 07:8036: B7 05        	lda	[<L4+p_1],Y
  1442 07:8038: 48           	pha
  1443 07:8039: F4 xx xx     	pea	#^L2
  1444 07:803C: F4 xx xx     	pea	#<L2
  1445 07:803F: 22 xx xx xx  	jsl	~~k_debug_long
  1446                        ;
  1447                        ;
  1448                        ;				k_exec_enable_process_ti
                    mer(PROCESS_TIMER_0,20);
  1449                        	.line	49
  1450 07:8043: F4 14 00     	pea	#<$14
  1451 07:8046: F4 00 00     	pea	#<$0
  1452 07:8049: 22 xx xx xx  	jsl	~~k_exec_enable_process_timer
  1453                        ;
  1454                        ;
  1455                        ;				p->desktopCtl = k_mem_al
                    locate_heap(sizeof(DESKTOP_CONTROL));
  1456                        	.line	52
  1457 07:804D: F4 31 00     	pea	#<$31
  1458 07:8050: 22 xx xx xx  	jsl	~~k_mem_allocate_heap
  1459 07:8054: 85 01        	sta	<R0
  1460 07:8056: 86 03        	stx	<R0+2
  1461 07:8058: A5 01        	lda	<R0
  1462 07:805A: A0 58 00     	ldy	#$58
  1463 07:805D: 97 05        	sta	[<L4+p_1],Y
  1464 07:805F: A5 03        	lda	<R0+2
  1465 07:8061: A0 5A 00     	ldy	#$5a
  1466 07:8064: 97 05        	sta	[<L4+p_1],Y
  1467                        ;				if(p->desktopCtl)
  1468                        	.line	53
  1469                        ;				{
  1470 07:8066: A0 58 00     	ldy	#$58
  Thu Dec  3 2020 22:25                                                Page 29


  1471 07:8069: B7 05        	lda	[<L4+p_1],Y
  1472 07:806B: A0 5A 00     	ldy	#$5a
  1473 07:806E: 17 05        	ora	[<L4+p_1],Y
  1474 07:8070: D0 03        	bne	L8
  1475 07:8072: 82 16 00     	brl	L10006
  1476                        L8:
  1477                        	.line	54
  1478                        ;					memset(p->deskto
                    pCtl,0,sizeof(DESKTOP_CONTROL));
  1479                        	.line	55
  1480 07:8075: F4 31 00     	pea	#<$31
  1481 07:8078: F4 00 00     	pea	#<$0
  1482 07:807B: A0 5A 00     	ldy	#$5a
  1483 07:807E: B7 05        	lda	[<L4+p_1],Y
  1484 07:8080: 48           	pha
  1485 07:8081: A0 58 00     	ldy	#$58
  1486 07:8084: B7 05        	lda	[<L4+p_1],Y
  1487 07:8086: 48           	pha
  1488 07:8087: 22 xx xx xx  	jsl	~~memset
  1489                        ;				}
  1490                        	.line	56
  1491                        ;
  1492                        ;				k_gui_init_mousepointer(
                    TRUE);
  1493                        L10006:
  1494                        	.line	58
  1495 07:808B: F4 01 00     	pea	#<$1
  1496 07:808E: 22 xx xx xx  	jsl	~~k_gui_init_mousepointer
  1497                        ;				k_init_desktop(p);
  1498                        	.line	59
  1499 07:8092: D4 07        	pei	<L4+p_1+2
  1500 07:8094: D4 05        	pei	<L4+p_1
  1501 07:8096: 22 xx xx xx  	jsl	~~k_init_desktop
  1502                        ;
  1503                        ;				k_user_CreateWindowClass
                    ("desktopWindowClass",NULL,0,NULL,NULL,NULL,DesktopWindowPro
                    c);
  1504                        	.line	61
  1505 07:809A: F4 07 00     	pea	#^~~DesktopWindowProc
  1506 07:809D: F4 22 81     	pea	#<~~DesktopWindowProc
  1507 07:80A0: F4 00 00     	pea	#^$0
  1508 07:80A3: F4 00 00     	pea	#<$0
  1509 07:80A6: F4 00 00     	pea	#^$0
  1510 07:80A9: F4 00 00     	pea	#<$0
  1511 07:80AC: F4 00 00     	pea	#^$0
  1512 07:80AF: F4 00 00     	pea	#<$0
  1513 07:80B2: F4 00 00     	pea	#<$0
  1514 07:80B5: F4 00 00     	pea	#^$0
  1515 07:80B8: F4 00 00     	pea	#<$0
  1516 07:80BB: F4 xx xx     	pea	#^L2+35
  1517 07:80BE: F4 xx xx     	pea	#<L2+35
  1518 07:80C1: 22 xx xx xx  	jsl	~~k_user_CreateWindowClass
  1519                        ;				k_user_CreateWindow(FXWS
                    _VISIBLE,
  1520                        	.line	62
  1521                        ;							
                    		"desktopWindowClass",
  1522                        ;							
  Thu Dec  3 2020 22:25                                                Page 30


                    		"DesktopWindow",
  1523                        ;							
                    		0,0,
  1524                        ;							
                    		640,480,
  1525                        ;							
                    		NULL,
  1526                        ;							
                    		NULL,
  1527                        ;							
                    		NULL);
  1528 07:80C5: F4 00 00     	pea	#^$0
  1529 07:80C8: F4 00 00     	pea	#<$0
  1530 07:80CB: F4 00 00     	pea	#^$0
  1531 07:80CE: F4 00 00     	pea	#<$0
  1532 07:80D1: F4 00 00     	pea	#^$0
  1533 07:80D4: F4 00 00     	pea	#<$0
  1534 07:80D7: F4 E0 01     	pea	#<$1e0
  1535 07:80DA: F4 80 02     	pea	#<$280
  1536 07:80DD: F4 00 00     	pea	#<$0
  1537 07:80E0: F4 00 00     	pea	#<$0
  1538 07:80E3: F4 xx xx     	pea	#^L2+73
  1539 07:80E6: F4 xx xx     	pea	#<L2+73
  1540 07:80E9: F4 xx xx     	pea	#^L2+54
  1541 07:80EC: F4 xx xx     	pea	#<L2+54
  1542 07:80EF: F4 00 00     	pea	#^$1
  1543 07:80F2: F4 01 00     	pea	#<$1
  1544 07:80F5: 22 xx xx xx  	jsl	~~k_user_CreateWindow
  1545                        ;
  1546                        ;
  1547                        ;
  1548                        ;			}
  1549                        	.line	73
  1550                        ;			break;
  1551                        L10005:
  1552                        	.line	74
  1553 07:80F9: 82 16 00     	brl	L10003
  1554                        ;		case FX_PROCESS:
  1555                        	.line	75
  1556                        L10007:
  1557                        ;			/*
  1558                        ;			//k_debug_string("DesktopWindowP
                    roc::FX_PROCESS\r\n");
  1559                        ;
  1560                        ;			for(i=0;i<1000;i++)
  1561                        ;			{
  1562                        ;				asm NOP;
  1563                        ;			}
  1564                        ;
  1565                        ;			*/
  1566                        ;			break;
  1567                        	.line	85
  1568 07:80FC: 82 13 00     	brl	L10003
  1569                        ;		default:
  1570                        	.line	86
  1571                        L10008:
  1572                        ;			break;
  1573                        	.line	87
  Thu Dec  3 2020 22:25                                                Page 31


  1574 07:80FF: 82 10 00     	brl	L10003
  1575                        ;		}
  1576                        	.line	88
  1577                        L10002:
  1578                        	xref	~~~swt
  1579 07:8102: 22 xx xx xx  	jsl	~~~swt
  1580 07:8106: 02 00        	dw	2
  1581 07:8108: 00 FF        	dw	65280
  1582 07:810A: FB 80        	dw	L10007-1
  1583 07:810C: 01 FF        	dw	65281
  1584 07:810E: 23 80        	dw	L10004-1
  1585 07:8110: FE 80        	dw	L10008-1
  1586                        L10003:
  1587                        ;	}
  1588                        	.line	89
  1589                        ;
  1590                        ;	return;
  1591                        L10001:
  1592                        	.line	91
  1593                        L9:
  1594 07:8112: A5 0A        	lda	<L3+2
  1595 07:8114: 85 0E        	sta	<L3+2+4
  1596 07:8116: A5 09        	lda	<L3+1
  1597 07:8118: 85 0D        	sta	<L3+1+4
  1598 07:811A: 2B           	pld
  1599 07:811B: 3B           	tsc
  1600 07:811C: 18           	clc
  1601 07:811D: 69 0C 00     	adc	#L3+4
  1602 07:8120: 1B           	tcs
  1603 07:8121: 6B           	rtl
  1604                        ;}
  1605                        	.line	92
  1606                        	.endblock	92
  1607             00000008   L3	equ	8
  1608             00000005   L4	equ	5
  1609 07:8122:              	ends
  1610                        	efunc
  1611                        	.endfunc	92,5,8
  1612                        	.line	92
  1613                        	data
  1614                        L2:
  1615 00:0015: 44 65 73 6B  	db	$44,$65,$73,$6B,$74,$6F,$70,$45,$6E,$76,
                    $69,$72,$6F,$6E,$6D
       00:0019: 74 6F 70 45 
       00:001D: 6E 76 69 72 
       00:0021: 6F 6E 6D 
  1616 00:0024: 65 6E 74 50  	db	$65,$6E,$74,$50,$72,$6F,$63,$3A,$3A,$50,
                    $72,$6F,$63,$65,$73
       00:0028: 72 6F 63 3A 
       00:002C: 3A 50 72 6F 
       00:0030: 63 65 73 
  1617 00:0033: 73 49 64 3A  	db	$73,$49,$64,$3A,$00,$64,$65,$73,$6B,$74,
                    $6F,$70,$57,$69,$6E
       00:0037: 00 64 65 73 
       00:003B: 6B 74 6F 70 
       00:003F: 57 69 6E 
  1618 00:0042: 64 6F 77 43  	db	$64,$6F,$77,$43,$6C,$61,$73,$73,$00,$64,
                    $65,$73,$6B,$74,$6F
  Thu Dec  3 2020 22:25                                                Page 32


       00:0046: 6C 61 73 73 
       00:004A: 00 64 65 73 
       00:004E: 6B 74 6F 
  1619 00:0051: 70 57 69 6E  	db	$70,$57,$69,$6E,$64,$6F,$77,$43,$6C,$61,
                    $73,$73,$00,$44,$65
       00:0055: 64 6F 77 43 
       00:0059: 6C 61 73 73 
       00:005D: 00 44 65 
  1620 00:0060: 73 6B 74 6F  	db	$73,$6B,$74,$6F,$70,$57,$69,$6E,$64,$6F,
                    $77,$00
       00:0064: 70 57 69 6E 
       00:0068: 64 6F 77 00 
  1621 00:006C:              	ends
  1622                        ;
  1623                        ;BOOL DesktopWindowProc(PFXOSMESSAGE pMsg)
  1624                        ;{
  1625                        	.line	94
  1626                        	.line	95
  1627                        	DTOP
  1628                        	xdef	~~DesktopWindowProc
  1629                        	func
  1630                        	.function	95
  1631                        ~~DesktopWindowProc:
  1632                        	longa	on
  1633                        	longi	on
  1634 07:8122: 3B           	tsc
  1635 07:8123: 38           	sec
  1636 07:8124: E9 6E 00     	sbc	#L11
  1637 07:8127: 1B           	tcs
  1638 07:8128: 0B           	phd
  1639 07:8129: 5B           	tcd
  1640             00000004   pMsg_0	set	4
  1641                        	.block	95
  1642                        ;	LPCHAR ptr = NULL;
  1643                        ;	PWINDOW pWin = NULL;
  1644                        ;	PWINDOW dlgWnd = NULL;
  1645                        ;	PFXPROCESS p = NULL;
  1646                        ;	PCONSOLECTX pctx = NULL;
  1647                        ;	BYTE decodedKey = 0;
  1648                        ;	int i = 0;
  1649                        ;	int temp1;
  1650                        ;	int temp2;
  1651                        ;	int cx,cy,px,py;
  1652                        ;	UINT temp3;
  1653                        ;	BYTE serial;
  1654                        ;	PCLICKDETECTED pcd;
  1655                        ;
  1656                        ;	LPVOID pixelLocation = NULL;
  1657                        ;
  1658                        ;	PFXNODE  clickNode = NULL;
  1659                        ;
  1660                        ;	HMENU desktopMenu = NULL;
  1661                        ;	HMENU subMenu     = NULL;
  1662                        ;
  1663                        ;	LPCHAR	digits[] = {"0","1","2","3","4","5","6",
                    "7","8","9"};
  1664                        	data
  1665                        L14:
  Thu Dec  3 2020 22:25                                                Page 33


  1666 00:006C: xx xx xx xx  	dl	L10+0
  1667 00:0070: xx xx xx xx  	dl	L10+2
  1668 00:0074: xx xx xx xx  	dl	L10+4
  1669 00:0078: xx xx xx xx  	dl	L10+6
  1670 00:007C: xx xx xx xx  	dl	L10+8
  1671 00:0080: xx xx xx xx  	dl	L10+10
  1672 00:0084: xx xx xx xx  	dl	L10+12
  1673 00:0088: xx xx xx xx  	dl	L10+14
  1674 00:008C: xx xx xx xx  	dl	L10+16
  1675 00:0090: xx xx xx xx  	dl	L10+18
  1676 00:0094:              	ends
  1677                        ;
  1678                        ;	//k_debug_string("DesktopWindowProc enter\r\n");
  1679                        ;	if(pMsg!=NULL)
  1680             00000000   ptr_1	set	0
  1681             00000004   pWin_1	set	4
  1682             00000008   dlgWnd_1	set	8
  1683             0000000C   p_1	set	12
  1684             00000010   pctx_1	set	16
  1685             00000014   decodedKey_1	set	20
  1686             00000015   i_1	set	21
  1687             00000017   temp1_1	set	23
  1688             00000019   temp2_1	set	25
  1689             0000001B   cx_1	set	27
  1690             0000001D   cy_1	set	29
  1691             0000001F   px_1	set	31
  1692             00000021   py_1	set	33
  1693             00000023   temp3_1	set	35
  1694             00000025   serial_1	set	37
  1695             00000026   pcd_1	set	38
  1696             0000002A   pixelLocation_1	set	42
  1697             0000002E   clickNode_1	set	46
  1698             00000032   desktopMenu_1	set	50
  1699             00000036   subMenu_1	set	54
  1700             0000003A   digits_1	set	58
  1701                        	.sym	ptr,0,142,1,32
  1702                        	.sym	pWin,4,138,1,32,27
  1703                        	.sym	dlgWnd,8,138,1,32,27
  1704                        	.sym	p,12,138,1,32,17
  1705                        	.sym	pctx,16,138,1,32,52
  1706                        	.sym	decodedKey,20,14,1,8
  1707                        	.sym	i,21,5,1,16
  1708                        	.sym	temp1,23,5,1,16
  1709                        	.sym	temp2,25,5,1,16
  1710                        	.sym	cx,27,5,1,16
  1711                        	.sym	cy,29,5,1,16
  1712                        	.sym	px,31,5,1,16
  1713                        	.sym	py,33,5,1,16
  1714                        	.sym	temp3,35,16,1,16
  1715                        	.sym	serial,37,14,1,8
  1716                        	.sym	pcd,38,138,1,32,57
  1717                        	.sym	pixelLocation,42,129,1,32
  1718                        	.sym	clickNode,46,138,1,32,2
  1719                        	.sym	desktopMenu,50,129,1,32
  1720                        	.sym	subMenu,54,129,1,32
  1721                        	.sym	digits,58,1134,1,32,10
  1722                        	.sym	pMsg,4,138,6,32,13
  1723 07:812A: 64 0D        	stz	<L12+ptr_1
  Thu Dec  3 2020 22:25                                                Page 34


  1724 07:812C: 64 0F        	stz	<L12+ptr_1+2
  1725 07:812E: 64 11        	stz	<L12+pWin_1
  1726 07:8130: 64 13        	stz	<L12+pWin_1+2
  1727 07:8132: 64 15        	stz	<L12+dlgWnd_1
  1728 07:8134: 64 17        	stz	<L12+dlgWnd_1+2
  1729 07:8136: 64 19        	stz	<L12+p_1
  1730 07:8138: 64 1B        	stz	<L12+p_1+2
  1731 07:813A: 64 1D        	stz	<L12+pctx_1
  1732 07:813C: 64 1F        	stz	<L12+pctx_1+2
  1733 07:813E: E2 20        	sep	#$20
  1734                        	longa	off
  1735 07:8140: 64 21        	stz	<L12+decodedKey_1
  1736 07:8142: C2 20        	rep	#$20
  1737                        	longa	on
  1738 07:8144: 64 22        	stz	<L12+i_1
  1739 07:8146: 64 37        	stz	<L12+pixelLocation_1
  1740 07:8148: 64 39        	stz	<L12+pixelLocation_1+2
  1741 07:814A: 64 3B        	stz	<L12+clickNode_1
  1742 07:814C: 64 3D        	stz	<L12+clickNode_1+2
  1743 07:814E: 64 3F        	stz	<L12+desktopMenu_1
  1744 07:8150: 64 41        	stz	<L12+desktopMenu_1+2
  1745 07:8152: 64 43        	stz	<L12+subMenu_1
  1746 07:8154: 64 45        	stz	<L12+subMenu_1+2
  1747 07:8156: F4 xx xx     	pea	#^L14
  1748 07:8159: F4 xx xx     	pea	#<L14
  1749 07:815C: 18           	clc
  1750 07:815D: 7B           	tdc
  1751 07:815E: 69 47 00     	adc	#<L12+digits_1
  1752 07:8161: 85 01        	sta	<R0
  1753 07:8163: A9 00 00     	lda	#$0
  1754 07:8166: 85 03        	sta	<R0+2
  1755 07:8168: D4 03        	pei	<R0+2
  1756 07:816A: D4 01        	pei	<R0
  1757 07:816C: A9 28 00     	lda	#$28
  1758                        	xref	~~~fmov
  1759 07:816F: 22 xx xx xx  	jsl	~~~fmov
  1760                        	.line	120
  1761                        ;	{
  1762 07:8173: A5 72        	lda	<L11+pMsg_0
  1763 07:8175: 05 74        	ora	<L11+pMsg_0+2
  1764 07:8177: D0 03        	bne	L15
  1765 07:8179: 82 D6 14     	brl	L10009
  1766                        L15:
  1767                        	.line	121
  1768                        ;		p = k_exec_get_current_process();
  1769                        	.line	122
  1770 07:817C: 22 xx xx xx  	jsl	~~k_exec_get_current_process
  1771 07:8180: 85 19        	sta	<L12+p_1
  1772 07:8182: 86 1B        	stx	<L12+p_1+2
  1773                        ;
  1774                        ;		if(p)
  1775                        	.line	124
  1776                        ;		{
  1777 07:8184: A5 19        	lda	<L12+p_1
  1778 07:8186: 05 1B        	ora	<L12+p_1+2
  1779 07:8188: D0 03        	bne	L16
  1780 07:818A: 82 0E 00     	brl	L10010
  1781                        L16:
  Thu Dec  3 2020 22:25                                                Page 35


  1782                        	.line	125
  1783                        ;			pctx = (PCONSOLECTX)p->ctx;
  1784                        	.line	126
  1785 07:818D: A0 0A 00     	ldy	#$a
  1786 07:8190: B7 19        	lda	[<L12+p_1],Y
  1787 07:8192: 85 1D        	sta	<L12+pctx_1
  1788 07:8194: A0 0C 00     	ldy	#$c
  1789 07:8197: B7 19        	lda	[<L12+p_1],Y
  1790 07:8199: 85 1F        	sta	<L12+pctx_1+2
  1791                        ;			//k_debug_pointer("DesktopWindow
                    Proc::pctx:",pctx);
  1792                        ;			//k_debug_pointer("DesktopWindow
                    Proc::pctx->userData:",pctx->userData);
  1793                        ;		}
  1794                        	.line	129
  1795                        ;
  1796                        ;		switch(pMsg->type)
  1797                        L10010:
  1798                        	.line	131
  1799 07:819B: A0 08 00     	ldy	#$8
  1800 07:819E: B7 72        	lda	[<L11+pMsg_0],Y
  1801 07:81A0: 82 4B 14     	brl	L10011
  1802                        ;		{
  1803                        	.line	132
  1804                        ;		case FX_CREATE_WINDOW:
  1805                        	.line	133
  1806                        L10013:
  1807                        ;			k_debug_string("DesktopWindowPro
                    c::FX_CREATE_WINDOW\r\n");
  1808                        	.line	134
  1809 07:81A3: F4 xx xx     	pea	#^L10+20
  1810 07:81A6: F4 xx xx     	pea	#<L10+20
  1811 07:81A9: 22 xx xx xx  	jsl	~~k_debug_string
  1812                        ;
  1813                        ;			p->ctx = k_mem_allocate_heap(siz
                    eof(CONSOLECTX));
  1814                        	.line	136
  1815 07:81AD: F4 8F 00     	pea	#<$8f
  1816 07:81B0: 22 xx xx xx  	jsl	~~k_mem_allocate_heap
  1817 07:81B4: 85 01        	sta	<R0
  1818 07:81B6: 86 03        	stx	<R0+2
  1819 07:81B8: A5 01        	lda	<R0
  1820 07:81BA: A0 0A 00     	ldy	#$a
  1821 07:81BD: 97 19        	sta	[<L12+p_1],Y
  1822 07:81BF: A5 03        	lda	<R0+2
  1823 07:81C1: A0 0C 00     	ldy	#$c
  1824 07:81C4: 97 19        	sta	[<L12+p_1],Y
  1825                        ;			if(p->ctx)
  1826                        	.line	137
  1827                        ;			{
  1828 07:81C6: A0 0A 00     	ldy	#$a
  1829 07:81C9: B7 19        	lda	[<L12+p_1],Y
  1830 07:81CB: A0 0C 00     	ldy	#$c
  1831 07:81CE: 17 19        	ora	[<L12+p_1],Y
  1832 07:81D0: D0 03        	bne	L17
  1833 07:81D2: 82 E2 00     	brl	L10014
  1834                        L17:
  1835                        	.line	138
  Thu Dec  3 2020 22:25                                                Page 36


  1836                        ;				pctx = (PCONSOLECTX)p->c
                    tx;
  1837                        	.line	139
  1838 07:81D5: A0 0A 00     	ldy	#$a
  1839 07:81D8: B7 19        	lda	[<L12+p_1],Y
  1840 07:81DA: 85 1D        	sta	<L12+pctx_1
  1841 07:81DC: A0 0C 00     	ldy	#$c
  1842 07:81DF: B7 19        	lda	[<L12+p_1],Y
  1843 07:81E1: 85 1F        	sta	<L12+pctx_1+2
  1844                        ;				k_debug_pointer("Desktop
                    WindowProc::pctx:",pctx);
  1845                        	.line	140
  1846 07:81E3: D4 1F        	pei	<L12+pctx_1+2
  1847 07:81E5: D4 1D        	pei	<L12+pctx_1
  1848 07:81E7: F4 xx xx     	pea	#^L10+58
  1849 07:81EA: F4 xx xx     	pea	#<L10+58
  1850 07:81ED: 22 xx xx xx  	jsl	~~k_debug_pointer
  1851                        ;				pctx->userData  = (LPVOI
                    D)k_mem_allocate_heap(8*sizeof(UINT));
  1852                        	.line	141
  1853 07:81F1: F4 10 00     	pea	#<$10
  1854 07:81F4: 22 xx xx xx  	jsl	~~k_mem_allocate_heap
  1855 07:81F8: 85 01        	sta	<R0
  1856 07:81FA: 86 03        	stx	<R0+2
  1857 07:81FC: A5 01        	lda	<R0
  1858 07:81FE: A0 83 00     	ldy	#$83
  1859 07:8201: 97 1D        	sta	[<L12+pctx_1],Y
  1860 07:8203: A5 03        	lda	<R0+2
  1861 07:8205: A0 85 00     	ldy	#$85
  1862 07:8208: 97 1D        	sta	[<L12+pctx_1],Y
  1863                        ;
  1864                        ;				k_debug_pointer("Desktop
                    WindowProc::pctx->userData:",pctx->userData);
  1865                        	.line	143
  1866 07:820A: A0 85 00     	ldy	#$85
  1867 07:820D: B7 1D        	lda	[<L12+pctx_1],Y
  1868 07:820F: 48           	pha
  1869 07:8210: A0 83 00     	ldy	#$83
  1870 07:8213: B7 1D        	lda	[<L12+pctx_1],Y
  1871 07:8215: 48           	pha
  1872 07:8216: F4 xx xx     	pea	#^L10+83
  1873 07:8219: F4 xx xx     	pea	#<L10+83
  1874 07:821C: 22 xx xx xx  	jsl	~~k_debug_pointer
  1875                        ;
  1876                        ;
  1877                        ;				((INT*)pctx->userData)[D
                    EBUG_MOUSE_ENABLE] 	= FALSE;
  1878                        	.line	146
  1879 07:8220: A0 83 00     	ldy	#$83
  1880 07:8223: B7 1D        	lda	[<L12+pctx_1],Y
  1881 07:8225: 85 01        	sta	<R0
  1882 07:8227: A0 85 00     	ldy	#$85
  1883 07:822A: B7 1D        	lda	[<L12+pctx_1],Y
  1884 07:822C: 85 03        	sta	<R0+2
  1885 07:822E: A9 00 00     	lda	#$0
  1886 07:8231: 87 01        	sta	[<R0]
  1887                        ;				((INT*)pctx->userData)[D
                    EBUG_MOUSE_CX] 		= -1;
  Thu Dec  3 2020 22:25                                                Page 37


  1888                        	.line	147
  1889 07:8233: A0 83 00     	ldy	#$83
  1890 07:8236: B7 1D        	lda	[<L12+pctx_1],Y
  1891 07:8238: 85 01        	sta	<R0
  1892 07:823A: A0 85 00     	ldy	#$85
  1893 07:823D: B7 1D        	lda	[<L12+pctx_1],Y
  1894 07:823F: 85 03        	sta	<R0+2
  1895 07:8241: A9 FF FF     	lda	#$ffff
  1896 07:8244: A0 02 00     	ldy	#$2
  1897 07:8247: 97 01        	sta	[<R0],Y
  1898                        ;				((INT*)pctx->userData)[D
                    EBUG_MOUSE_CY] 		= -1;
  1899                        	.line	148
  1900 07:8249: A0 83 00     	ldy	#$83
  1901 07:824C: B7 1D        	lda	[<L12+pctx_1],Y
  1902 07:824E: 85 01        	sta	<R0
  1903 07:8250: A0 85 00     	ldy	#$85
  1904 07:8253: B7 1D        	lda	[<L12+pctx_1],Y
  1905 07:8255: 85 03        	sta	<R0+2
  1906 07:8257: A9 FF FF     	lda	#$ffff
  1907 07:825A: A0 04 00     	ldy	#$4
  1908 07:825D: 97 01        	sta	[<R0],Y
  1909                        ;				((INT*)pctx->userData)[D
                    EBUG_MOUSE_BOXING] 	= FALSE;
  1910                        	.line	149
  1911 07:825F: A0 83 00     	ldy	#$83
  1912 07:8262: B7 1D        	lda	[<L12+pctx_1],Y
  1913 07:8264: 85 01        	sta	<R0
  1914 07:8266: A0 85 00     	ldy	#$85
  1915 07:8269: B7 1D        	lda	[<L12+pctx_1],Y
  1916 07:826B: 85 03        	sta	<R0+2
  1917 07:826D: A9 00 00     	lda	#$0
  1918 07:8270: A0 06 00     	ldy	#$6
  1919 07:8273: 97 01        	sta	[<R0],Y
  1920                        ;				((INT*)pctx->userData)[D
                    EBUG_MOUSE_BOX_TOP] = -1;
  1921                        	.line	150
  1922 07:8275: A0 83 00     	ldy	#$83
  1923 07:8278: B7 1D        	lda	[<L12+pctx_1],Y
  1924 07:827A: 85 01        	sta	<R0
  1925 07:827C: A0 85 00     	ldy	#$85
  1926 07:827F: B7 1D        	lda	[<L12+pctx_1],Y
  1927 07:8281: 85 03        	sta	<R0+2
  1928 07:8283: A9 FF FF     	lda	#$ffff
  1929 07:8286: A0 08 00     	ldy	#$8
  1930 07:8289: 97 01        	sta	[<R0],Y
  1931                        ;				((INT*)pctx->userData)[D
                    EBUG_MOUSE_BOX_LEFT]= -1;
  1932                        	.line	151
  1933 07:828B: A0 83 00     	ldy	#$83
  1934 07:828E: B7 1D        	lda	[<L12+pctx_1],Y
  1935 07:8290: 85 01        	sta	<R0
  1936 07:8292: A0 85 00     	ldy	#$85
  1937 07:8295: B7 1D        	lda	[<L12+pctx_1],Y
  1938 07:8297: 85 03        	sta	<R0+2
  1939 07:8299: A9 FF FF     	lda	#$ffff
  1940 07:829C: A0 0A 00     	ldy	#$a
  1941 07:829F: 97 01        	sta	[<R0],Y
  Thu Dec  3 2020 22:25                                                Page 38


  1942                        ;				((INT*)pctx->userData)[D
                    EBUG_MOUSE_BOX_ENABLE]= FALSE;
  1943                        	.line	152
  1944 07:82A1: A0 83 00     	ldy	#$83
  1945 07:82A4: B7 1D        	lda	[<L12+pctx_1],Y
  1946 07:82A6: 85 01        	sta	<R0
  1947 07:82A8: A0 85 00     	ldy	#$85
  1948 07:82AB: B7 1D        	lda	[<L12+pctx_1],Y
  1949 07:82AD: 85 03        	sta	<R0+2
  1950 07:82AF: A9 00 00     	lda	#$0
  1951 07:82B2: A0 0C 00     	ldy	#$c
  1952 07:82B5: 97 01        	sta	[<R0],Y
  1953                        ;
  1954                        ;			}
  1955                        	.line	154
  1956                        ;			//k_initializeMenuManager();
  1957                        ;
  1958                        ;			//k_vdma_fill_rect(100,100,100,5
                    0,15);
  1959                        ;			//k_shadow_fill_rect_address(BIT
                    MAP_BANK_0,100, 151, 100, 50, 15);
  1960                        ;			/*
  1961                        ;			k_scratch_save_bitblt(100,100, 1
                    00,50, 0,0);
  1962                        ;			k_scratch_restore_bitblt(0,0, 10
                    0,50, 100,151);
  1963                        ;
  1964                        ;			//k_shadow_fill_rect_address(BIT
                    MAP_BANK_0,201, 100, 100, 50, 15);
  1965                        ;			k_shadow_fill_rect_address(SHADO
                    W_BANK_0,201, 100, 100, 50, 15);
  1966                        ;			k_scratch_save_bitblt(201,100, 1
                    00,50, 0,0);
  1967                        ;			k_scratch_restore_bitblt(0,0, 10
                    0,50, 201,151);
  1968                        ;			*/
  1969                        ;
  1970                        ;
  1971                        ;			k_user_CreateWindowClass("prefer
                    encesWindowClass",NULL,0,NULL,NULL,NULL,preferencesWindowPro
                    c);
  1972                        L10014:
  1973                        	.line	170
  1974 07:82B7: F4 07 00     	pea	#^~~preferencesWindowProc
  1975 07:82BA: F4 DB 9D     	pea	#<~~preferencesWindowProc
  1976 07:82BD: F4 00 00     	pea	#^$0
  1977 07:82C0: F4 00 00     	pea	#<$0
  1978 07:82C3: F4 00 00     	pea	#^$0
  1979 07:82C6: F4 00 00     	pea	#<$0
  1980 07:82C9: F4 00 00     	pea	#^$0
  1981 07:82CC: F4 00 00     	pea	#<$0
  1982 07:82CF: F4 00 00     	pea	#<$0
  1983 07:82D2: F4 00 00     	pea	#^$0
  1984 07:82D5: F4 00 00     	pea	#<$0
  1985 07:82D8: F4 xx xx     	pea	#^L10+118
  1986 07:82DB: F4 xx xx     	pea	#<L10+118
  1987 07:82DE: 22 xx xx xx  	jsl	~~k_user_CreateWindowClass
  1988                        ;			k_user_CreateWindowClass("testWi
  Thu Dec  3 2020 22:25                                                Page 39


                    ndowClass",NULL,0,NULL,NULL,NULL,testWindowProc);
  1989                        	.line	171
  1990 07:82E2: F4 07 00     	pea	#^~~testWindowProc
  1991 07:82E5: F4 58 96     	pea	#<~~testWindowProc
  1992 07:82E8: F4 00 00     	pea	#^$0
  1993 07:82EB: F4 00 00     	pea	#<$0
  1994 07:82EE: F4 00 00     	pea	#^$0
  1995 07:82F1: F4 00 00     	pea	#<$0
  1996 07:82F4: F4 00 00     	pea	#^$0
  1997 07:82F7: F4 00 00     	pea	#<$0
  1998 07:82FA: F4 00 00     	pea	#<$0
  1999 07:82FD: F4 00 00     	pea	#^$0
  2000 07:8300: F4 00 00     	pea	#<$0
  2001 07:8303: F4 xx xx     	pea	#^L10+141
  2002 07:8306: F4 xx xx     	pea	#<L10+141
  2003 07:8309: 22 xx xx xx  	jsl	~~k_user_CreateWindowClass
  2004                        ;
  2005                        ;			k_user_CreateWindowClass("listbo
                    xWindowClass",NULL,0,NULL,NULL,NULL,listboxWindowProc);
  2006                        	.line	173
  2007 07:830D: F4 xx xx     	pea	#^~~listboxWindowProc
  2008 07:8310: F4 xx xx     	pea	#<~~listboxWindowProc
  2009 07:8313: F4 00 00     	pea	#^$0
  2010 07:8316: F4 00 00     	pea	#<$0
  2011 07:8319: F4 00 00     	pea	#^$0
  2012 07:831C: F4 00 00     	pea	#<$0
  2013 07:831F: F4 00 00     	pea	#^$0
  2014 07:8322: F4 00 00     	pea	#<$0
  2015 07:8325: F4 00 00     	pea	#<$0
  2016 07:8328: F4 00 00     	pea	#^$0
  2017 07:832B: F4 00 00     	pea	#<$0
  2018 07:832E: F4 xx xx     	pea	#^L10+157
  2019 07:8331: F4 xx xx     	pea	#<L10+157
  2020 07:8334: 22 xx xx xx  	jsl	~~k_user_CreateWindowClass
  2021                        ;			k_user_CreateWindowClass("textbo
                    xWindowClass",NULL,0,NULL,NULL,NULL,textboxWindowProc);
  2022                        	.line	174
  2023 07:8338: F4 07 00     	pea	#^~~textboxWindowProc
  2024 07:833B: F4 AE 98     	pea	#<~~textboxWindowProc
  2025 07:833E: F4 00 00     	pea	#^$0
  2026 07:8341: F4 00 00     	pea	#<$0
  2027 07:8344: F4 00 00     	pea	#^$0
  2028 07:8347: F4 00 00     	pea	#<$0
  2029 07:834A: F4 00 00     	pea	#^$0
  2030 07:834D: F4 00 00     	pea	#<$0
  2031 07:8350: F4 00 00     	pea	#<$0
  2032 07:8353: F4 00 00     	pea	#^$0
  2033 07:8356: F4 00 00     	pea	#<$0
  2034 07:8359: F4 xx xx     	pea	#^L10+176
  2035 07:835C: F4 xx xx     	pea	#<L10+176
  2036 07:835F: 22 xx xx xx  	jsl	~~k_user_CreateWindowClass
  2037                        ;
  2038                        ;
  2039                        ;
  2040                        ;
  2041                        ;//			k_user_CreateWindow(FXWS
                    _OVERLAPPED | FXWS_CAPTION | FXWS_SYSMENU | FXWS_THICKFRAME 
                    | FXWS_MINIMIZEBOX | FXWS_MAXIMIZEBOX | FXWS_VISIBLE,
  Thu Dec  3 2020 22:25                                                Page 40


  2042                        ;
  2043                        ;
  2044                        ;			//k_shadow_fill_rect_address(BIT
                    MAP_BANK_0,100, 151, 100, 50, 15);
  2045                        ;			//k_shadow_fill_rect_address(BIT
                    MAP_BANK_0,201, 151, 100, 50, 15);
  2046                        ;
  2047                        ;
  2048                        ;			desktopMenu = k_user_CreateMenuR
                    esource();
  2049                        	.line	186
  2050 07:8363: 22 xx xx xx  	jsl	~~k_user_CreateMenuResource
  2051 07:8367: 85 3F        	sta	<L12+desktopMenu_1
  2052 07:8369: 86 41        	stx	<L12+desktopMenu_1+2
  2053                        ;			if(desktopMenu)
  2054                        	.line	187
  2055                        ;			{
  2056 07:836B: A5 3F        	lda	<L12+desktopMenu_1
  2057 07:836D: 05 41        	ora	<L12+desktopMenu_1+2
  2058 07:836F: D0 03        	bne	L18
  2059 07:8371: 82 30 02     	brl	L10015
  2060                        L18:
  2061                        	.line	188
  2062                        ;
  2063                        ;				subMenu = k_user_AddMenu
                    Item(desktopMenu,"File" ,20);
  2064                        	.line	190
  2065 07:8374: F4 14 00     	pea	#<$14
  2066 07:8377: F4 xx xx     	pea	#^L10+195
  2067 07:837A: F4 xx xx     	pea	#<L10+195
  2068 07:837D: D4 41        	pei	<L12+desktopMenu_1+2
  2069 07:837F: D4 3F        	pei	<L12+desktopMenu_1
  2070 07:8381: 22 xx xx xx  	jsl	~~k_user_AddMenuItem
  2071 07:8385: 85 43        	sta	<L12+subMenu_1
  2072 07:8387: 86 45        	stx	<L12+subMenu_1+2
  2073                        ;							
                    k_user_AddMenuItem(subMenu,"Volume Info",21);
  2074                        	.line	191
  2075 07:8389: F4 15 00     	pea	#<$15
  2076 07:838C: F4 xx xx     	pea	#^L10+200
  2077 07:838F: F4 xx xx     	pea	#<L10+200
  2078 07:8392: D4 45        	pei	<L12+subMenu_1+2
  2079 07:8394: D4 43        	pei	<L12+subMenu_1
  2080 07:8396: 22 xx xx xx  	jsl	~~k_user_AddMenuItem
  2081                        ;							
                    k_user_AddMenuItem(subMenu,"Rename",22);
  2082                        	.line	192
  2083 07:839A: F4 16 00     	pea	#<$16
  2084 07:839D: F4 xx xx     	pea	#^L10+212
  2085 07:83A0: F4 xx xx     	pea	#<L10+212
  2086 07:83A3: D4 45        	pei	<L12+subMenu_1+2
  2087 07:83A5: D4 43        	pei	<L12+subMenu_1
  2088 07:83A7: 22 xx xx xx  	jsl	~~k_user_AddMenuItem
  2089                        ;							
                    k_user_AddMenuItem(subMenu,"Copy",23);
  2090                        	.line	193
  2091 07:83AB: F4 17 00     	pea	#<$17
  2092 07:83AE: F4 xx xx     	pea	#^L10+219
  Thu Dec  3 2020 22:25                                                Page 41


  2093 07:83B1: F4 xx xx     	pea	#<L10+219
  2094 07:83B4: D4 45        	pei	<L12+subMenu_1+2
  2095 07:83B6: D4 43        	pei	<L12+subMenu_1
  2096 07:83B8: 22 xx xx xx  	jsl	~~k_user_AddMenuItem
  2097                        ;							
                    k_user_AddMenuItem(subMenu,"Mount",24);
  2098                        	.line	194
  2099 07:83BC: F4 18 00     	pea	#<$18
  2100 07:83BF: F4 xx xx     	pea	#^L10+224
  2101 07:83C2: F4 xx xx     	pea	#<L10+224
  2102 07:83C5: D4 45        	pei	<L12+subMenu_1+2
  2103 07:83C7: D4 43        	pei	<L12+subMenu_1
  2104 07:83C9: 22 xx xx xx  	jsl	~~k_user_AddMenuItem
  2105                        ;							
                    k_user_AddMenuItem(subMenu,"Eject",25);
  2106                        	.line	195
  2107 07:83CD: F4 19 00     	pea	#<$19
  2108 07:83D0: F4 xx xx     	pea	#^L10+230
  2109 07:83D3: F4 xx xx     	pea	#<L10+230
  2110 07:83D6: D4 45        	pei	<L12+subMenu_1+2
  2111 07:83D8: D4 43        	pei	<L12+subMenu_1
  2112 07:83DA: 22 xx xx xx  	jsl	~~k_user_AddMenuItem
  2113                        ;							
                    k_user_AddMenuItem(subMenu,"Run...",26);
  2114                        	.line	196
  2115 07:83DE: F4 1A 00     	pea	#<$1a
  2116 07:83E1: F4 xx xx     	pea	#^L10+236
  2117 07:83E4: F4 xx xx     	pea	#<L10+236
  2118 07:83E7: D4 45        	pei	<L12+subMenu_1+2
  2119 07:83E9: D4 43        	pei	<L12+subMenu_1
  2120 07:83EB: 22 xx xx xx  	jsl	~~k_user_AddMenuItem
  2121                        ;							
                    k_user_AddMenuItem(subMenu,"__________________",0);
  2122                        	.line	197
  2123 07:83EF: F4 00 00     	pea	#<$0
  2124 07:83F2: F4 xx xx     	pea	#^L10+243
  2125 07:83F5: F4 xx xx     	pea	#<L10+243
  2126 07:83F8: D4 45        	pei	<L12+subMenu_1+2
  2127 07:83FA: D4 43        	pei	<L12+subMenu_1
  2128 07:83FC: 22 xx xx xx  	jsl	~~k_user_AddMenuItem
  2129                        ;							
                    k_user_AddMenuItem(subMenu,"Processes",27);
  2130                        	.line	198
  2131 07:8400: F4 1B 00     	pea	#<$1b
  2132 07:8403: F4 xx xx     	pea	#^L10+262
  2133 07:8406: F4 xx xx     	pea	#<L10+262
  2134 07:8409: D4 45        	pei	<L12+subMenu_1+2
  2135 07:840B: D4 43        	pei	<L12+subMenu_1
  2136 07:840D: 22 xx xx xx  	jsl	~~k_user_AddMenuItem
  2137                        ;							
                    k_user_AddMenuItem(subMenu,"Refresh Desktop",28);
  2138                        	.line	199
  2139 07:8411: F4 1C 00     	pea	#<$1c
  2140 07:8414: F4 xx xx     	pea	#^L10+272
  2141 07:8417: F4 xx xx     	pea	#<L10+272
  2142 07:841A: D4 45        	pei	<L12+subMenu_1+2
  2143 07:841C: D4 43        	pei	<L12+subMenu_1
  2144 07:841E: 22 xx xx xx  	jsl	~~k_user_AddMenuItem
  Thu Dec  3 2020 22:25                                                Page 42


  2145                        ;							
                    k_user_AddMenuItem(subMenu,"Quit to CLI",29);
  2146                        	.line	200
  2147 07:8422: F4 1D 00     	pea	#<$1d
  2148 07:8425: F4 xx xx     	pea	#^L10+288
  2149 07:8428: F4 xx xx     	pea	#<L10+288
  2150 07:842B: D4 45        	pei	<L12+subMenu_1+2
  2151 07:842D: D4 43        	pei	<L12+subMenu_1
  2152 07:842F: 22 xx xx xx  	jsl	~~k_user_AddMenuItem
  2153                        ;
  2154                        ;				subMenu = k_user_AddMenu
                    Item(desktopMenu,"Edit" ,30);
  2155                        	.line	202
  2156 07:8433: F4 1E 00     	pea	#<$1e
  2157 07:8436: F4 xx xx     	pea	#^L10+300
  2158 07:8439: F4 xx xx     	pea	#<L10+300
  2159 07:843C: D4 41        	pei	<L12+desktopMenu_1+2
  2160 07:843E: D4 3F        	pei	<L12+desktopMenu_1
  2161 07:8440: 22 xx xx xx  	jsl	~~k_user_AddMenuItem
  2162 07:8444: 85 43        	sta	<L12+subMenu_1
  2163 07:8446: 86 45        	stx	<L12+subMenu_1+2
  2164                        ;							
                    k_user_AddMenuItem(subMenu,"Copy",31);
  2165                        	.line	203
  2166 07:8448: F4 1F 00     	pea	#<$1f
  2167 07:844B: F4 xx xx     	pea	#^L10+305
  2168 07:844E: F4 xx xx     	pea	#<L10+305
  2169 07:8451: D4 45        	pei	<L12+subMenu_1+2
  2170 07:8453: D4 43        	pei	<L12+subMenu_1
  2171 07:8455: 22 xx xx xx  	jsl	~~k_user_AddMenuItem
  2172                        ;							
                    k_user_AddMenuItem(subMenu,"Cut",32);
  2173                        	.line	204
  2174 07:8459: F4 20 00     	pea	#<$20
  2175 07:845C: F4 xx xx     	pea	#^L10+310
  2176 07:845F: F4 xx xx     	pea	#<L10+310
  2177 07:8462: D4 45        	pei	<L12+subMenu_1+2
  2178 07:8464: D4 43        	pei	<L12+subMenu_1
  2179 07:8466: 22 xx xx xx  	jsl	~~k_user_AddMenuItem
  2180                        ;							
                    k_user_AddMenuItem(subMenu,"Paste",33);
  2181                        	.line	205
  2182 07:846A: F4 21 00     	pea	#<$21
  2183 07:846D: F4 xx xx     	pea	#^L10+314
  2184 07:8470: F4 xx xx     	pea	#<L10+314
  2185 07:8473: D4 45        	pei	<L12+subMenu_1+2
  2186 07:8475: D4 43        	pei	<L12+subMenu_1
  2187 07:8477: 22 xx xx xx  	jsl	~~k_user_AddMenuItem
  2188                        ;							
                    k_user_AddMenuItem(subMenu,"______________",0);
  2189                        	.line	206
  2190 07:847B: F4 00 00     	pea	#<$0
  2191 07:847E: F4 xx xx     	pea	#^L10+320
  2192 07:8481: F4 xx xx     	pea	#<L10+320
  2193 07:8484: D4 45        	pei	<L12+subMenu_1+2
  2194 07:8486: D4 43        	pei	<L12+subMenu_1
  2195 07:8488: 22 xx xx xx  	jsl	~~k_user_AddMenuItem
  2196                        ;							
  Thu Dec  3 2020 22:25                                                Page 43


                    k_user_AddMenuItem(subMenu,"Preferences",34);
  2197                        	.line	207
  2198 07:848C: F4 22 00     	pea	#<$22
  2199 07:848F: F4 xx xx     	pea	#^L10+335
  2200 07:8492: F4 xx xx     	pea	#<L10+335
  2201 07:8495: D4 45        	pei	<L12+subMenu_1+2
  2202 07:8497: D4 43        	pei	<L12+subMenu_1
  2203 07:8499: 22 xx xx xx  	jsl	~~k_user_AddMenuItem
  2204                        ;
  2205                        ;				subMenu = k_user_AddMenu
                    Item(desktopMenu,"Debug",50);
  2206                        	.line	209
  2207 07:849D: F4 32 00     	pea	#<$32
  2208 07:84A0: F4 xx xx     	pea	#^L10+347
  2209 07:84A3: F4 xx xx     	pea	#<L10+347
  2210 07:84A6: D4 41        	pei	<L12+desktopMenu_1+2
  2211 07:84A8: D4 3F        	pei	<L12+desktopMenu_1
  2212 07:84AA: 22 xx xx xx  	jsl	~~k_user_AddMenuItem
  2213 07:84AE: 85 43        	sta	<L12+subMenu_1
  2214 07:84B0: 86 45        	stx	<L12+subMenu_1+2
  2215                        ;							
                     k_user_AddMenuItem(subMenu,"Debug Fonts",51);
  2216                        	.line	210
  2217 07:84B2: F4 33 00     	pea	#<$33
  2218 07:84B5: F4 xx xx     	pea	#^L10+353
  2219 07:84B8: F4 xx xx     	pea	#<L10+353
  2220 07:84BB: D4 45        	pei	<L12+subMenu_1+2
  2221 07:84BD: D4 43        	pei	<L12+subMenu_1
  2222 07:84BF: 22 xx xx xx  	jsl	~~k_user_AddMenuItem
  2223                        ;				             k_user_AddM
                    enuItem(subMenu,"Debug Window",52);
  2224                        	.line	211
  2225 07:84C3: F4 34 00     	pea	#<$34
  2226 07:84C6: F4 xx xx     	pea	#^L10+365
  2227 07:84C9: F4 xx xx     	pea	#<L10+365
  2228 07:84CC: D4 45        	pei	<L12+subMenu_1+2
  2229 07:84CE: D4 43        	pei	<L12+subMenu_1
  2230 07:84D0: 22 xx xx xx  	jsl	~~k_user_AddMenuItem
  2231                        ;				             k_user_AddM
                    enuItem(subMenu,"Debug Selection",53);
  2232                        	.line	212
  2233 07:84D4: F4 35 00     	pea	#<$35
  2234 07:84D7: F4 xx xx     	pea	#^L10+378
  2235 07:84DA: F4 xx xx     	pea	#<L10+378
  2236 07:84DD: D4 45        	pei	<L12+subMenu_1+2
  2237 07:84DF: D4 43        	pei	<L12+subMenu_1
  2238 07:84E1: 22 xx xx xx  	jsl	~~k_user_AddMenuItem
  2239                        ;							
                     k_user_AddMenuItem(subMenu,"Debug Drag",54);
  2240                        	.line	213
  2241 07:84E5: F4 36 00     	pea	#<$36
  2242 07:84E8: F4 xx xx     	pea	#^L10+394
  2243 07:84EB: F4 xx xx     	pea	#<L10+394
  2244 07:84EE: D4 45        	pei	<L12+subMenu_1+2
  2245 07:84F0: D4 43        	pei	<L12+subMenu_1
  2246 07:84F2: 22 xx xx xx  	jsl	~~k_user_AddMenuItem
  2247                        ;							
                     k_user_AddMenuItem(subMenu,"Debug Rubberband",55);
  Thu Dec  3 2020 22:25                                                Page 44


  2248                        	.line	214
  2249 07:84F6: F4 37 00     	pea	#<$37
  2250 07:84F9: F4 xx xx     	pea	#^L10+405
  2251 07:84FC: F4 xx xx     	pea	#<L10+405
  2252 07:84FF: D4 45        	pei	<L12+subMenu_1+2
  2253 07:8501: D4 43        	pei	<L12+subMenu_1
  2254 07:8503: 22 xx xx xx  	jsl	~~k_user_AddMenuItem
  2255                        ;
  2256                        ;							
                     k_user_AddMenuItem(subMenu,"Debug Pointer Hourglass",56);
  2257                        	.line	216
  2258 07:8507: F4 38 00     	pea	#<$38
  2259 07:850A: F4 xx xx     	pea	#^L10+422
  2260 07:850D: F4 xx xx     	pea	#<L10+422
  2261 07:8510: D4 45        	pei	<L12+subMenu_1+2
  2262 07:8512: D4 43        	pei	<L12+subMenu_1
  2263 07:8514: 22 xx xx xx  	jsl	~~k_user_AddMenuItem
  2264                        ;							
                     k_user_AddMenuItem(subMenu,"Debug Pointer Help",57);
  2265                        	.line	217
  2266 07:8518: F4 39 00     	pea	#<$39
  2267 07:851B: F4 xx xx     	pea	#^L10+446
  2268 07:851E: F4 xx xx     	pea	#<L10+446
  2269 07:8521: D4 45        	pei	<L12+subMenu_1+2
  2270 07:8523: D4 43        	pei	<L12+subMenu_1
  2271 07:8525: 22 xx xx xx  	jsl	~~k_user_AddMenuItem
  2272                        ;							
                     k_user_AddMenuItem(subMenu,"Debug Pointer Arrow",58);
  2273                        	.line	218
  2274 07:8529: F4 3A 00     	pea	#<$3a
  2275 07:852C: F4 xx xx     	pea	#^L10+465
  2276 07:852F: F4 xx xx     	pea	#<L10+465
  2277 07:8532: D4 45        	pei	<L12+subMenu_1+2
  2278 07:8534: D4 43        	pei	<L12+subMenu_1
  2279 07:8536: 22 xx xx xx  	jsl	~~k_user_AddMenuItem
  2280                        ;							
                     k_user_AddMenuItem(subMenu,"Debug Pointer Resize",DESK_MENU
                    _DBG_RESIZE);
  2281                        	.line	219
  2282 07:853A: F4 3B 00     	pea	#<$3b
  2283 07:853D: F4 xx xx     	pea	#^L10+485
  2284 07:8540: F4 xx xx     	pea	#<L10+485
  2285 07:8543: D4 45        	pei	<L12+subMenu_1+2
  2286 07:8545: D4 43        	pei	<L12+subMenu_1
  2287 07:8547: 22 xx xx xx  	jsl	~~k_user_AddMenuItem
  2288                        ;
  2289                        ;
  2290                        ;
  2291                        ;
  2292                        ;				subMenu = k_user_AddMenu
                    Item(desktopMenu,"About",40);
  2293                        	.line	224
  2294 07:854B: F4 28 00     	pea	#<$28
  2295 07:854E: F4 xx xx     	pea	#^L10+506
  2296 07:8551: F4 xx xx     	pea	#<L10+506
  2297 07:8554: D4 41        	pei	<L12+desktopMenu_1+2
  2298 07:8556: D4 3F        	pei	<L12+desktopMenu_1
  2299 07:8558: 22 xx xx xx  	jsl	~~k_user_AddMenuItem
  Thu Dec  3 2020 22:25                                                Page 45


  2300 07:855C: 85 43        	sta	<L12+subMenu_1
  2301 07:855E: 86 45        	stx	<L12+subMenu_1+2
  2302                        ;						  	
                     k_user_AddMenuItem(subMenu,"About FX/OS...",41);
  2303                        	.line	225
  2304 07:8560: F4 29 00     	pea	#<$29
  2305 07:8563: F4 xx xx     	pea	#^L10+512
  2306 07:8566: F4 xx xx     	pea	#<L10+512
  2307 07:8569: D4 45        	pei	<L12+subMenu_1+2
  2308 07:856B: D4 43        	pei	<L12+subMenu_1
  2309 07:856D: 22 xx xx xx  	jsl	~~k_user_AddMenuItem
  2310                        ; 						
                    	 k_user_AddMenuItem(subMenu,"_________________",0);
  2311                        	.line	226
  2312 07:8571: F4 00 00     	pea	#<$0
  2313 07:8574: F4 xx xx     	pea	#^L10+527
  2314 07:8577: F4 xx xx     	pea	#<L10+527
  2315 07:857A: D4 45        	pei	<L12+subMenu_1+2
  2316 07:857C: D4 43        	pei	<L12+subMenu_1
  2317 07:857E: 22 xx xx xx  	jsl	~~k_user_AddMenuItem
  2318                        ;						  	
                     //k_user_AddMenuItem(subMenu,"Developer Options",42);
  2319                        ; 						
                    	 //k_user_AddMenuItem(subMenu,"Debug Kernel",43);
  2320                        ;						  	
                     k_user_AddMenuItem(subMenu,"Textbox Test",42);
  2321                        	.line	229
  2322 07:8582: F4 2A 00     	pea	#<$2a
  2323 07:8585: F4 xx xx     	pea	#^L10+545
  2324 07:8588: F4 xx xx     	pea	#<L10+545
  2325 07:858B: D4 45        	pei	<L12+subMenu_1+2
  2326 07:858D: D4 43        	pei	<L12+subMenu_1
  2327 07:858F: 22 xx xx xx  	jsl	~~k_user_AddMenuItem
  2328                        ; 						
                    	 k_user_AddMenuItem(subMenu,"Listbox Test",43);
  2329                        	.line	230
  2330 07:8593: F4 2B 00     	pea	#<$2b
  2331 07:8596: F4 xx xx     	pea	#^L10+558
  2332 07:8599: F4 xx xx     	pea	#<L10+558
  2333 07:859C: D4 45        	pei	<L12+subMenu_1+2
  2334 07:859E: D4 43        	pei	<L12+subMenu_1
  2335 07:85A0: 22 xx xx xx  	jsl	~~k_user_AddMenuItem
  2336                        ;			}
  2337                        	.line	231
  2338                        ;			k_user_CreateMenu(pMsg->hwnd,des
                    ktopMenu,NULL);
  2339                        L10015:
  2340                        	.line	232
  2341 07:85A4: F4 00 00     	pea	#^$0
  2342 07:85A7: F4 00 00     	pea	#<$0
  2343 07:85AA: D4 41        	pei	<L12+desktopMenu_1+2
  2344 07:85AC: D4 3F        	pei	<L12+desktopMenu_1
  2345 07:85AE: A0 0C 00     	ldy	#$c
  2346 07:85B1: B7 72        	lda	[<L11+pMsg_0],Y
  2347 07:85B3: 48           	pha
  2348 07:85B4: A0 0A 00     	ldy	#$a
  2349 07:85B7: B7 72        	lda	[<L11+pMsg_0],Y
  2350 07:85B9: 48           	pha
  Thu Dec  3 2020 22:25                                                Page 46


  2351 07:85BA: 22 xx xx xx  	jsl	~~k_user_CreateMenu
  2352                        ;
  2353                        ;			break;
  2354                        	.line	234
  2355 07:85BE: 82 91 10     	brl	L10012
  2356                        ;		case FX_PROCESS_TIMER:
  2357                        	.line	235
  2358                        L10016:
  2359                        ;			//k_debug_string("DesktopWindowP
                    roc::FX_PROCESS_TIMER\r\n");
  2360                        ;			break;
  2361                        	.line	237
  2362 07:85C1: 82 8E 10     	brl	L10012
  2363                        ;		case FX_DRAW_WINDOW:
  2364                        	.line	238
  2365                        L10017:
  2366                        ;			k_debug_string("DesktopWindowPro
                    c::FX_DRAW_WINDOW\r\n");
  2367                        	.line	239
  2368 07:85C4: F4 xx xx     	pea	#^L10+571
  2369 07:85C7: F4 xx xx     	pea	#<L10+571
  2370 07:85CA: 22 xx xx xx  	jsl	~~k_debug_string
  2371                        ;
  2372                        ;			/*
  2373                        ;			k_user_CreateButton(pMsg->hwnd,"
                    Ok",0x8801,100,250,-1,-1);
  2374                        ;
  2375                        ;			k_user_CreateButton(pMsg->hwnd,"
                    Cancel",0x8802,150,250,-1,-1);
  2376                        ;
  2377                        ;			for(i=0;i<10;i++)
  2378                        ;				k_user_CreateButton(pMsg
                    ->hwnd,digits[i],0x080+i,10 + (32 * i),400,-1,-1);
  2379                        ;
  2380                        ;			*/
  2381                        ;
  2382                        ;			//k_vdma_fill_rect(0,0,640,480,k
                    _getUIBackgroundColor());
  2383                        ;
  2384                        ;			//_k_user_send_child_message(pMs
                    g->hwnd,FX_REDRAW_WINDOW,NULL,0);
  2385                        ;
  2386                        ;			i = 100;
  2387                        	.line	255
  2388 07:85CE: A9 64 00     	lda	#$64
  2389 07:85D1: 85 22        	sta	<L12+i_1
  2390                        ;			/*
  2391                        ;			k_user_CreateWindow(FXWS_THICKFR
                    AME | FXWS_CAPTION | FXWS_VISIBLE | FXWS_SYSMENU | FXWS_MINI
                    MIZEBOX | FXWS_MAXIMIZEBOX,
  2392                        ;							
                    	"testWindowClass",
  2393                        ;							
                    	"Test Window 1",
  2394                        ;							
                    	i,i,
  2395                        ;							
                    	300,200,
  Thu Dec  3 2020 22:25                                                Page 47


  2396                        ;							
                    	pMsg->hwnd,
  2397                        ;							
                    	NULL,
  2398                        ;							
                    	NULL);
  2399                        ;			i+=20;
  2400                        ;
  2401                        ;
  2402                        ;			k_user_CreateWindow(FXWS_THICKFR
                    AME | FXWS_CAPTION | FXWS_VISIBLE | FXWS_SYSMENU | FXWS_MINI
                    MIZEBOX,
  2403                        ;							
                    	"testWindowClass",
  2404                        ;							
                    	"Test Window 2",
  2405                        ;							
                    	i,i,
  2406                        ;							
                    	300,200,
  2407                        ;							
                    	pMsg->hwnd,
  2408                        ;							
                    	NULL,
  2409                        ;							
                    	NULL);
  2410                        ;			i+=20;
  2411                        ;
  2412                        ;			k_user_CreateWindow(FXWS_THICKFR
                    AME | FXWS_CAPTION | FXWS_VISIBLE | FXWS_SYSMENU,
  2413                        ;							
                    	"testWindowClass",
  2414                        ;							
                    	"Test Window 3",
  2415                        ;							
                    	i,i,
  2416                        ;							
                    	300,200,
  2417                        ;							
                    	pMsg->hwnd,
  2418                        ;							
                    	NULL,
  2419                        ;							
                    	NULL);
  2420                        ;			i+=20;
  2421                        ;
  2422                        ;			k_user_CreateWindow(FXWS_THICKFR
                    AME | FXWS_CAPTION | FXWS_VISIBLE,
  2423                        ;							
                    	"testWindowClass",
  2424                        ;							
                    	"Test Window 4",
  2425                        ;							
                    	i,i,
  2426                        ;							
                    	300,200,
  2427                        ;							
                    	pMsg->hwnd,
  Thu Dec  3 2020 22:25                                                Page 48


  2428                        ;							
                    	NULL,
  2429                        ;							
                    	NULL);
  2430                        ;			i+=20;
  2431                        ;
  2432                        ;			k_user_CreateWindow(FXWS_THICKFR
                    AME | FXWS_VISIBLE,
  2433                        ;							
                    	"testWindowClass",
  2434                        ;							
                    	"Test Window 5",
  2435                        ;							
                    	i,i,
  2436                        ;							
                    	300,200,
  2437                        ;							
                    	pMsg->hwnd,
  2438                        ;							
                    	NULL,
  2439                        ;							
                    	NULL);
  2440                        ;			i+=20;
  2441                        ;
  2442                        ;			k_user_CreateWindow(FXWS_BORDER 
                    | FXWS_VISIBLE,
  2443                        ;							
                    	"testWindowClass",
  2444                        ;							
                    	"Test Window 5",
  2445                        ;							
                    	i,i,
  2446                        ;							
                    	300,200,
  2447                        ;							
                    	pMsg->hwnd,
  2448                        ;							
                    	NULL,
  2449                        ;							
                    	NULL);
  2450                        ;			i+=20;
  2451                        ;
  2452                        ;
  2453                        ;			dlgWnd = k_user_CreateWindow(FXW
                    S_DLGFRAME | FXWS_VISIBLE,
  2454                        ;							
                    	"dialogWindowClass",
  2455                        ;							
                    	"Dialog Window",
  2456                        ;							
                    	i,i,
  2457                        ;							
                    	300,200,
  2458                        ;							
                    	pMsg->hwnd,
  2459                        ;							
                    	NULL,
  2460                        ;							
  Thu Dec  3 2020 22:25                                                Page 49


                    	NULL);
  2461                        ;
  2462                        ;			k_user_CenterWindow((HWND)dlgWnd
                    );
  2463                        ;
  2464                        ;			i+=20;
  2465                        ;			*/
  2466                        ;
  2467                        ;			break;
  2468                        	.line	333
  2469 07:85D3: 82 7C 10     	brl	L10012
  2470                        ;		case FX_CONTROL_COMMAND:
  2471                        	.line	334
  2472                        L10018:
  2473                        ;			k_debug_integer("DesktopWindowPr
                    oc::FX_CONTROL_COMMAND:", ((PFXCMDMESSAGE)pMsg)->cmdCId );
  2474                        	.line	335
  2475 07:85D6: A0 16 00     	ldy	#$16
  2476 07:85D9: B7 72        	lda	[<L11+pMsg_0],Y
  2477 07:85DB: 48           	pha
  2478 07:85DC: F4 xx xx     	pea	#^L10+607
  2479 07:85DF: F4 xx xx     	pea	#<L10+607
  2480 07:85E2: 22 xx xx xx  	jsl	~~k_debug_integer
  2481                        ;
  2482                        ;			break;
  2483                        	.line	337
  2484 07:85E6: 82 69 10     	brl	L10012
  2485                        ;
  2486                        ;		case FX_SCROLLBAR_COMMAND:
  2487                        	.line	339
  2488                        L10019:
  2489                        ;			k_debug_integer("DesktopWindowPr
                    oc::FX_SCROLLBAR_COMMAND:", ((PFXCMDMESSAGE)pMsg)->cmdCId );
  2490                        	.line	340
  2491 07:85E9: A0 16 00     	ldy	#$16
  2492 07:85EC: B7 72        	lda	[<L11+pMsg_0],Y
  2493 07:85EE: 48           	pha
  2494 07:85EF: F4 xx xx     	pea	#^L10+646
  2495 07:85F2: F4 xx xx     	pea	#<L10+646
  2496 07:85F5: 22 xx xx xx  	jsl	~~k_debug_integer
  2497                        ;			if(((PFXCMDMESSAGE)pMsg)->cmdCId
                     == CTL_HORZ_SCROLL )
  2498                        	.line	341
  2499                        ;			{
  2500 07:85F9: A0 16 00     	ldy	#$16
  2501 07:85FC: B7 72        	lda	[<L11+pMsg_0],Y
  2502 07:85FE: C9 02 00     	cmp	#<$2
  2503 07:8601: F0 03        	beq	L19
  2504 07:8603: 82 20 00     	brl	L10020
  2505                        L19:
  2506                        	.line	342
  2507                        ;				k_debug_integer("Desktop
                    WindowProc::FX_SCROLLBAR_COMMAND:LOCATION:", ((PFXCMDMESSAGE
                    )pMsg)->cmdMId );
  2508                        	.line	343
  2509 07:8606: A0 18 00     	ldy	#$18
  2510 07:8609: B7 72        	lda	[<L11+pMsg_0],Y
  2511 07:860B: 48           	pha
  Thu Dec  3 2020 22:25                                                Page 50


  2512 07:860C: F4 xx xx     	pea	#^L10+687
  2513 07:860F: F4 xx xx     	pea	#<L10+687
  2514 07:8612: 22 xx xx xx  	jsl	~~k_debug_integer
  2515                        ;				k_debug_integer("Desktop
                    WindowProc::FX_SCROLLBAR_COMMAND:VALUE:", ((PFXCMDMESSAGE)pM
                    sg)->parameter1);
  2516                        	.line	344
  2517 07:8616: A0 1A 00     	ldy	#$1a
  2518 07:8619: B7 72        	lda	[<L11+pMsg_0],Y
  2519 07:861B: 48           	pha
  2520 07:861C: F4 xx xx     	pea	#^L10+737
  2521 07:861F: F4 xx xx     	pea	#<L10+737
  2522 07:8622: 22 xx xx xx  	jsl	~~k_debug_integer
  2523                        ;			}
  2524                        	.line	345
  2525                        ;			break;
  2526                        L10020:
  2527                        	.line	346
  2528 07:8626: 82 29 10     	brl	L10012
  2529                        ;		case FX_MENU_COMMAND:
  2530                        	.line	347
  2531                        L10021:
  2532                        ;			//k_debug_integer("DesktopWindow
                    Proc::FX_MENU_COMMAND:", ((PFXCMDMESSAGE)pMsg)->cmdCId );
  2533                        ;			//k_debug_integer("DesktopWindow
                    Proc::MENUCTL:", ((PFXCMDMESSAGE)pMsg)->cmdMId );
  2534                        ;			//k_debug_long("DesktopWindowPro
                    c::FX_MENU_COMMAND:DATA:", ((PFXCMDMESSAGE)pMsg)->parameter1
                     );
  2535                        ;
  2536                        ;			if(((PFXCMDMESSAGE)pMsg)->cmdCId
                     == CTL_MENU_SELECTED )
  2537                        	.line	352
  2538                        ;			{
  2539 07:8629: A0 16 00     	ldy	#$16
  2540 07:862C: B7 72        	lda	[<L11+pMsg_0],Y
  2541 07:862E: C9 01 00     	cmp	#<$1
  2542 07:8631: F0 03        	beq	L20
  2543 07:8633: 82 C2 05     	brl	L10022
  2544                        L20:
  2545                        	.line	353
  2546                        ;				switch(((PFXCMDMESSAGE)p
                    Msg)->cmdMId)
  2547                        	.line	354
  2548 07:8636: A0 18 00     	ldy	#$18
  2549 07:8639: B7 72        	lda	[<L11+pMsg_0],Y
  2550 07:863B: 82 7C 05     	brl	L10023
  2551                        ;				{
  2552                        	.line	355
  2553                        ;				case DESK_MENU_DEVOPS:
  2554                        	.line	356
  2555                        L10025:
  2556                        ;					dlgWnd = k_getWi
                    ndowFromHandle(k_user_findWindow("TEXTBOX1"));
  2557                        	.line	357
  2558 07:863E: F4 xx xx     	pea	#^L10+784
  2559 07:8641: F4 xx xx     	pea	#<L10+784
  2560 07:8644: 22 xx xx xx  	jsl	~~k_user_findWindow
  Thu Dec  3 2020 22:25                                                Page 51


  2561 07:8648: 85 01        	sta	<R0
  2562 07:864A: 86 03        	stx	<R0+2
  2563 07:864C: DA           	phx
  2564 07:864D: 48           	pha
  2565 07:864E: 22 xx xx xx  	jsl	~~k_getWindowFromHandle
  2566 07:8652: 85 15        	sta	<L12+dlgWnd_1
  2567 07:8654: 86 17        	stx	<L12+dlgWnd_1+2
  2568                        ;					if(!dlgWnd || (d
                    lgWnd && dlgWnd->isClosed))
  2569                        	.line	358
  2570                        ;					{
  2571 07:8656: A5 15        	lda	<L12+dlgWnd_1
  2572 07:8658: 05 17        	ora	<L12+dlgWnd_1+2
  2573 07:865A: D0 03        	bne	L22
  2574 07:865C: 82 16 00     	brl	L21
  2575                        L22:
  2576 07:865F: A5 15        	lda	<L12+dlgWnd_1
  2577 07:8661: 05 17        	ora	<L12+dlgWnd_1+2
  2578 07:8663: D0 03        	bne	L23
  2579 07:8665: 82 58 00     	brl	L10026
  2580                        L23:
  2581 07:8668: A0 5D 01     	ldy	#$15d
  2582 07:866B: B7 15        	lda	[<L12+dlgWnd_1],Y
  2583 07:866D: 29 FF 00     	and	#$ff
  2584 07:8670: D0 03        	bne	L24
  2585 07:8672: 82 4B 00     	brl	L10026
  2586                        L24:
  2587                        L21:
  2588                        	.line	359
  2589                        ;						dlgWnd =
                     k_user_CreateWindow(FXWS_BORDER | FXWS_VISIBLE,
  2590                        	.line	360
  2591                        ;							
                    				"textboxWindowClass",
  2592                        ;							
                    				"TEXTBOX1",
  2593                        ;							
                    				400,20,
  2594                        ;							
                    				200,FONTH + 4,
  2595                        ;							
                    				pMsg->hwnd,
  2596                        ;							
                    				NULL,
  2597                        ;							
                    				NULL);
  2598 07:8675: F4 00 00     	pea	#^$0
  2599 07:8678: F4 00 00     	pea	#<$0
  2600 07:867B: F4 00 00     	pea	#^$0
  2601 07:867E: F4 00 00     	pea	#<$0
  2602 07:8681: A0 0C 00     	ldy	#$c
  2603 07:8684: B7 72        	lda	[<L11+pMsg_0],Y
  2604 07:8686: 48           	pha
  2605 07:8687: A0 0A 00     	ldy	#$a
  2606 07:868A: B7 72        	lda	[<L11+pMsg_0],Y
  2607 07:868C: 48           	pha
  2608 07:868D: 22 xx xx xx  	jsl	~~k_font_getFontHeight
  2609 07:8691: 85 01        	sta	<R0
  Thu Dec  3 2020 22:25                                                Page 52


  2610 07:8693: 18           	clc
  2611 07:8694: A9 04 00     	lda	#$4
  2612 07:8697: 65 01        	adc	<R0
  2613 07:8699: 48           	pha
  2614 07:869A: F4 C8 00     	pea	#<$c8
  2615 07:869D: F4 14 00     	pea	#<$14
  2616 07:86A0: F4 90 01     	pea	#<$190
  2617 07:86A3: F4 xx xx     	pea	#^L10+812
  2618 07:86A6: F4 xx xx     	pea	#<L10+812
  2619 07:86A9: F4 xx xx     	pea	#^L10+793
  2620 07:86AC: F4 xx xx     	pea	#<L10+793
  2621 07:86AF: F4 01 00     	pea	#^$10001
  2622 07:86B2: F4 01 00     	pea	#<$10001
  2623 07:86B5: 22 xx xx xx  	jsl	~~k_user_CreateWindow
  2624 07:86B9: 85 15        	sta	<L12+dlgWnd_1
  2625 07:86BB: 86 17        	stx	<L12+dlgWnd_1+2
  2626                        ;
  2627                        ;					}
  2628                        	.line	369
  2629                        ;					else
  2630 07:86BD: 82 0A 00     	brl	L10027
  2631                        L10026:
  2632                        ;					{
  2633                        	.line	371
  2634                        ;						k_debug_
                    string("TEXTBOX1 Already Open\r\n");
  2635                        	.line	372
  2636 07:86C0: F4 xx xx     	pea	#^L10+821
  2637 07:86C3: F4 xx xx     	pea	#<L10+821
  2638 07:86C6: 22 xx xx xx  	jsl	~~k_debug_string
  2639                        ;					}
  2640                        	.line	373
  2641                        L10027:
  2642                        ;
  2643                        ;					dlgWnd = k_getWi
                    ndowFromHandle(k_user_findWindow("TEXTBOX2"));
  2644                        	.line	375
  2645 07:86CA: F4 xx xx     	pea	#^L10+845
  2646 07:86CD: F4 xx xx     	pea	#<L10+845
  2647 07:86D0: 22 xx xx xx  	jsl	~~k_user_findWindow
  2648 07:86D4: 85 01        	sta	<R0
  2649 07:86D6: 86 03        	stx	<R0+2
  2650 07:86D8: DA           	phx
  2651 07:86D9: 48           	pha
  2652 07:86DA: 22 xx xx xx  	jsl	~~k_getWindowFromHandle
  2653 07:86DE: 85 15        	sta	<L12+dlgWnd_1
  2654 07:86E0: 86 17        	stx	<L12+dlgWnd_1+2
  2655                        ;					if(!dlgWnd || (d
                    lgWnd && dlgWnd->isClosed))
  2656                        	.line	376
  2657                        ;					{
  2658 07:86E2: A5 15        	lda	<L12+dlgWnd_1
  2659 07:86E4: 05 17        	ora	<L12+dlgWnd_1+2
  2660 07:86E6: D0 03        	bne	L26
  2661 07:86E8: 82 16 00     	brl	L25
  2662                        L26:
  2663 07:86EB: A5 15        	lda	<L12+dlgWnd_1
  2664 07:86ED: 05 17        	ora	<L12+dlgWnd_1+2
  Thu Dec  3 2020 22:25                                                Page 53


  2665 07:86EF: D0 03        	bne	L27
  2666 07:86F1: 82 58 00     	brl	L10028
  2667                        L27:
  2668 07:86F4: A0 5D 01     	ldy	#$15d
  2669 07:86F7: B7 15        	lda	[<L12+dlgWnd_1],Y
  2670 07:86F9: 29 FF 00     	and	#$ff
  2671 07:86FC: D0 03        	bne	L28
  2672 07:86FE: 82 4B 00     	brl	L10028
  2673                        L28:
  2674                        L25:
  2675                        	.line	377
  2676                        ;						dlgWnd =
                     k_user_CreateWindow(FXWS_BORDER | FXWS_VISIBLE,
  2677                        	.line	378
  2678                        ;							
                    				"textboxWindowClass",
  2679                        ;							
                    				"TEXTBOX2",
  2680                        ;							
                    				400,50,
  2681                        ;							
                    				200,FONTH + 4,
  2682                        ;							
                    				pMsg->hwnd,
  2683                        ;							
                    				NULL,
  2684                        ;							
                    				NULL);
  2685 07:8701: F4 00 00     	pea	#^$0
  2686 07:8704: F4 00 00     	pea	#<$0
  2687 07:8707: F4 00 00     	pea	#^$0
  2688 07:870A: F4 00 00     	pea	#<$0
  2689 07:870D: A0 0C 00     	ldy	#$c
  2690 07:8710: B7 72        	lda	[<L11+pMsg_0],Y
  2691 07:8712: 48           	pha
  2692 07:8713: A0 0A 00     	ldy	#$a
  2693 07:8716: B7 72        	lda	[<L11+pMsg_0],Y
  2694 07:8718: 48           	pha
  2695 07:8719: 22 xx xx xx  	jsl	~~k_font_getFontHeight
  2696 07:871D: 85 01        	sta	<R0
  2697 07:871F: 18           	clc
  2698 07:8720: A9 04 00     	lda	#$4
  2699 07:8723: 65 01        	adc	<R0
  2700 07:8725: 48           	pha
  2701 07:8726: F4 C8 00     	pea	#<$c8
  2702 07:8729: F4 32 00     	pea	#<$32
  2703 07:872C: F4 90 01     	pea	#<$190
  2704 07:872F: F4 xx xx     	pea	#^L10+873
  2705 07:8732: F4 xx xx     	pea	#<L10+873
  2706 07:8735: F4 xx xx     	pea	#^L10+854
  2707 07:8738: F4 xx xx     	pea	#<L10+854
  2708 07:873B: F4 01 00     	pea	#^$10001
  2709 07:873E: F4 01 00     	pea	#<$10001
  2710 07:8741: 22 xx xx xx  	jsl	~~k_user_CreateWindow
  2711 07:8745: 85 15        	sta	<L12+dlgWnd_1
  2712 07:8747: 86 17        	stx	<L12+dlgWnd_1+2
  2713                        ;
  2714                        ;					}
  Thu Dec  3 2020 22:25                                                Page 54


  2715                        	.line	387
  2716                        ;					else
  2717 07:8749: 82 0A 00     	brl	L10029
  2718                        L10028:
  2719                        ;					{
  2720                        	.line	389
  2721                        ;						k_debug_
                    string("TEXTBOX2 Already Open\r\n");
  2722                        	.line	390
  2723 07:874C: F4 xx xx     	pea	#^L10+882
  2724 07:874F: F4 xx xx     	pea	#<L10+882
  2725 07:8752: 22 xx xx xx  	jsl	~~k_debug_string
  2726                        ;					}
  2727                        	.line	391
  2728                        L10029:
  2729                        ;
  2730                        ;
  2731                        ;					break;
  2732                        	.line	394
  2733 07:8756: 82 9F 04     	brl	L10024
  2734                        ;				case DESK_MENU_DEBUG:
  2735                        	.line	395
  2736                        L10030:
  2737                        ;
  2738                        ;					dlgWnd = k_getWi
                    ndowFromHandle(k_user_findWindow("LISTBOX"));
  2739                        	.line	397
  2740 07:8759: F4 xx xx     	pea	#^L10+906
  2741 07:875C: F4 xx xx     	pea	#<L10+906
  2742 07:875F: 22 xx xx xx  	jsl	~~k_user_findWindow
  2743 07:8763: 85 01        	sta	<R0
  2744 07:8765: 86 03        	stx	<R0+2
  2745 07:8767: DA           	phx
  2746 07:8768: 48           	pha
  2747 07:8769: 22 xx xx xx  	jsl	~~k_getWindowFromHandle
  2748 07:876D: 85 15        	sta	<L12+dlgWnd_1
  2749 07:876F: 86 17        	stx	<L12+dlgWnd_1+2
  2750                        ;					if(!dlgWnd || (d
                    lgWnd && dlgWnd->isClosed))
  2751                        	.line	398
  2752                        ;					{
  2753 07:8771: A5 15        	lda	<L12+dlgWnd_1
  2754 07:8773: 05 17        	ora	<L12+dlgWnd_1+2
  2755 07:8775: D0 03        	bne	L30
  2756 07:8777: 82 16 00     	brl	L29
  2757                        L30:
  2758 07:877A: A5 15        	lda	<L12+dlgWnd_1
  2759 07:877C: 05 17        	ora	<L12+dlgWnd_1+2
  2760 07:877E: D0 03        	bne	L31
  2761 07:8780: 82 4E 00     	brl	L10031
  2762                        L31:
  2763 07:8783: A0 5D 01     	ldy	#$15d
  2764 07:8786: B7 15        	lda	[<L12+dlgWnd_1],Y
  2765 07:8788: 29 FF 00     	and	#$ff
  2766 07:878B: D0 03        	bne	L32
  2767 07:878D: 82 41 00     	brl	L10031
  2768                        L32:
  2769                        L29:
  Thu Dec  3 2020 22:25                                                Page 55


  2770                        	.line	399
  2771                        ;						dlgWnd =
                     k_user_CreateWindow(FXWS_BORDER | FXWS_VISIBLE,
  2772                        	.line	400
  2773                        ;							
                    				"listboxWindowClass",
  2774                        ;							
                    				"LISTBOX",
  2775                        ;							
                    				20,20,
  2776                        ;							
                    				200,200,
  2777                        ;							
                    				pMsg->hwnd,
  2778                        ;							
                    				NULL,
  2779                        ;							
                    				NULL);
  2780 07:8790: F4 00 00     	pea	#^$0
  2781 07:8793: F4 00 00     	pea	#<$0
  2782 07:8796: F4 00 00     	pea	#^$0
  2783 07:8799: F4 00 00     	pea	#<$0
  2784 07:879C: A0 0C 00     	ldy	#$c
  2785 07:879F: B7 72        	lda	[<L11+pMsg_0],Y
  2786 07:87A1: 48           	pha
  2787 07:87A2: A0 0A 00     	ldy	#$a
  2788 07:87A5: B7 72        	lda	[<L11+pMsg_0],Y
  2789 07:87A7: 48           	pha
  2790 07:87A8: F4 C8 00     	pea	#<$c8
  2791 07:87AB: F4 C8 00     	pea	#<$c8
  2792 07:87AE: F4 14 00     	pea	#<$14
  2793 07:87B1: F4 14 00     	pea	#<$14
  2794 07:87B4: F4 xx xx     	pea	#^L10+933
  2795 07:87B7: F4 xx xx     	pea	#<L10+933
  2796 07:87BA: F4 xx xx     	pea	#^L10+914
  2797 07:87BD: F4 xx xx     	pea	#<L10+914
  2798 07:87C0: F4 01 00     	pea	#^$10001
  2799 07:87C3: F4 01 00     	pea	#<$10001
  2800 07:87C6: 22 xx xx xx  	jsl	~~k_user_CreateWindow
  2801 07:87CA: 85 15        	sta	<L12+dlgWnd_1
  2802 07:87CC: 86 17        	stx	<L12+dlgWnd_1+2
  2803                        ;
  2804                        ;					}
  2805                        	.line	409
  2806                        ;					else
  2807 07:87CE: 82 0A 00     	brl	L10032
  2808                        L10031:
  2809                        ;					{
  2810                        	.line	411
  2811                        ;						k_debug_
                    string("Listbox Already Open\r\n");
  2812                        	.line	412
  2813 07:87D1: F4 xx xx     	pea	#^L10+941
  2814 07:87D4: F4 xx xx     	pea	#<L10+941
  2815 07:87D7: 22 xx xx xx  	jsl	~~k_debug_string
  2816                        ;					}
  2817                        	.line	413
  2818                        L10032:
  Thu Dec  3 2020 22:25                                                Page 56


  2819                        ;					break;
  2820                        	.line	414
  2821 07:87DB: 82 1A 04     	brl	L10024
  2822                        ;				case DESK_MENU_ABOUTOS:
  2823                        	.line	415
  2824                        L10033:
  2825                        ;					dlgWnd = k_getWi
                    ndowFromHandle(k_user_findWindow("About FX/OS"));
  2826                        	.line	416
  2827 07:87DE: F4 xx xx     	pea	#^L10+964
  2828 07:87E1: F4 xx xx     	pea	#<L10+964
  2829 07:87E4: 22 xx xx xx  	jsl	~~k_user_findWindow
  2830 07:87E8: 85 01        	sta	<R0
  2831 07:87EA: 86 03        	stx	<R0+2
  2832 07:87EC: DA           	phx
  2833 07:87ED: 48           	pha
  2834 07:87EE: 22 xx xx xx  	jsl	~~k_getWindowFromHandle
  2835 07:87F2: 85 15        	sta	<L12+dlgWnd_1
  2836 07:87F4: 86 17        	stx	<L12+dlgWnd_1+2
  2837                        ;					if(!dlgWnd || (d
                    lgWnd && dlgWnd->isClosed))
  2838                        	.line	417
  2839                        ;					{
  2840 07:87F6: A5 15        	lda	<L12+dlgWnd_1
  2841 07:87F8: 05 17        	ora	<L12+dlgWnd_1+2
  2842 07:87FA: D0 03        	bne	L34
  2843 07:87FC: 82 16 00     	brl	L33
  2844                        L34:
  2845 07:87FF: A5 15        	lda	<L12+dlgWnd_1
  2846 07:8801: 05 17        	ora	<L12+dlgWnd_1+2
  2847 07:8803: D0 03        	bne	L35
  2848 07:8805: 82 4E 00     	brl	L10034
  2849                        L35:
  2850 07:8808: A0 5D 01     	ldy	#$15d
  2851 07:880B: B7 15        	lda	[<L12+dlgWnd_1],Y
  2852 07:880D: 29 FF 00     	and	#$ff
  2853 07:8810: D0 03        	bne	L36
  2854 07:8812: 82 41 00     	brl	L10034
  2855                        L36:
  2856                        L33:
  2857                        	.line	418
  2858                        ;						dlgWnd =
                     k_user_CreateWindow(FXWS_DLGFRAME | FXWS_VISIBLE,
  2859                        	.line	419
  2860                        ;							
                    				"aboutDialogWindowClass",
  2861                        ;							
                    				"About FX/OS",
  2862                        ;							
                    				150,150,
  2863                        ;							
                    				300,150,
  2864                        ;							
                    				pMsg->hwnd,
  2865                        ;							
                    				NULL,
  2866                        ;							
                    				NULL);
  Thu Dec  3 2020 22:25                                                Page 57


  2867 07:8815: F4 00 00     	pea	#^$0
  2868 07:8818: F4 00 00     	pea	#<$0
  2869 07:881B: F4 00 00     	pea	#^$0
  2870 07:881E: F4 00 00     	pea	#<$0
  2871 07:8821: A0 0C 00     	ldy	#$c
  2872 07:8824: B7 72        	lda	[<L11+pMsg_0],Y
  2873 07:8826: 48           	pha
  2874 07:8827: A0 0A 00     	ldy	#$a
  2875 07:882A: B7 72        	lda	[<L11+pMsg_0],Y
  2876 07:882C: 48           	pha
  2877 07:882D: F4 96 00     	pea	#<$96
  2878 07:8830: F4 2C 01     	pea	#<$12c
  2879 07:8833: F4 96 00     	pea	#<$96
  2880 07:8836: F4 96 00     	pea	#<$96
  2881 07:8839: F4 xx xx     	pea	#^L10+999
  2882 07:883C: F4 xx xx     	pea	#<L10+999
  2883 07:883F: F4 xx xx     	pea	#^L10+976
  2884 07:8842: F4 xx xx     	pea	#<L10+976
  2885 07:8845: F4 04 00     	pea	#^$40001
  2886 07:8848: F4 01 00     	pea	#<$40001
  2887 07:884B: 22 xx xx xx  	jsl	~~k_user_CreateWindow
  2888 07:884F: 85 15        	sta	<L12+dlgWnd_1
  2889 07:8851: 86 17        	stx	<L12+dlgWnd_1+2
  2890                        ;
  2891                        ;					}
  2892                        	.line	428
  2893                        ;					else
  2894 07:8853: 82 0A 00     	brl	L10035
  2895                        L10034:
  2896                        ;					{
  2897                        	.line	430
  2898                        ;						k_debug_
                    string("Dialog Already Open\r\n");
  2899                        	.line	431
  2900 07:8856: F4 xx xx     	pea	#^L10+1011
  2901 07:8859: F4 xx xx     	pea	#<L10+1011
  2902 07:885C: 22 xx xx xx  	jsl	~~k_debug_string
  2903                        ;					}
  2904                        	.line	432
  2905                        L10035:
  2906                        ;					break;
  2907                        	.line	433
  2908 07:8860: 82 95 03     	brl	L10024
  2909                        ;
  2910                        ;				case DESK_MENU_PREFS:
  2911                        	.line	435
  2912                        L10036:
  2913                        ;
  2914                        ;					dlgWnd = k_getWi
                    ndowFromHandle(k_user_findWindow("Preferences"));
  2915                        	.line	437
  2916 07:8863: F4 xx xx     	pea	#^L10+1033
  2917 07:8866: F4 xx xx     	pea	#<L10+1033
  2918 07:8869: 22 xx xx xx  	jsl	~~k_user_findWindow
  2919 07:886D: 85 01        	sta	<R0
  2920 07:886F: 86 03        	stx	<R0+2
  2921 07:8871: DA           	phx
  2922 07:8872: 48           	pha
  Thu Dec  3 2020 22:25                                                Page 58


  2923 07:8873: 22 xx xx xx  	jsl	~~k_getWindowFromHandle
  2924 07:8877: 85 15        	sta	<L12+dlgWnd_1
  2925 07:8879: 86 17        	stx	<L12+dlgWnd_1+2
  2926                        ;					if(!dlgWnd || (d
                    lgWnd && dlgWnd->isClosed))
  2927                        	.line	438
  2928                        ;					{
  2929 07:887B: A5 15        	lda	<L12+dlgWnd_1
  2930 07:887D: 05 17        	ora	<L12+dlgWnd_1+2
  2931 07:887F: D0 03        	bne	L38
  2932 07:8881: 82 16 00     	brl	L37
  2933                        L38:
  2934 07:8884: A5 15        	lda	<L12+dlgWnd_1
  2935 07:8886: 05 17        	ora	<L12+dlgWnd_1+2
  2936 07:8888: D0 03        	bne	L39
  2937 07:888A: 82 CE 00     	brl	L10037
  2938                        L39:
  2939 07:888D: A0 5D 01     	ldy	#$15d
  2940 07:8890: B7 15        	lda	[<L12+dlgWnd_1],Y
  2941 07:8892: 29 FF 00     	and	#$ff
  2942 07:8895: D0 03        	bne	L40
  2943 07:8897: 82 C1 00     	brl	L10037
  2944                        L40:
  2945                        L37:
  2946                        	.line	439
  2947                        ;						dlgWnd =
                     k_user_CreateWindow(FXWS_THICKFRAME | FXWS_CAPTION | FXWS_V
                    ISIBLE | FXWS_SYSMENU,
  2948                        	.line	440
  2949                        ;							
                    				"preferencesWindowClass",
  2950                        ;							
                    				"Preferences",
  2951                        ;							
                    				150,150,
  2952                        ;							
                    				350,250,
  2953                        ;							
                    				pMsg->hwnd,
  2954                        ;							
                    				NULL,
  2955                        ;							
                    				NULL);
  2956 07:889A: F4 00 00     	pea	#^$0
  2957 07:889D: F4 00 00     	pea	#<$0
  2958 07:88A0: F4 00 00     	pea	#^$0
  2959 07:88A3: F4 00 00     	pea	#<$0
  2960 07:88A6: A0 0C 00     	ldy	#$c
  2961 07:88A9: B7 72        	lda	[<L11+pMsg_0],Y
  2962 07:88AB: 48           	pha
  2963 07:88AC: A0 0A 00     	ldy	#$a
  2964 07:88AF: B7 72        	lda	[<L11+pMsg_0],Y
  2965 07:88B1: 48           	pha
  2966 07:88B2: F4 FA 00     	pea	#<$fa
  2967 07:88B5: F4 5E 01     	pea	#<$15e
  2968 07:88B8: F4 96 00     	pea	#<$96
  2969 07:88BB: F4 96 00     	pea	#<$96
  2970 07:88BE: F4 xx xx     	pea	#^L10+1068
  Thu Dec  3 2020 22:25                                                Page 59


  2971 07:88C1: F4 xx xx     	pea	#<L10+1068
  2972 07:88C4: F4 xx xx     	pea	#^L10+1045
  2973 07:88C7: F4 xx xx     	pea	#<L10+1045
  2974 07:88CA: F4 02 00     	pea	#^$2000d
  2975 07:88CD: F4 0D 00     	pea	#<$2000d
  2976 07:88D0: 22 xx xx xx  	jsl	~~k_user_CreateWindow
  2977 07:88D4: 85 15        	sta	<L12+dlgWnd_1
  2978 07:88D6: 86 17        	stx	<L12+dlgWnd_1+2
  2979                        ;
  2980                        ;						dlgWnd =
                     k_user_CreateWindow(FXWS_THICKFRAME | FXWS_CAPTION | FXWS_V
                    ISIBLE | FXWS_SYSMENU,
  2981                        	.line	449
  2982                        ;							
                    				"preferencesWindowClass",
  2983                        ;							
                    				"Child1",
  2984                        ;							
                    				20,20,
  2985                        ;							
                    				150,120,
  2986                        ;							
                    				k_getHandleFromWindow(dlgWnd),
  2987                        ;							
                    				NULL,
  2988                        ;							
                    				NULL);
  2989 07:88D8: F4 00 00     	pea	#^$0
  2990 07:88DB: F4 00 00     	pea	#<$0
  2991 07:88DE: F4 00 00     	pea	#^$0
  2992 07:88E1: F4 00 00     	pea	#<$0
  2993 07:88E4: D4 17        	pei	<L12+dlgWnd_1+2
  2994 07:88E6: D4 15        	pei	<L12+dlgWnd_1
  2995 07:88E8: 22 xx xx xx  	jsl	~~k_getHandleFromWindow
  2996 07:88EC: 85 01        	sta	<R0
  2997 07:88EE: 86 03        	stx	<R0+2
  2998 07:88F0: DA           	phx
  2999 07:88F1: 48           	pha
  3000 07:88F2: F4 78 00     	pea	#<$78
  3001 07:88F5: F4 96 00     	pea	#<$96
  3002 07:88F8: F4 14 00     	pea	#<$14
  3003 07:88FB: F4 14 00     	pea	#<$14
  3004 07:88FE: F4 xx xx     	pea	#^L10+1103
  3005 07:8901: F4 xx xx     	pea	#<L10+1103
  3006 07:8904: F4 xx xx     	pea	#^L10+1080
  3007 07:8907: F4 xx xx     	pea	#<L10+1080
  3008 07:890A: F4 02 00     	pea	#^$2000d
  3009 07:890D: F4 0D 00     	pea	#<$2000d
  3010 07:8910: 22 xx xx xx  	jsl	~~k_user_CreateWindow
  3011 07:8914: 85 15        	sta	<L12+dlgWnd_1
  3012 07:8916: 86 17        	stx	<L12+dlgWnd_1+2
  3013                        ;
  3014                        ;						dlgWnd =
                     k_user_CreateWindow(FXWS_THICKFRAME | FXWS_CAPTION | FXWS_V
                    ISIBLE | FXWS_SYSMENU,
  3015                        	.line	458
  3016                        ;							
                    				"preferencesWindowClass",
  Thu Dec  3 2020 22:25                                                Page 60


  3017                        ;							
                    				"C2",
  3018                        ;							
                    				20,20,
  3019                        ;							
                    				100,75,
  3020                        ;							
                    				k_getHandleFromWindow(dlgWnd),
  3021                        ;							
                    				NULL,
  3022                        ;							
                    				NULL);
  3023 07:8918: F4 00 00     	pea	#^$0
  3024 07:891B: F4 00 00     	pea	#<$0
  3025 07:891E: F4 00 00     	pea	#^$0
  3026 07:8921: F4 00 00     	pea	#<$0
  3027 07:8924: D4 17        	pei	<L12+dlgWnd_1+2
  3028 07:8926: D4 15        	pei	<L12+dlgWnd_1
  3029 07:8928: 22 xx xx xx  	jsl	~~k_getHandleFromWindow
  3030 07:892C: 85 01        	sta	<R0
  3031 07:892E: 86 03        	stx	<R0+2
  3032 07:8930: DA           	phx
  3033 07:8931: 48           	pha
  3034 07:8932: F4 4B 00     	pea	#<$4b
  3035 07:8935: F4 64 00     	pea	#<$64
  3036 07:8938: F4 14 00     	pea	#<$14
  3037 07:893B: F4 14 00     	pea	#<$14
  3038 07:893E: F4 xx xx     	pea	#^L10+1133
  3039 07:8941: F4 xx xx     	pea	#<L10+1133
  3040 07:8944: F4 xx xx     	pea	#^L10+1110
  3041 07:8947: F4 xx xx     	pea	#<L10+1110
  3042 07:894A: F4 02 00     	pea	#^$2000d
  3043 07:894D: F4 0D 00     	pea	#<$2000d
  3044 07:8950: 22 xx xx xx  	jsl	~~k_user_CreateWindow
  3045 07:8954: 85 15        	sta	<L12+dlgWnd_1
  3046 07:8956: 86 17        	stx	<L12+dlgWnd_1+2
  3047                        ;					}
  3048                        	.line	466
  3049                        ;					else
  3050 07:8958: 82 0A 00     	brl	L10038
  3051                        L10037:
  3052                        ;					{
  3053                        	.line	468
  3054                        ;						k_debug_
                    string("Dialog Already Open\r\n");
  3055                        	.line	469
  3056 07:895B: F4 xx xx     	pea	#^L10+1136
  3057 07:895E: F4 xx xx     	pea	#<L10+1136
  3058 07:8961: 22 xx xx xx  	jsl	~~k_debug_string
  3059                        ;					}
  3060                        	.line	470
  3061                        L10038:
  3062                        ;
  3063                        ;					break;
  3064                        	.line	472
  3065 07:8965: 82 90 02     	brl	L10024
  3066                        ;				case DESK_MENU_DBG_FONTS
                    :
  Thu Dec  3 2020 22:25                                                Page 61


  3067                        	.line	473
  3068                        L10039:
  3069                        ;					k_debug_string("
                    DESK_MENU_DBG_FONTS\r\n");
  3070                        	.line	474
  3071 07:8968: F4 xx xx     	pea	#^L10+1158
  3072 07:896B: F4 xx xx     	pea	#<L10+1158
  3073 07:896E: 22 xx xx xx  	jsl	~~k_debug_string
  3074                        ;					break;
  3075                        	.line	475
  3076 07:8972: 82 83 02     	brl	L10024
  3077                        ;				case DESK_MENU_DBG_WINDO
                    W:
  3078                        	.line	476
  3079                        L10040:
  3080                        ;					k_debug_string("
                    DESK_MENU_DBG_WINDOW\r\n");
  3081                        	.line	477
  3082 07:8975: F4 xx xx     	pea	#^L10+1180
  3083 07:8978: F4 xx xx     	pea	#<L10+1180
  3084 07:897B: 22 xx xx xx  	jsl	~~k_debug_string
  3085                        ;
  3086                        ;					dlgWnd = k_getWi
                    ndowFromHandle(k_user_findWindow("Debug Window"));
  3087                        	.line	479
  3088 07:897F: F4 xx xx     	pea	#^L10+1203
  3089 07:8982: F4 xx xx     	pea	#<L10+1203
  3090 07:8985: 22 xx xx xx  	jsl	~~k_user_findWindow
  3091 07:8989: 85 01        	sta	<R0
  3092 07:898B: 86 03        	stx	<R0+2
  3093 07:898D: DA           	phx
  3094 07:898E: 48           	pha
  3095 07:898F: 22 xx xx xx  	jsl	~~k_getWindowFromHandle
  3096 07:8993: 85 15        	sta	<L12+dlgWnd_1
  3097 07:8995: 86 17        	stx	<L12+dlgWnd_1+2
  3098                        ;					if(dlgWnd == NUL
                    L)
  3099                        	.line	480
  3100                        ;					{
  3101 07:8997: A5 15        	lda	<L12+dlgWnd_1
  3102 07:8999: 05 17        	ora	<L12+dlgWnd_1+2
  3103 07:899B: F0 03        	beq	L41
  3104 07:899D: 82 3D 00     	brl	L10041
  3105                        L41:
  3106                        	.line	481
  3107                        ;						k_user_C
                    reateWindow(FXWS_THICKFRAME | FXWS_CAPTION | FXWS_VISIBLE | 
                    FXWS_SYSMENU | FXWS_MINIMIZEBOX | FXWS_MAXIMIZEBOX,
  3108                        	.line	482
  3109                        ;							
                    				"testWindowClass",
  3110                        ;							
                    				"Debug Window",
  3111                        ;							
                    				100,100,
  3112                        ;							
                    				300,200,
  3113                        ;							
  Thu Dec  3 2020 22:25                                                Page 62


                    				pMsg->hwnd,
  3114                        ;							
                    				NULL,
  3115                        ;							
                    				NULL);
  3116 07:89A0: F4 00 00     	pea	#^$0
  3117 07:89A3: F4 00 00     	pea	#<$0
  3118 07:89A6: F4 00 00     	pea	#^$0
  3119 07:89A9: F4 00 00     	pea	#<$0
  3120 07:89AC: A0 0C 00     	ldy	#$c
  3121 07:89AF: B7 72        	lda	[<L11+pMsg_0],Y
  3122 07:89B1: 48           	pha
  3123 07:89B2: A0 0A 00     	ldy	#$a
  3124 07:89B5: B7 72        	lda	[<L11+pMsg_0],Y
  3125 07:89B7: 48           	pha
  3126 07:89B8: F4 C8 00     	pea	#<$c8
  3127 07:89BB: F4 2C 01     	pea	#<$12c
  3128 07:89BE: F4 64 00     	pea	#<$64
  3129 07:89C1: F4 64 00     	pea	#<$64
  3130 07:89C4: F4 xx xx     	pea	#^L10+1232
  3131 07:89C7: F4 xx xx     	pea	#<L10+1232
  3132 07:89CA: F4 xx xx     	pea	#^L10+1216
  3133 07:89CD: F4 xx xx     	pea	#<L10+1216
  3134 07:89D0: F4 02 00     	pea	#^$2003d
  3135 07:89D3: F4 3D 00     	pea	#<$2003d
  3136 07:89D6: 22 xx xx xx  	jsl	~~k_user_CreateWindow
  3137                        ;					}
  3138                        	.line	490
  3139                        ;					else
  3140 07:89DA: 82 0A 00     	brl	L10042
  3141                        L10041:
  3142                        ;					{
  3143                        	.line	492
  3144                        ;						k_debug_
                    string("Debug Window Already Open\r\n");
  3145                        	.line	493
  3146 07:89DD: F4 xx xx     	pea	#^L10+1245
  3147 07:89E0: F4 xx xx     	pea	#<L10+1245
  3148 07:89E3: 22 xx xx xx  	jsl	~~k_debug_string
  3149                        ;					}
  3150                        	.line	494
  3151                        L10042:
  3152                        ;
  3153                        ;					break;
  3154                        	.line	496
  3155 07:89E7: 82 0E 02     	brl	L10024
  3156                        ;				case DESK_MENU_DBG_SELEC
                    T:
  3157                        	.line	497
  3158                        L10043:
  3159                        ;					k_debug_string("
                    DESK_MENU_DBG_SELECT\r\n");
  3160                        	.line	498
  3161 07:89EA: F4 xx xx     	pea	#^L10+1273
  3162 07:89ED: F4 xx xx     	pea	#<L10+1273
  3163 07:89F0: 22 xx xx xx  	jsl	~~k_debug_string
  3164                        ;					break;
  3165                        	.line	499
  Thu Dec  3 2020 22:25                                                Page 63


  3166 07:89F4: 82 01 02     	brl	L10024
  3167                        ;				case DESK_MENU_DBG_DRAG:
  3168                        	.line	500
  3169                        L10044:
  3170                        ;					//pctx->Reserved
                    1 = (LPVOID)(!((LONG)pctx->Reserved1));
  3171                        ;
  3172                        ;					((INT*)pctx->use
                    rData)[DEBUG_MOUSE_ENABLE] = !((INT*)pctx->userData)[DEBUG_M
                    OUSE_ENABLE];
  3173                        	.line	503
  3174 07:89F7: A0 83 00     	ldy	#$83
  3175 07:89FA: B7 1D        	lda	[<L12+pctx_1],Y
  3176 07:89FC: 85 01        	sta	<R0
  3177 07:89FE: A0 85 00     	ldy	#$85
  3178 07:8A01: B7 1D        	lda	[<L12+pctx_1],Y
  3179 07:8A03: 85 03        	sta	<R0+2
  3180 07:8A05: 64 05        	stz	<R1
  3181 07:8A07: A0 83 00     	ldy	#$83
  3182 07:8A0A: B7 1D        	lda	[<L12+pctx_1],Y
  3183 07:8A0C: 85 09        	sta	<R2
  3184 07:8A0E: A0 85 00     	ldy	#$85
  3185 07:8A11: B7 1D        	lda	[<L12+pctx_1],Y
  3186 07:8A13: 85 0B        	sta	<R2+2
  3187 07:8A15: A7 09        	lda	[<R2]
  3188 07:8A17: F0 03        	beq	L43
  3189 07:8A19: 82 02 00     	brl	L42
  3190                        L43:
  3191 07:8A1C: E6 05        	inc	<R1
  3192                        L42:
  3193 07:8A1E: A5 05        	lda	<R1
  3194 07:8A20: 87 01        	sta	[<R0]
  3195                        ;
  3196                        ;					if(!((INT*)pctx-
                    >userData)[DEBUG_MOUSE_ENABLE])
  3197                        	.line	505
  3198                        ;					{
  3199 07:8A22: A0 83 00     	ldy	#$83
  3200 07:8A25: B7 1D        	lda	[<L12+pctx_1],Y
  3201 07:8A27: 85 01        	sta	<R0
  3202 07:8A29: A0 85 00     	ldy	#$85
  3203 07:8A2C: B7 1D        	lda	[<L12+pctx_1],Y
  3204 07:8A2E: 85 03        	sta	<R0+2
  3205 07:8A30: A7 01        	lda	[<R0]
  3206 07:8A32: F0 03        	beq	L44
  3207 07:8A34: 82 6A 00     	brl	L10045
  3208                        L44:
  3209                        	.line	506
  3210                        ;						px = ((I
                    NT*)pctx->userData)[1];
  3211                        	.line	507
  3212 07:8A37: A0 83 00     	ldy	#$83
  3213 07:8A3A: B7 1D        	lda	[<L12+pctx_1],Y
  3214 07:8A3C: 85 01        	sta	<R0
  3215 07:8A3E: A0 85 00     	ldy	#$85
  3216 07:8A41: B7 1D        	lda	[<L12+pctx_1],Y
  3217 07:8A43: 85 03        	sta	<R0+2
  3218 07:8A45: A0 02 00     	ldy	#$2
  Thu Dec  3 2020 22:25                                                Page 64


  3219 07:8A48: B7 01        	lda	[<R0],Y
  3220 07:8A4A: 85 2C        	sta	<L12+px_1
  3221                        ;						py = ((I
                    NT*)pctx->userData)[2];
  3222                        	.line	508
  3223 07:8A4C: A0 83 00     	ldy	#$83
  3224 07:8A4F: B7 1D        	lda	[<L12+pctx_1],Y
  3225 07:8A51: 85 01        	sta	<R0
  3226 07:8A53: A0 85 00     	ldy	#$85
  3227 07:8A56: B7 1D        	lda	[<L12+pctx_1],Y
  3228 07:8A58: 85 03        	sta	<R0+2
  3229 07:8A5A: A0 04 00     	ldy	#$4
  3230 07:8A5D: B7 01        	lda	[<R0],Y
  3231 07:8A5F: 85 2E        	sta	<L12+py_1
  3232                        ;
  3233                        ;						if(px > 
                    -1)
  3234                        	.line	510
  3235                        ;						{
  3236 07:8A61: 38           	sec
  3237 07:8A62: A9 FF FF     	lda	#$ffff
  3238 07:8A65: E5 2C        	sbc	<L12+px_1
  3239 07:8A67: 70 03        	bvs	L45
  3240 07:8A69: 49 00 80     	eor	#$8000
  3241                        L45:
  3242 07:8A6C: 10 03        	bpl	L46
  3243 07:8A6E: 82 30 00     	brl	L10046
  3244                        L46:
  3245                        	.line	511
  3246                        ;							
                    //k_draw_rect_slow(px,py, px+100, py+100, 0);
  3247                        ;							
                    k_vdma_fill_rect_ex(px,py, 200, 200, FILLCOLOR_TRANSPARENT,B
                    ITMAP_FRONT);
  3248                        	.line	513
  3249 07:8A71: F4 00 00     	pea	#<$0
  3250 07:8A74: F4 00 00     	pea	#<$0
  3251 07:8A77: F4 C8 00     	pea	#<$c8
  3252 07:8A7A: F4 C8 00     	pea	#<$c8
  3253 07:8A7D: A0 00 00     	ldy	#$0
  3254 07:8A80: A5 2E        	lda	<L12+py_1
  3255 07:8A82: 10 01        	bpl	L47
  3256 07:8A84: 88           	dey
  3257                        L47:
  3258 07:8A85: 85 01        	sta	<R0
  3259 07:8A87: 84 03        	sty	<R0+2
  3260 07:8A89: D4 03        	pei	<R0+2
  3261 07:8A8B: D4 01        	pei	<R0
  3262 07:8A8D: A0 00 00     	ldy	#$0
  3263 07:8A90: A5 2C        	lda	<L12+px_1
  3264 07:8A92: 10 01        	bpl	L48
  3265 07:8A94: 88           	dey
  3266                        L48:
  3267 07:8A95: 85 05        	sta	<R1
  3268 07:8A97: 84 07        	sty	<R1+2
  3269 07:8A99: D4 07        	pei	<R1+2
  3270 07:8A9B: D4 05        	pei	<R1
  3271 07:8A9D: 22 xx xx xx  	jsl	~~k_vdma_fill_rect_ex
  Thu Dec  3 2020 22:25                                                Page 65


  3272                        ;						}
  3273                        	.line	514
  3274                        ;					}
  3275                        L10046:
  3276                        	.line	515
  3277                        ;
  3278                        ;
  3279                        ;					//k_debug_intege
                    r("DesktopWindowProc::DEBUG MENU DRAG:",((INT*)pctx->userDat
                    a)[DEBUG_MOUSE_ENABLE]);
  3280                        ;					//k_debug_pointe
                    r("DesktopWindowProc::DEBUG MENU CONTROL HMENU:",(HMENU)((PF
                    XCMDMESSAGE)pMsg)->parameter2);
  3281                        ;					//k_debug_string
                    s("DesktopWindowProc::DEBUG MENU CONTROL caption:",(LPSTR)((
                    PMENU)((PFXCMDMESSAGE)pMsg)->parameter2)->pCaption);
  3282                        ;					//k_debug_pointe
                    r("DesktopWindowProc::DEBUG MENU CONTROL subMenus:",((PMENU)
                    ((PFXCMDMESSAGE)pMsg)->parameter2)->subMenus);
  3283                        ;
  3284                        ;					k_user_SetMenuSt
                    ate((HMENU)((PFXCMDMESSAGE)pMsg)->parameter2,((PFXCMDMESSAGE
                    )pMsg)->cmdMId,((INT*)pctx->userData)[DEBUG_MOUSE_ENABLE]);
  3285                        L10045:
  3286                        	.line	523
  3287 07:8AA1: A0 83 00     	ldy	#$83
  3288 07:8AA4: B7 1D        	lda	[<L12+pctx_1],Y
  3289 07:8AA6: 85 01        	sta	<R0
  3290 07:8AA8: A0 85 00     	ldy	#$85
  3291 07:8AAB: B7 1D        	lda	[<L12+pctx_1],Y
  3292 07:8AAD: 85 03        	sta	<R0+2
  3293 07:8AAF: A7 01        	lda	[<R0]
  3294 07:8AB1: 48           	pha
  3295 07:8AB2: A0 18 00     	ldy	#$18
  3296 07:8AB5: B7 72        	lda	[<L11+pMsg_0],Y
  3297 07:8AB7: 48           	pha
  3298 07:8AB8: A0 20 00     	ldy	#$20
  3299 07:8ABB: B7 72        	lda	[<L11+pMsg_0],Y
  3300 07:8ABD: 48           	pha
  3301 07:8ABE: A0 1E 00     	ldy	#$1e
  3302 07:8AC1: B7 72        	lda	[<L11+pMsg_0],Y
  3303 07:8AC3: 48           	pha
  3304 07:8AC4: 22 xx xx xx  	jsl	~~k_user_SetMenuState
  3305                        ;
  3306                        ;
  3307                        ;					//k_send_command
                    _message((HWND)((PFXCMDMESSAGE)pMsg)->parameter2,FX_CONTROL_
                    COMMAND,CTL_MENU_CHECKED,((PFXCMDMESSAGE)pMsg)->cmdMId,((INT
                    *)pctx->userData)[0],0);
  3308                        ;
  3309                        ;
  3310                        ;					break;
  3311                        	.line	529
  3312 07:8AC8: 82 2D 01     	brl	L10024
  3313                        ;				case DESK_MENU_DBG_RUBBE
                    RBAND:
  3314                        	.line	530
  3315                        L10047:
  Thu Dec  3 2020 22:25                                                Page 66


  3316                        ;
  3317                        ;
  3318                        ;					((INT*)pctx->use
                    rData)[DEBUG_MOUSE_BOX_ENABLE] = !((INT*)pctx->userData)[DEB
                    UG_MOUSE_BOX_ENABLE];
  3319                        	.line	533
  3320 07:8ACB: A0 83 00     	ldy	#$83
  3321 07:8ACE: B7 1D        	lda	[<L12+pctx_1],Y
  3322 07:8AD0: 85 01        	sta	<R0
  3323 07:8AD2: A0 85 00     	ldy	#$85
  3324 07:8AD5: B7 1D        	lda	[<L12+pctx_1],Y
  3325 07:8AD7: 85 03        	sta	<R0+2
  3326 07:8AD9: 64 05        	stz	<R1
  3327 07:8ADB: A0 83 00     	ldy	#$83
  3328 07:8ADE: B7 1D        	lda	[<L12+pctx_1],Y
  3329 07:8AE0: 85 09        	sta	<R2
  3330 07:8AE2: A0 85 00     	ldy	#$85
  3331 07:8AE5: B7 1D        	lda	[<L12+pctx_1],Y
  3332 07:8AE7: 85 0B        	sta	<R2+2
  3333 07:8AE9: A0 0C 00     	ldy	#$c
  3334 07:8AEC: B7 09        	lda	[<R2],Y
  3335 07:8AEE: F0 03        	beq	L50
  3336 07:8AF0: 82 02 00     	brl	L49
  3337                        L50:
  3338 07:8AF3: E6 05        	inc	<R1
  3339                        L49:
  3340 07:8AF5: A5 05        	lda	<R1
  3341 07:8AF7: A0 0C 00     	ldy	#$c
  3342 07:8AFA: 97 01        	sta	[<R0],Y
  3343                        ;
  3344                        ;					if(!((INT*)pctx-
                    >userData)[DEBUG_MOUSE_BOX_ENABLE])
  3345                        	.line	535
  3346                        ;					{
  3347 07:8AFC: A0 83 00     	ldy	#$83
  3348 07:8AFF: B7 1D        	lda	[<L12+pctx_1],Y
  3349 07:8B01: 85 01        	sta	<R0
  3350 07:8B03: A0 85 00     	ldy	#$85
  3351 07:8B06: B7 1D        	lda	[<L12+pctx_1],Y
  3352 07:8B08: 85 03        	sta	<R0+2
  3353 07:8B0A: A0 0C 00     	ldy	#$c
  3354 07:8B0D: B7 01        	lda	[<R0],Y
  3355 07:8B0F: F0 03        	beq	L51
  3356 07:8B11: 82 42 00     	brl	L10048
  3357                        L51:
  3358                        	.line	536
  3359                        ;
  3360                        ;						((INT*)p
                    ctx->userData)[DEBUG_MOUSE_BOXING] = FALSE;
  3361                        	.line	538
  3362 07:8B14: A0 83 00     	ldy	#$83
  3363 07:8B17: B7 1D        	lda	[<L12+pctx_1],Y
  3364 07:8B19: 85 01        	sta	<R0
  3365 07:8B1B: A0 85 00     	ldy	#$85
  3366 07:8B1E: B7 1D        	lda	[<L12+pctx_1],Y
  3367 07:8B20: 85 03        	sta	<R0+2
  3368 07:8B22: A9 00 00     	lda	#$0
  3369 07:8B25: A0 06 00     	ldy	#$6
  Thu Dec  3 2020 22:25                                                Page 67


  3370 07:8B28: 97 01        	sta	[<R0],Y
  3371                        ;						((INT*)p
                    ctx->userData)[DEBUG_MOUSE_BOX_TOP] = -1;
  3372                        	.line	539
  3373 07:8B2A: A0 83 00     	ldy	#$83
  3374 07:8B2D: B7 1D        	lda	[<L12+pctx_1],Y
  3375 07:8B2F: 85 01        	sta	<R0
  3376 07:8B31: A0 85 00     	ldy	#$85
  3377 07:8B34: B7 1D        	lda	[<L12+pctx_1],Y
  3378 07:8B36: 85 03        	sta	<R0+2
  3379 07:8B38: A9 FF FF     	lda	#$ffff
  3380 07:8B3B: A0 08 00     	ldy	#$8
  3381 07:8B3E: 97 01        	sta	[<R0],Y
  3382                        ;						((INT*)p
                    ctx->userData)[DEBUG_MOUSE_BOX_LEFT] = -1;
  3383                        	.line	540
  3384 07:8B40: A0 83 00     	ldy	#$83
  3385 07:8B43: B7 1D        	lda	[<L12+pctx_1],Y
  3386 07:8B45: 85 01        	sta	<R0
  3387 07:8B47: A0 85 00     	ldy	#$85
  3388 07:8B4A: B7 1D        	lda	[<L12+pctx_1],Y
  3389 07:8B4C: 85 03        	sta	<R0+2
  3390 07:8B4E: A9 FF FF     	lda	#$ffff
  3391 07:8B51: A0 0A 00     	ldy	#$a
  3392 07:8B54: 97 01        	sta	[<R0],Y
  3393                        ;
  3394                        ;					}
  3395                        	.line	542
  3396                        ;
  3397                        ;
  3398                        ;					//k_debug_intege
                    r("DesktopWindowProc::DEBUG MENU RUBBERBAND:",((INT*)pctx->u
                    serData)[DEBUG_MOUSE_BOX_ENABLE]);
  3399                        ;					//k_debug_pointe
                    r("DesktopWindowProc::DEBUG MENU CONTROL HMENU:",(HMENU)((PF
                    XCMDMESSAGE)pMsg)->parameter2);
  3400                        ;					//k_debug_string
                    s("DesktopWindowProc::DEBUG MENU CONTROL caption:",(LPSTR)((
                    PMENU)((PFXCMDMESSAGE)pMsg)->parameter2)->pCaption);
  3401                        ;					//k_debug_pointe
                    r("DesktopWindowProc::DEBUG MENU CONTROL subMenus:",((PMENU)
                    ((PFXCMDMESSAGE)pMsg)->parameter2)->subMenus);
  3402                        ;
  3403                        ;
  3404                        ;					k_user_SetMenuSt
                    ate((HMENU)((PFXCMDMESSAGE)pMsg)->parameter2,((PFXCMDMESSAGE
                    )pMsg)->cmdMId,((INT*)pctx->userData)[DEBUG_MOUSE_BOX_ENABLE
                    ]);
  3405                        L10048:
  3406                        	.line	551
  3407 07:8B56: A0 83 00     	ldy	#$83
  3408 07:8B59: B7 1D        	lda	[<L12+pctx_1],Y
  3409 07:8B5B: 85 01        	sta	<R0
  3410 07:8B5D: A0 85 00     	ldy	#$85
  3411 07:8B60: B7 1D        	lda	[<L12+pctx_1],Y
  3412 07:8B62: 85 03        	sta	<R0+2
  3413 07:8B64: A0 0C 00     	ldy	#$c
  3414 07:8B67: B7 01        	lda	[<R0],Y
  Thu Dec  3 2020 22:25                                                Page 68


  3415 07:8B69: 48           	pha
  3416 07:8B6A: A0 18 00     	ldy	#$18
  3417 07:8B6D: B7 72        	lda	[<L11+pMsg_0],Y
  3418 07:8B6F: 48           	pha
  3419 07:8B70: A0 20 00     	ldy	#$20
  3420 07:8B73: B7 72        	lda	[<L11+pMsg_0],Y
  3421 07:8B75: 48           	pha
  3422 07:8B76: A0 1E 00     	ldy	#$1e
  3423 07:8B79: B7 72        	lda	[<L11+pMsg_0],Y
  3424 07:8B7B: 48           	pha
  3425 07:8B7C: 22 xx xx xx  	jsl	~~k_user_SetMenuState
  3426                        ;					//k_send_command
                    _message((HWND)((PFXCMDMESSAGE)pMsg)->parameter2,FX_MENU_COM
                    MAND,CTL_MENU_CHECKED,((PFXCMDMESSAGE)pMsg)->cmdMId,((INT*)p
                    ctx->userData)[0],0);
  3427                        ;
  3428                        ;					break;
  3429                        	.line	554
  3430 07:8B80: 82 75 00     	brl	L10024
  3431                        ;
  3432                        ;				case DESK_MENU_DBG_HOURG
                    LASS:
  3433                        	.line	556
  3434                        L10049:
  3435                        ;					k_user_setMouseP
                    ointer("HOURGLASS");
  3436                        	.line	557
  3437 07:8B83: F4 xx xx     	pea	#^L10+1296
  3438 07:8B86: F4 xx xx     	pea	#<L10+1296
  3439 07:8B89: 22 xx xx xx  	jsl	~~k_user_setMousePointer
  3440                        ;					break;
  3441                        	.line	558
  3442 07:8B8D: 82 68 00     	brl	L10024
  3443                        ;				case DESK_MENU_DBG_HELP:
  3444                        	.line	559
  3445                        L10050:
  3446                        ;					k_user_setMouseP
                    ointer("HELP");
  3447                        	.line	560
  3448 07:8B90: F4 xx xx     	pea	#^L10+1306
  3449 07:8B93: F4 xx xx     	pea	#<L10+1306
  3450 07:8B96: 22 xx xx xx  	jsl	~~k_user_setMousePointer
  3451                        ;					break;
  3452                        	.line	561
  3453 07:8B9A: 82 5B 00     	brl	L10024
  3454                        ;				case DESK_MENU_DBG_ARROW
                    :
  3455                        	.line	562
  3456                        L10051:
  3457                        ;					k_user_setMouseP
                    ointer("ARROW");
  3458                        	.line	563
  3459 07:8B9D: F4 xx xx     	pea	#^L10+1311
  3460 07:8BA0: F4 xx xx     	pea	#<L10+1311
  3461 07:8BA3: 22 xx xx xx  	jsl	~~k_user_setMousePointer
  3462                        ;					break;
  3463                        	.line	564
  3464 07:8BA7: 82 4E 00     	brl	L10024
  Thu Dec  3 2020 22:25                                                Page 69


  3465                        ;				case DESK_MENU_DBG_RESIZ
                    E:
  3466                        	.line	565
  3467                        L10052:
  3468                        ;					k_user_setMouseP
                    ointer("RESIZE");
  3469                        	.line	566
  3470 07:8BAA: F4 xx xx     	pea	#^L10+1317
  3471 07:8BAD: F4 xx xx     	pea	#<L10+1317
  3472 07:8BB0: 22 xx xx xx  	jsl	~~k_user_setMousePointer
  3473                        ;					break;
  3474                        	.line	567
  3475 07:8BB4: 82 41 00     	brl	L10024
  3476                        ;				default:
  3477                        	.line	568
  3478                        L10053:
  3479                        ;					break;
  3480                        	.line	569
  3481 07:8BB7: 82 3E 00     	brl	L10024
  3482                        ;				}
  3483                        	.line	570
  3484                        L10023:
  3485                        	xref	~~~fsw
  3486 07:8BBA: 22 xx xx xx  	jsl	~~~fsw
  3487 07:8BBE: 22 00        	dw	34
  3488 07:8BC0: 1A 00        	dw	26
  3489 07:8BC2: B6 8B        	dw	L10053-1
  3490 07:8BC4: 62 88        	dw	L10036-1
  3491 07:8BC6: B6 8B        	dw	L10053-1
  3492 07:8BC8: B6 8B        	dw	L10053-1
  3493 07:8BCA: B6 8B        	dw	L10053-1
  3494 07:8BCC: B6 8B        	dw	L10053-1
  3495 07:8BCE: B6 8B        	dw	L10053-1
  3496 07:8BD0: B6 8B        	dw	L10053-1
  3497 07:8BD2: DD 87        	dw	L10033-1
  3498 07:8BD4: 3D 86        	dw	L10025-1
  3499 07:8BD6: B6 8B        	dw	L10053-1
  3500 07:8BD8: B6 8B        	dw	L10053-1
  3501 07:8BDA: B6 8B        	dw	L10053-1
  3502 07:8BDC: B6 8B        	dw	L10053-1
  3503 07:8BDE: B6 8B        	dw	L10053-1
  3504 07:8BE0: B6 8B        	dw	L10053-1
  3505 07:8BE2: B6 8B        	dw	L10053-1
  3506 07:8BE4: 58 87        	dw	L10030-1
  3507 07:8BE6: 67 89        	dw	L10039-1
  3508 07:8BE8: 74 89        	dw	L10040-1
  3509 07:8BEA: E9 89        	dw	L10043-1
  3510 07:8BEC: F6 89        	dw	L10044-1
  3511 07:8BEE: CA 8A        	dw	L10047-1
  3512 07:8BF0: 82 8B        	dw	L10049-1
  3513 07:8BF2: 8F 8B        	dw	L10050-1
  3514 07:8BF4: 9C 8B        	dw	L10051-1
  3515 07:8BF6: A9 8B        	dw	L10052-1
  3516                        L10024:
  3517                        ;			}
  3518                        	.line	571
  3519                        ;
  3520                        ;			break;
  Thu Dec  3 2020 22:25                                                Page 70


  3521                        L10022:
  3522                        	.line	573
  3523 07:8BF8: 82 57 0A     	brl	L10012
  3524                        ;		case FX_KEY_UP:
  3525                        	.line	574
  3526                        L10054:
  3527                        ;			//k_debug_integer("DesktopWindow
                    Proc::FX_KEY_UP0:",pMsg->data[0]);
  3528                        ;			//k_debug_integer("DesktopWindow
                    Proc::FX_KEY_UP1:",pMsg->data[1]);
  3529                        ;			//k_debug_integer("DesktopWindow
                    Proc::FX_KEY_UP2:",pMsg->data[2]);
  3530                        ;			//k_debug_integer("DesktopWindow
                    Proc::isShifted:",pctx->isShifted);
  3531                        ;			k_debug_string("DesktopWindowPro
                    c::FX_KEY_UP\r\n");
  3532                        	.line	579
  3533 07:8BFB: F4 xx xx     	pea	#^L10+1324
  3534 07:8BFE: F4 xx xx     	pea	#<L10+1324
  3535 07:8C01: 22 xx xx xx  	jsl	~~k_debug_string
  3536                        ;			break;
  3537                        	.line	580
  3538 07:8C05: 82 4A 0A     	brl	L10012
  3539                        ;		case FX_KEY_DOWN:
  3540                        	.line	581
  3541                        L10055:
  3542                        ;			//if(p!=NULL)
  3543                        ;			//	k_debug_integer("Desktop
                    WindowProc::ProcessId:",p->procId);
  3544                        ;			//k_debug_integer("DesktopWindow
                    Proc::FX_KEY_DOWN0:",pMsg->data[0]);
  3545                        ;			//k_debug_integer("DesktopWindow
                    Proc::FX_KEY_DOWN1:",pMsg->data[1]);
  3546                        ;			//k_debug_integer("DesktopWindow
                    Proc::FX_KEY_DOWN2:",pMsg->data[2]);
  3547                        ;			//k_debug_integer("DesktopWindow
                    Proc::isShifted:",pctx->isShifted);
  3548                        ;
  3549                        ;			//k_debug_integer("DesktopWindow
                    Proc::curX:",p->consoleCtl->curX);
  3550                        ;			//k_debug_integer("DesktopWindow
                    Proc::curY:",p->consoleCtl->curY);
  3551                        ;
  3552                        ;			k_debug_string("DesktopWindowPro
                    c::FX_KEY_DOWN\r\n");
  3553                        	.line	592
  3554 07:8C08: F4 xx xx     	pea	#^L10+1355
  3555 07:8C0B: F4 xx xx     	pea	#<L10+1355
  3556 07:8C0E: 22 xx xx xx  	jsl	~~k_debug_string
  3557                        ;
  3558                        ;			break;
  3559                        	.line	594
  3560 07:8C12: 82 3D 0A     	brl	L10012
  3561                        ;		case FX_DISK_INSERT:
  3562                        	.line	595
  3563                        L10056:
  3564                        ;
  3565                        ;			k_debug_string("DesktopWindowPro
  Thu Dec  3 2020 22:25                                                Page 71


                    c::DISK-INSERT:");
  3566                        	.line	597
  3567 07:8C15: F4 xx xx     	pea	#^L10+1388
  3568 07:8C18: F4 xx xx     	pea	#<L10+1388
  3569 07:8C1B: 22 xx xx xx  	jsl	~~k_debug_string
  3570                        ;			if(((PDISKINFO)pMsg->pheap)->stg
                    Name)
  3571                        	.line	598
  3572                        ;			{
  3573 07:8C1F: A0 0E 00     	ldy	#$e
  3574 07:8C22: B7 72        	lda	[<L11+pMsg_0],Y
  3575 07:8C24: A0 10 00     	ldy	#$10
  3576 07:8C27: 17 72        	ora	[<L11+pMsg_0],Y
  3577 07:8C29: D0 03        	bne	L52
  3578 07:8C2B: 82 13 00     	brl	L10057
  3579                        L52:
  3580                        	.line	599
  3581                        ;				k_debug_string(((PDISKIN
                    FO)pMsg->pheap)->stgName);
  3582                        	.line	600
  3583 07:8C2E: A0 10 00     	ldy	#$10
  3584 07:8C31: B7 72        	lda	[<L11+pMsg_0],Y
  3585 07:8C33: 48           	pha
  3586 07:8C34: A0 0E 00     	ldy	#$e
  3587 07:8C37: B7 72        	lda	[<L11+pMsg_0],Y
  3588 07:8C39: 48           	pha
  3589 07:8C3A: 22 xx xx xx  	jsl	~~k_debug_string
  3590                        ;			}
  3591                        	.line	601
  3592                        ;			else
  3593 07:8C3E: 82 0A 00     	brl	L10058
  3594                        L10057:
  3595                        ;			{
  3596                        	.line	603
  3597                        ;				k_debug_string("NULL");
  3598                        	.line	604
  3599 07:8C41: F4 xx xx     	pea	#^L10+1420
  3600 07:8C44: F4 xx xx     	pea	#<L10+1420
  3601 07:8C47: 22 xx xx xx  	jsl	~~k_debug_string
  3602                        ;			}
  3603                        	.line	605
  3604                        L10058:
  3605                        ;			k_debug_string("\r\n");
  3606                        	.line	606
  3607 07:8C4B: F4 xx xx     	pea	#^L10+1425
  3608 07:8C4E: F4 xx xx     	pea	#<L10+1425
  3609 07:8C51: 22 xx xx xx  	jsl	~~k_debug_string
  3610                        ;
  3611                        ;			((PDISKINFO)pMsg->pheap)->stgNam
                    e[31] = 0;
  3612                        	.line	608
  3613 07:8C55: A0 0E 00     	ldy	#$e
  3614 07:8C58: B7 72        	lda	[<L11+pMsg_0],Y
  3615 07:8C5A: 85 01        	sta	<R0
  3616 07:8C5C: A0 10 00     	ldy	#$10
  3617 07:8C5F: B7 72        	lda	[<L11+pMsg_0],Y
  3618 07:8C61: 85 03        	sta	<R0+2
  3619 07:8C63: E2 20        	sep	#$20
  Thu Dec  3 2020 22:25                                                Page 72


  3620                        	longa	off
  3621 07:8C65: A9 00        	lda	#$0
  3622 07:8C67: A0 1F 00     	ldy	#$1f
  3623 07:8C6A: 97 01        	sta	[<R0],Y
  3624 07:8C6C: C2 20        	rep	#$20
  3625                        	longa	on
  3626                        ;
  3627                        ;			if(p->desktopCtl->currentDiskNam
                    e && strcmp( k_to_uppercase(  ((PDISKINFO)pMsg->pheap)->stgN
                    ame),p->desktopCtl->currentDiskName) == 0)
  3628                        	.line	610
  3629                        ;			{
  3630 07:8C6E: A0 58 00     	ldy	#$58
  3631 07:8C71: B7 19        	lda	[<L12+p_1],Y
  3632 07:8C73: 85 01        	sta	<R0
  3633 07:8C75: A0 5A 00     	ldy	#$5a
  3634 07:8C78: B7 19        	lda	[<L12+p_1],Y
  3635 07:8C7A: 85 03        	sta	<R0+2
  3636 07:8C7C: A0 11 00     	ldy	#$11
  3637 07:8C7F: B7 01        	lda	[<R0],Y
  3638 07:8C81: A0 13 00     	ldy	#$13
  3639 07:8C84: 17 01        	ora	[<R0],Y
  3640 07:8C86: D0 03        	bne	L53
  3641 07:8C88: 82 47 00     	brl	L10059
  3642                        L53:
  3643 07:8C8B: A0 58 00     	ldy	#$58
  3644 07:8C8E: B7 19        	lda	[<L12+p_1],Y
  3645 07:8C90: 85 01        	sta	<R0
  3646 07:8C92: A0 5A 00     	ldy	#$5a
  3647 07:8C95: B7 19        	lda	[<L12+p_1],Y
  3648 07:8C97: 85 03        	sta	<R0+2
  3649 07:8C99: A0 13 00     	ldy	#$13
  3650 07:8C9C: B7 01        	lda	[<R0],Y
  3651 07:8C9E: 48           	pha
  3652 07:8C9F: A0 11 00     	ldy	#$11
  3653 07:8CA2: B7 01        	lda	[<R0],Y
  3654 07:8CA4: 48           	pha
  3655 07:8CA5: A0 10 00     	ldy	#$10
  3656 07:8CA8: B7 72        	lda	[<L11+pMsg_0],Y
  3657 07:8CAA: 48           	pha
  3658 07:8CAB: A0 0E 00     	ldy	#$e
  3659 07:8CAE: B7 72        	lda	[<L11+pMsg_0],Y
  3660 07:8CB0: 48           	pha
  3661 07:8CB1: 22 xx xx xx  	jsl	~~k_to_uppercase
  3662 07:8CB5: 85 01        	sta	<R0
  3663 07:8CB7: 86 03        	stx	<R0+2
  3664 07:8CB9: DA           	phx
  3665 07:8CBA: 48           	pha
  3666 07:8CBB: 22 xx xx xx  	jsl	~~strcmp
  3667 07:8CBF: AA           	tax
  3668 07:8CC0: F0 03        	beq	L54
  3669 07:8CC2: 82 0D 00     	brl	L10059
  3670                        L54:
  3671                        	.line	611
  3672                        ;				k_debug_string("DesktopW
                    indowProc::DISK-INSERT:NO-CHANGE\r\n");
  3673                        	.line	612
  3674 07:8CC5: F4 xx xx     	pea	#^L10+1428
  Thu Dec  3 2020 22:25                                                Page 73


  3675 07:8CC8: F4 xx xx     	pea	#<L10+1428
  3676 07:8CCB: 22 xx xx xx  	jsl	~~k_debug_string
  3677                        ;			}
  3678                        	.line	613
  3679                        ;			else
  3680 07:8CCF: 82 5A 02     	brl	L10060
  3681                        L10059:
  3682                        ;			{
  3683                        	.line	615
  3684                        ;				if(p->desktopCtl->curren
                    tDiskName)
  3685                        	.line	616
  3686                        ;				{
  3687 07:8CD2: A0 58 00     	ldy	#$58
  3688 07:8CD5: B7 19        	lda	[<L12+p_1],Y
  3689 07:8CD7: 85 01        	sta	<R0
  3690 07:8CD9: A0 5A 00     	ldy	#$5a
  3691 07:8CDC: B7 19        	lda	[<L12+p_1],Y
  3692 07:8CDE: 85 03        	sta	<R0+2
  3693 07:8CE0: A0 11 00     	ldy	#$11
  3694 07:8CE3: B7 01        	lda	[<R0],Y
  3695 07:8CE5: A0 13 00     	ldy	#$13
  3696 07:8CE8: 17 01        	ora	[<R0],Y
  3697 07:8CEA: D0 03        	bne	L55
  3698 07:8CEC: 82 B7 00     	brl	L10061
  3699                        L55:
  3700                        	.line	617
  3701                        ;					temp1 = strlen(p
                    ->desktopCtl->currentDiskName);
  3702                        	.line	618
  3703 07:8CEF: A0 58 00     	ldy	#$58
  3704 07:8CF2: B7 19        	lda	[<L12+p_1],Y
  3705 07:8CF4: 85 01        	sta	<R0
  3706 07:8CF6: A0 5A 00     	ldy	#$5a
  3707 07:8CF9: B7 19        	lda	[<L12+p_1],Y
  3708 07:8CFB: 85 03        	sta	<R0+2
  3709 07:8CFD: A0 13 00     	ldy	#$13
  3710 07:8D00: B7 01        	lda	[<R0],Y
  3711 07:8D02: 48           	pha
  3712 07:8D03: A0 11 00     	ldy	#$11
  3713 07:8D06: B7 01        	lda	[<R0],Y
  3714 07:8D08: 48           	pha
  3715 07:8D09: 22 xx xx xx  	jsl	~~strlen
  3716 07:8D0D: 85 24        	sta	<L12+temp1_1
  3717                        ;					temp2 = (temp1*4
                    );
  3718                        	.line	619
  3719 07:8D0F: A5 24        	lda	<L12+temp1_1
  3720 07:8D11: 0A           	asl	A
  3721 07:8D12: 0A           	asl	A
  3722 07:8D13: 85 26        	sta	<L12+temp2_1
  3723                        ;					k_put_winicon_po
                    int(ICON_DISK,640 - (40 + temp2/2),20,p->desktopCtl->backgro
                    undColor,PAINTMODE_BACKGROUND);
  3724                        	.line	620
  3725 07:8D15: F4 F0 00     	pea	#<$f0
  3726 07:8D18: A0 58 00     	ldy	#$58
  3727 07:8D1B: B7 19        	lda	[<L12+p_1],Y
  Thu Dec  3 2020 22:25                                                Page 74


  3728 07:8D1D: 85 01        	sta	<R0
  3729 07:8D1F: A0 5A 00     	ldy	#$5a
  3730 07:8D22: B7 19        	lda	[<L12+p_1],Y
  3731 07:8D24: 85 03        	sta	<R0+2
  3732 07:8D26: A0 05 00     	ldy	#$5
  3733 07:8D29: B7 01        	lda	[<R0],Y
  3734 07:8D2B: 48           	pha
  3735 07:8D2C: F4 14 00     	pea	#<$14
  3736 07:8D2F: A5 26        	lda	<L12+temp2_1
  3737 07:8D31: A2 02 00     	ldx	#<$2
  3738                        	xref	~~~div
  3739 07:8D34: 22 xx xx xx  	jsl	~~~div
  3740 07:8D38: 85 01        	sta	<R0
  3741 07:8D3A: 18           	clc
  3742 07:8D3B: A9 28 00     	lda	#$28
  3743 07:8D3E: 65 01        	adc	<R0
  3744 07:8D40: 85 05        	sta	<R1
  3745 07:8D42: 38           	sec
  3746 07:8D43: A9 80 02     	lda	#$280
  3747 07:8D46: E5 05        	sbc	<R1
  3748 07:8D48: 48           	pha
  3749 07:8D49: F4 03 00     	pea	#<$3
  3750 07:8D4C: 22 xx xx xx  	jsl	~~k_put_winicon_point
  3751                        ;					k_draw_text_poin
                    t(p->desktopCtl->currentDiskName,640 - (35 + temp2/2) - (tem
                    p2),40,p->desktopCtl->backgroundColor);
  3752                        	.line	621
  3753 07:8D50: A0 58 00     	ldy	#$58
  3754 07:8D53: B7 19        	lda	[<L12+p_1],Y
  3755 07:8D55: 85 01        	sta	<R0
  3756 07:8D57: A0 5A 00     	ldy	#$5a
  3757 07:8D5A: B7 19        	lda	[<L12+p_1],Y
  3758 07:8D5C: 85 03        	sta	<R0+2
  3759 07:8D5E: A0 05 00     	ldy	#$5
  3760 07:8D61: B7 01        	lda	[<R0],Y
  3761 07:8D63: 48           	pha
  3762 07:8D64: F4 28 00     	pea	#<$28
  3763 07:8D67: A5 26        	lda	<L12+temp2_1
  3764 07:8D69: A2 02 00     	ldx	#<$2
  3765                        	xref	~~~div
  3766 07:8D6C: 22 xx xx xx  	jsl	~~~div
  3767 07:8D70: 85 05        	sta	<R1
  3768 07:8D72: 18           	clc
  3769 07:8D73: A9 23 00     	lda	#$23
  3770 07:8D76: 65 05        	adc	<R1
  3771 07:8D78: 85 09        	sta	<R2
  3772 07:8D7A: 38           	sec
  3773 07:8D7B: A9 80 02     	lda	#$280
  3774 07:8D7E: E5 09        	sbc	<R2
  3775 07:8D80: 85 05        	sta	<R1
  3776 07:8D82: 38           	sec
  3777 07:8D83: A5 05        	lda	<R1
  3778 07:8D85: E5 26        	sbc	<L12+temp2_1
  3779 07:8D87: 48           	pha
  3780 07:8D88: A0 58 00     	ldy	#$58
  3781 07:8D8B: B7 19        	lda	[<L12+p_1],Y
  3782 07:8D8D: 85 05        	sta	<R1
  3783 07:8D8F: A0 5A 00     	ldy	#$5a
  Thu Dec  3 2020 22:25                                                Page 75


  3784 07:8D92: B7 19        	lda	[<L12+p_1],Y
  3785 07:8D94: 85 07        	sta	<R1+2
  3786 07:8D96: A0 13 00     	ldy	#$13
  3787 07:8D99: B7 05        	lda	[<R1],Y
  3788 07:8D9B: 48           	pha
  3789 07:8D9C: A0 11 00     	ldy	#$11
  3790 07:8D9F: B7 05        	lda	[<R1],Y
  3791 07:8DA1: 48           	pha
  3792 07:8DA2: 22 xx xx xx  	jsl	~~k_draw_text_point
  3793                        ;				}
  3794                        	.line	622
  3795                        ;
  3796                        ;				temp1 = strlen(((PDISKIN
                    FO)pMsg->pheap)->stgName);
  3797                        L10061:
  3798                        	.line	624
  3799 07:8DA6: A0 10 00     	ldy	#$10
  3800 07:8DA9: B7 72        	lda	[<L11+pMsg_0],Y
  3801 07:8DAB: 48           	pha
  3802 07:8DAC: A0 0E 00     	ldy	#$e
  3803 07:8DAF: B7 72        	lda	[<L11+pMsg_0],Y
  3804 07:8DB1: 48           	pha
  3805 07:8DB2: 22 xx xx xx  	jsl	~~strlen
  3806 07:8DB6: 85 24        	sta	<L12+temp1_1
  3807                        ;				temp2 = (temp1*4);
  3808                        	.line	625
  3809 07:8DB8: A5 24        	lda	<L12+temp1_1
  3810 07:8DBA: 0A           	asl	A
  3811 07:8DBB: 0A           	asl	A
  3812 07:8DBC: 85 26        	sta	<L12+temp2_1
  3813                        ;
  3814                        ;				k_put_winicon_point(ICON
                    _DISK,640 - (40 + temp2/2),20,0,PAINTMODE_DEFAULT);
  3815                        	.line	627
  3816 07:8DBE: F4 00 00     	pea	#<$0
  3817 07:8DC1: F4 00 00     	pea	#<$0
  3818 07:8DC4: F4 14 00     	pea	#<$14
  3819 07:8DC7: A5 26        	lda	<L12+temp2_1
  3820 07:8DC9: A2 02 00     	ldx	#<$2
  3821                        	xref	~~~div
  3822 07:8DCC: 22 xx xx xx  	jsl	~~~div
  3823 07:8DD0: 85 01        	sta	<R0
  3824 07:8DD2: 18           	clc
  3825 07:8DD3: A9 28 00     	lda	#$28
  3826 07:8DD6: 65 01        	adc	<R0
  3827 07:8DD8: 85 05        	sta	<R1
  3828 07:8DDA: 38           	sec
  3829 07:8DDB: A9 80 02     	lda	#$280
  3830 07:8DDE: E5 05        	sbc	<R1
  3831 07:8DE0: 48           	pha
  3832 07:8DE1: F4 03 00     	pea	#<$3
  3833 07:8DE4: 22 xx xx xx  	jsl	~~k_put_winicon_point
  3834                        ;				k_draw_text_point(k_to_u
                    ppercase(((PDISKINFO)pMsg->pheap)->stgName),640 - (35 + temp
                    2/2) - (temp2),40,0);
  3835                        	.line	628
  3836 07:8DE8: F4 00 00     	pea	#<$0
  3837 07:8DEB: F4 28 00     	pea	#<$28
  Thu Dec  3 2020 22:25                                                Page 76


  3838 07:8DEE: A5 26        	lda	<L12+temp2_1
  3839 07:8DF0: A2 02 00     	ldx	#<$2
  3840                        	xref	~~~div
  3841 07:8DF3: 22 xx xx xx  	jsl	~~~div
  3842 07:8DF7: 85 01        	sta	<R0
  3843 07:8DF9: 18           	clc
  3844 07:8DFA: A9 23 00     	lda	#$23
  3845 07:8DFD: 65 01        	adc	<R0
  3846 07:8DFF: 85 05        	sta	<R1
  3847 07:8E01: 38           	sec
  3848 07:8E02: A9 80 02     	lda	#$280
  3849 07:8E05: E5 05        	sbc	<R1
  3850 07:8E07: 85 01        	sta	<R0
  3851 07:8E09: 38           	sec
  3852 07:8E0A: A5 01        	lda	<R0
  3853 07:8E0C: E5 26        	sbc	<L12+temp2_1
  3854 07:8E0E: 48           	pha
  3855 07:8E0F: A0 10 00     	ldy	#$10
  3856 07:8E12: B7 72        	lda	[<L11+pMsg_0],Y
  3857 07:8E14: 48           	pha
  3858 07:8E15: A0 0E 00     	ldy	#$e
  3859 07:8E18: B7 72        	lda	[<L11+pMsg_0],Y
  3860 07:8E1A: 48           	pha
  3861 07:8E1B: 22 xx xx xx  	jsl	~~k_to_uppercase
  3862 07:8E1F: 85 01        	sta	<R0
  3863 07:8E21: 86 03        	stx	<R0+2
  3864 07:8E23: DA           	phx
  3865 07:8E24: 48           	pha
  3866 07:8E25: 22 xx xx xx  	jsl	~~k_draw_text_point
  3867                        ;
  3868                        ;				if(p->desktopCtl->curren
                    tDiskName!=NULL)
  3869                        	.line	630
  3870                        ;					k_mem_deallocate
                    _heap(p->desktopCtl->currentDiskName);
  3871 07:8E29: A0 58 00     	ldy	#$58
  3872 07:8E2C: B7 19        	lda	[<L12+p_1],Y
  3873 07:8E2E: 85 01        	sta	<R0
  3874 07:8E30: A0 5A 00     	ldy	#$5a
  3875 07:8E33: B7 19        	lda	[<L12+p_1],Y
  3876 07:8E35: 85 03        	sta	<R0+2
  3877 07:8E37: A0 11 00     	ldy	#$11
  3878 07:8E3A: B7 01        	lda	[<R0],Y
  3879 07:8E3C: A0 13 00     	ldy	#$13
  3880 07:8E3F: 17 01        	ora	[<R0],Y
  3881 07:8E41: D0 03        	bne	L56
  3882 07:8E43: 82 1E 00     	brl	L10062
  3883                        L56:
  3884                        	.line	631
  3885 07:8E46: A0 58 00     	ldy	#$58
  3886 07:8E49: B7 19        	lda	[<L12+p_1],Y
  3887 07:8E4B: 85 01        	sta	<R0
  3888 07:8E4D: A0 5A 00     	ldy	#$5a
  3889 07:8E50: B7 19        	lda	[<L12+p_1],Y
  3890 07:8E52: 85 03        	sta	<R0+2
  3891 07:8E54: A0 13 00     	ldy	#$13
  3892 07:8E57: B7 01        	lda	[<R0],Y
  3893 07:8E59: 48           	pha
  Thu Dec  3 2020 22:25                                                Page 77


  3894 07:8E5A: A0 11 00     	ldy	#$11
  3895 07:8E5D: B7 01        	lda	[<R0],Y
  3896 07:8E5F: 48           	pha
  3897 07:8E60: 22 xx xx xx  	jsl	~~k_mem_deallocate_heap
  3898                        ;
  3899                        ;				p->desktopCtl->currentDi
                    skName = k_string_copy_string(((PDISKINFO)pMsg->pheap)->stgN
                    ame);
  3900                        L10062:
  3901                        	.line	633
  3902 07:8E64: A0 58 00     	ldy	#$58
  3903 07:8E67: B7 19        	lda	[<L12+p_1],Y
  3904 07:8E69: 85 01        	sta	<R0
  3905 07:8E6B: A0 5A 00     	ldy	#$5a
  3906 07:8E6E: B7 19        	lda	[<L12+p_1],Y
  3907 07:8E70: 85 03        	sta	<R0+2
  3908 07:8E72: A0 10 00     	ldy	#$10
  3909 07:8E75: B7 72        	lda	[<L11+pMsg_0],Y
  3910 07:8E77: 48           	pha
  3911 07:8E78: A0 0E 00     	ldy	#$e
  3912 07:8E7B: B7 72        	lda	[<L11+pMsg_0],Y
  3913 07:8E7D: 48           	pha
  3914 07:8E7E: 22 xx xx xx  	jsl	~~k_string_copy_string
  3915 07:8E82: 85 05        	sta	<R1
  3916 07:8E84: 86 07        	stx	<R1+2
  3917 07:8E86: A5 05        	lda	<R1
  3918 07:8E88: A0 11 00     	ldy	#$11
  3919 07:8E8B: 97 01        	sta	[<R0],Y
  3920 07:8E8D: A5 07        	lda	<R1+2
  3921 07:8E8F: A0 13 00     	ldy	#$13
  3922 07:8E92: 97 01        	sta	[<R0],Y
  3923                        ;
  3924                        ;				pcd = k_mem_allocate_hea
                    p(sizeof(CLICKDETECTED));
  3925                        	.line	635
  3926 07:8E94: F4 08 00     	pea	#<$8
  3927 07:8E97: 22 xx xx xx  	jsl	~~k_mem_allocate_heap
  3928 07:8E9B: 85 33        	sta	<L12+pcd_1
  3929 07:8E9D: 86 35        	stx	<L12+pcd_1+2
  3930                        ;				if(pcd)
  3931                        	.line	636
  3932                        ;				{
  3933 07:8E9F: A5 33        	lda	<L12+pcd_1
  3934 07:8EA1: 05 35        	ora	<L12+pcd_1+2
  3935 07:8EA3: D0 03        	bne	L57
  3936 07:8EA5: 82 60 00     	brl	L10063
  3937                        L57:
  3938                        	.line	637
  3939                        ;					pcd->window  = k
                    _create_ui_window_class(640 - (40 + temp2/2),20,ICONH,ICONW,
                    "disk","icon",NULL);
  3940                        	.line	638
  3941 07:8EA8: F4 00 00     	pea	#^$0
  3942 07:8EAB: F4 00 00     	pea	#<$0
  3943 07:8EAE: F4 xx xx     	pea	#^L10+1476
  3944 07:8EB1: F4 xx xx     	pea	#<L10+1476
  3945 07:8EB4: F4 xx xx     	pea	#^L10+1471
  3946 07:8EB7: F4 xx xx     	pea	#<L10+1471
  Thu Dec  3 2020 22:25                                                Page 78


  3947 07:8EBA: F4 10 00     	pea	#<$10
  3948 07:8EBD: F4 10 00     	pea	#<$10
  3949 07:8EC0: F4 14 00     	pea	#<$14
  3950 07:8EC3: A5 26        	lda	<L12+temp2_1
  3951 07:8EC5: A2 02 00     	ldx	#<$2
  3952                        	xref	~~~div
  3953 07:8EC8: 22 xx xx xx  	jsl	~~~div
  3954 07:8ECC: 85 01        	sta	<R0
  3955 07:8ECE: 18           	clc
  3956 07:8ECF: A9 28 00     	lda	#$28
  3957 07:8ED2: 65 01        	adc	<R0
  3958 07:8ED4: 85 05        	sta	<R1
  3959 07:8ED6: 38           	sec
  3960 07:8ED7: A9 80 02     	lda	#$280
  3961 07:8EDA: E5 05        	sbc	<R1
  3962 07:8EDC: 48           	pha
  3963 07:8EDD: 22 xx xx xx  	jsl	~~k_create_ui_window_class
  3964 07:8EE1: 85 01        	sta	<R0
  3965 07:8EE3: 86 03        	stx	<R0+2
  3966 07:8EE5: A5 01        	lda	<R0
  3967 07:8EE7: 87 33        	sta	[<L12+pcd_1]
  3968 07:8EE9: A5 03        	lda	<R0+2
  3969 07:8EEB: A0 02 00     	ldy	#$2
  3970 07:8EEE: 97 33        	sta	[<L12+pcd_1],Y
  3971                        ;					pcd->handler = O
                    bjectClicked;
  3972                        	.line	639
  3973 07:8EF0: A9 xx xx     	lda	#<~~ObjectClicked
  3974 07:8EF3: A0 04 00     	ldy	#$4
  3975 07:8EF6: 97 33        	sta	[<L12+pcd_1],Y
  3976 07:8EF8: A9 xx xx     	lda	#^~~ObjectClicked
  3977 07:8EFB: A0 06 00     	ldy	#$6
  3978 07:8EFE: 97 33        	sta	[<L12+pcd_1],Y
  3979                        ;					k_add_window_hit
                    _node(pcd);
  3980                        	.line	640
  3981 07:8F00: D4 35        	pei	<L12+pcd_1+2
  3982 07:8F02: D4 33        	pei	<L12+pcd_1
  3983 07:8F04: 22 xx xx xx  	jsl	~~k_add_window_hit_node
  3984                        ;				}
  3985                        	.line	641
  3986                        ;
  3987                        ;				k_debug_message("Desktop
                    WindowProc::DISK-INSERT:DISK:",p->desktopCtl->currentDiskNam
                    e);
  3988                        L10063:
  3989                        	.line	643
  3990 07:8F08: A0 58 00     	ldy	#$58
  3991 07:8F0B: B7 19        	lda	[<L12+p_1],Y
  3992 07:8F0D: 85 01        	sta	<R0
  3993 07:8F0F: A0 5A 00     	ldy	#$5a
  3994 07:8F12: B7 19        	lda	[<L12+p_1],Y
  3995 07:8F14: 85 03        	sta	<R0+2
  3996 07:8F16: A0 13 00     	ldy	#$13
  3997 07:8F19: B7 01        	lda	[<R0],Y
  3998 07:8F1B: 48           	pha
  3999 07:8F1C: A0 11 00     	ldy	#$11
  4000 07:8F1F: B7 01        	lda	[<R0],Y
  Thu Dec  3 2020 22:25                                                Page 79


  4001 07:8F21: 48           	pha
  4002 07:8F22: F4 xx xx     	pea	#^L10+1481
  4003 07:8F25: F4 xx xx     	pea	#<L10+1481
  4004 07:8F28: 22 xx xx xx  	jsl	~~k_debug_message
  4005                        ;			}
  4006                        	.line	644
  4007                        L10060:
  4008                        ;			break;
  4009                        	.line	645
  4010 07:8F2C: 82 23 07     	brl	L10012
  4011                        ;		case FX_DISK_REMOVE:
  4012                        	.line	646
  4013                        L10064:
  4014                        ;
  4015                        ;			k_debug_string("DesktopWindowPro
                    c::DISK-REMOVE\r\n");
  4016                        	.line	648
  4017 07:8F2F: F4 xx xx     	pea	#^L10+1518
  4018 07:8F32: F4 xx xx     	pea	#<L10+1518
  4019 07:8F35: 22 xx xx xx  	jsl	~~k_debug_string
  4020                        ;
  4021                        ;			if(p->desktopCtl->currentDiskNam
                    e)
  4022                        	.line	650
  4023                        ;			{
  4024 07:8F39: A0 58 00     	ldy	#$58
  4025 07:8F3C: B7 19        	lda	[<L12+p_1],Y
  4026 07:8F3E: 85 01        	sta	<R0
  4027 07:8F40: A0 5A 00     	ldy	#$5a
  4028 07:8F43: B7 19        	lda	[<L12+p_1],Y
  4029 07:8F45: 85 03        	sta	<R0+2
  4030 07:8F47: A0 11 00     	ldy	#$11
  4031 07:8F4A: B7 01        	lda	[<R0],Y
  4032 07:8F4C: A0 13 00     	ldy	#$13
  4033 07:8F4F: 17 01        	ora	[<R0],Y
  4034 07:8F51: D0 03        	bne	L58
  4035 07:8F53: 82 52 01     	brl	L10065
  4036                        L58:
  4037                        	.line	651
  4038                        ;				k_debug_message("Desktop
                    WindowProc::DISK-REMOVE:DISK:",p->desktopCtl->currentDiskNam
                    e);
  4039                        	.line	652
  4040 07:8F56: A0 58 00     	ldy	#$58
  4041 07:8F59: B7 19        	lda	[<L12+p_1],Y
  4042 07:8F5B: 85 01        	sta	<R0
  4043 07:8F5D: A0 5A 00     	ldy	#$5a
  4044 07:8F60: B7 19        	lda	[<L12+p_1],Y
  4045 07:8F62: 85 03        	sta	<R0+2
  4046 07:8F64: A0 13 00     	ldy	#$13
  4047 07:8F67: B7 01        	lda	[<R0],Y
  4048 07:8F69: 48           	pha
  4049 07:8F6A: A0 11 00     	ldy	#$11
  4050 07:8F6D: B7 01        	lda	[<R0],Y
  4051 07:8F6F: 48           	pha
  4052 07:8F70: F4 xx xx     	pea	#^L10+1551
  4053 07:8F73: F4 xx xx     	pea	#<L10+1551
  4054 07:8F76: 22 xx xx xx  	jsl	~~k_debug_message
  Thu Dec  3 2020 22:25                                                Page 80


  4055                        ;				k_debug_integer("Desktop
                    WindowProc::DISK-REMOVE:backgroundColor:",p->desktopCtl->bac
                    kgroundColor);
  4056                        	.line	653
  4057 07:8F7A: A0 58 00     	ldy	#$58
  4058 07:8F7D: B7 19        	lda	[<L12+p_1],Y
  4059 07:8F7F: 85 01        	sta	<R0
  4060 07:8F81: A0 5A 00     	ldy	#$5a
  4061 07:8F84: B7 19        	lda	[<L12+p_1],Y
  4062 07:8F86: 85 03        	sta	<R0+2
  4063 07:8F88: A0 05 00     	ldy	#$5
  4064 07:8F8B: B7 01        	lda	[<R0],Y
  4065 07:8F8D: 48           	pha
  4066 07:8F8E: F4 xx xx     	pea	#^L10+1588
  4067 07:8F91: F4 xx xx     	pea	#<L10+1588
  4068 07:8F94: 22 xx xx xx  	jsl	~~k_debug_integer
  4069                        ;
  4070                        ;				temp1 = strlen(p->deskto
                    pCtl->currentDiskName);
  4071                        	.line	655
  4072 07:8F98: A0 58 00     	ldy	#$58
  4073 07:8F9B: B7 19        	lda	[<L12+p_1],Y
  4074 07:8F9D: 85 01        	sta	<R0
  4075 07:8F9F: A0 5A 00     	ldy	#$5a
  4076 07:8FA2: B7 19        	lda	[<L12+p_1],Y
  4077 07:8FA4: 85 03        	sta	<R0+2
  4078 07:8FA6: A0 13 00     	ldy	#$13
  4079 07:8FA9: B7 01        	lda	[<R0],Y
  4080 07:8FAB: 48           	pha
  4081 07:8FAC: A0 11 00     	ldy	#$11
  4082 07:8FAF: B7 01        	lda	[<R0],Y
  4083 07:8FB1: 48           	pha
  4084 07:8FB2: 22 xx xx xx  	jsl	~~strlen
  4085 07:8FB6: 85 24        	sta	<L12+temp1_1
  4086                        ;				temp2 = (temp1*4);
  4087                        	.line	656
  4088 07:8FB8: A5 24        	lda	<L12+temp1_1
  4089 07:8FBA: 0A           	asl	A
  4090 07:8FBB: 0A           	asl	A
  4091 07:8FBC: 85 26        	sta	<L12+temp2_1
  4092                        ;
  4093                        ;				k_put_winicon_point(ICON
                    _DISK,640 - (40 + temp2/2),20,p->desktopCtl->backgroundColor
                    ,PAINTMODE_BACKGROUND);
  4094                        	.line	658
  4095 07:8FBE: F4 F0 00     	pea	#<$f0
  4096 07:8FC1: A0 58 00     	ldy	#$58
  4097 07:8FC4: B7 19        	lda	[<L12+p_1],Y
  4098 07:8FC6: 85 01        	sta	<R0
  4099 07:8FC8: A0 5A 00     	ldy	#$5a
  4100 07:8FCB: B7 19        	lda	[<L12+p_1],Y
  4101 07:8FCD: 85 03        	sta	<R0+2
  4102 07:8FCF: A0 05 00     	ldy	#$5
  4103 07:8FD2: B7 01        	lda	[<R0],Y
  4104 07:8FD4: 48           	pha
  4105 07:8FD5: F4 14 00     	pea	#<$14
  4106 07:8FD8: A5 26        	lda	<L12+temp2_1
  4107 07:8FDA: A2 02 00     	ldx	#<$2
  Thu Dec  3 2020 22:25                                                Page 81


  4108                        	xref	~~~div
  4109 07:8FDD: 22 xx xx xx  	jsl	~~~div
  4110 07:8FE1: 85 01        	sta	<R0
  4111 07:8FE3: 18           	clc
  4112 07:8FE4: A9 28 00     	lda	#$28
  4113 07:8FE7: 65 01        	adc	<R0
  4114 07:8FE9: 85 05        	sta	<R1
  4115 07:8FEB: 38           	sec
  4116 07:8FEC: A9 80 02     	lda	#$280
  4117 07:8FEF: E5 05        	sbc	<R1
  4118 07:8FF1: 48           	pha
  4119 07:8FF2: F4 03 00     	pea	#<$3
  4120 07:8FF5: 22 xx xx xx  	jsl	~~k_put_winicon_point
  4121                        ;				k_draw_text_point(p->des
                    ktopCtl->currentDiskName,640 - (35 + temp2/2) - (temp2),40,p
                    ->desktopCtl->backgroundColor);
  4122                        	.line	659
  4123 07:8FF9: A0 58 00     	ldy	#$58
  4124 07:8FFC: B7 19        	lda	[<L12+p_1],Y
  4125 07:8FFE: 85 01        	sta	<R0
  4126 07:9000: A0 5A 00     	ldy	#$5a
  4127 07:9003: B7 19        	lda	[<L12+p_1],Y
  4128 07:9005: 85 03        	sta	<R0+2
  4129 07:9007: A0 05 00     	ldy	#$5
  4130 07:900A: B7 01        	lda	[<R0],Y
  4131 07:900C: 48           	pha
  4132 07:900D: F4 28 00     	pea	#<$28
  4133 07:9010: A5 26        	lda	<L12+temp2_1
  4134 07:9012: A2 02 00     	ldx	#<$2
  4135                        	xref	~~~div
  4136 07:9015: 22 xx xx xx  	jsl	~~~div
  4137 07:9019: 85 05        	sta	<R1
  4138 07:901B: 18           	clc
  4139 07:901C: A9 23 00     	lda	#$23
  4140 07:901F: 65 05        	adc	<R1
  4141 07:9021: 85 09        	sta	<R2
  4142 07:9023: 38           	sec
  4143 07:9024: A9 80 02     	lda	#$280
  4144 07:9027: E5 09        	sbc	<R2
  4145 07:9029: 85 05        	sta	<R1
  4146 07:902B: 38           	sec
  4147 07:902C: A5 05        	lda	<R1
  4148 07:902E: E5 26        	sbc	<L12+temp2_1
  4149 07:9030: 48           	pha
  4150 07:9031: A0 58 00     	ldy	#$58
  4151 07:9034: B7 19        	lda	[<L12+p_1],Y
  4152 07:9036: 85 05        	sta	<R1
  4153 07:9038: A0 5A 00     	ldy	#$5a
  4154 07:903B: B7 19        	lda	[<L12+p_1],Y
  4155 07:903D: 85 07        	sta	<R1+2
  4156 07:903F: A0 13 00     	ldy	#$13
  4157 07:9042: B7 05        	lda	[<R1],Y
  4158 07:9044: 48           	pha
  4159 07:9045: A0 11 00     	ldy	#$11
  4160 07:9048: B7 05        	lda	[<R1],Y
  4161 07:904A: 48           	pha
  4162 07:904B: 22 xx xx xx  	jsl	~~k_draw_text_point
  4163                        ;
  Thu Dec  3 2020 22:25                                                Page 82


  4164                        ;				if(p->desktopCtl->curren
                    tDiskName!=NULL)
  4165                        	.line	661
  4166                        ;					k_mem_deallocate
                    _heap(p->desktopCtl->currentDiskName);
  4167 07:904F: A0 58 00     	ldy	#$58
  4168 07:9052: B7 19        	lda	[<L12+p_1],Y
  4169 07:9054: 85 01        	sta	<R0
  4170 07:9056: A0 5A 00     	ldy	#$5a
  4171 07:9059: B7 19        	lda	[<L12+p_1],Y
  4172 07:905B: 85 03        	sta	<R0+2
  4173 07:905D: A0 11 00     	ldy	#$11
  4174 07:9060: B7 01        	lda	[<R0],Y
  4175 07:9062: A0 13 00     	ldy	#$13
  4176 07:9065: 17 01        	ora	[<R0],Y
  4177 07:9067: D0 03        	bne	L59
  4178 07:9069: 82 1E 00     	brl	L10066
  4179                        L59:
  4180                        	.line	662
  4181 07:906C: A0 58 00     	ldy	#$58
  4182 07:906F: B7 19        	lda	[<L12+p_1],Y
  4183 07:9071: 85 01        	sta	<R0
  4184 07:9073: A0 5A 00     	ldy	#$5a
  4185 07:9076: B7 19        	lda	[<L12+p_1],Y
  4186 07:9078: 85 03        	sta	<R0+2
  4187 07:907A: A0 13 00     	ldy	#$13
  4188 07:907D: B7 01        	lda	[<R0],Y
  4189 07:907F: 48           	pha
  4190 07:9080: A0 11 00     	ldy	#$11
  4191 07:9083: B7 01        	lda	[<R0],Y
  4192 07:9085: 48           	pha
  4193 07:9086: 22 xx xx xx  	jsl	~~k_mem_deallocate_heap
  4194                        ;
  4195                        ;				p->desktopCtl->currentDi
                    skName = NULL;
  4196                        L10066:
  4197                        	.line	664
  4198 07:908A: A0 58 00     	ldy	#$58
  4199 07:908D: B7 19        	lda	[<L12+p_1],Y
  4200 07:908F: 85 01        	sta	<R0
  4201 07:9091: A0 5A 00     	ldy	#$5a
  4202 07:9094: B7 19        	lda	[<L12+p_1],Y
  4203 07:9096: 85 03        	sta	<R0+2
  4204 07:9098: A9 00 00     	lda	#$0
  4205 07:909B: A0 11 00     	ldy	#$11
  4206 07:909E: 97 01        	sta	[<R0],Y
  4207 07:90A0: A9 00 00     	lda	#$0
  4208 07:90A3: A0 13 00     	ldy	#$13
  4209 07:90A6: 97 01        	sta	[<R0],Y
  4210                        ;			}
  4211                        	.line	665
  4212                        ;
  4213                        ;			break;
  4214                        L10065:
  4215                        	.line	667
  4216 07:90A8: 82 A7 05     	brl	L10012
  4217                        ;		case FX_APP_MESSAGE:
  4218                        	.line	668
  Thu Dec  3 2020 22:25                                                Page 83


  4219                        L10067:
  4220                        ;			k_debug_string("DesktopWindowPro
                    c::FX_APP_MESSAGE\r\n");
  4221                        	.line	669
  4222 07:90AB: F4 xx xx     	pea	#^L10+1636
  4223 07:90AE: F4 xx xx     	pea	#<L10+1636
  4224 07:90B1: 22 xx xx xx  	jsl	~~k_debug_string
  4225                        ;			break;
  4226                        	.line	670
  4227 07:90B5: 82 9A 05     	brl	L10012
  4228                        ;		case FX_MOUSE_MOVE:
  4229                        	.line	671
  4230                        L10068:
  4231                        ;			if(((INT*)pctx->userData)[DEBUG_
                    MOUSE_ENABLE] && !((INT*)pctx->userData)[DEBUG_MOUSE_BOXING]
                    )
  4232                        	.line	672
  4233                        ;			{
  4234 07:90B8: A0 83 00     	ldy	#$83
  4235 07:90BB: B7 1D        	lda	[<L12+pctx_1],Y
  4236 07:90BD: 85 01        	sta	<R0
  4237 07:90BF: A0 85 00     	ldy	#$85
  4238 07:90C2: B7 1D        	lda	[<L12+pctx_1],Y
  4239 07:90C4: 85 03        	sta	<R0+2
  4240 07:90C6: A7 01        	lda	[<R0]
  4241 07:90C8: D0 03        	bne	L60
  4242 07:90CA: 82 F6 00     	brl	L10069
  4243                        L60:
  4244 07:90CD: A0 83 00     	ldy	#$83
  4245 07:90D0: B7 1D        	lda	[<L12+pctx_1],Y
  4246 07:90D2: 85 01        	sta	<R0
  4247 07:90D4: A0 85 00     	ldy	#$85
  4248 07:90D7: B7 1D        	lda	[<L12+pctx_1],Y
  4249 07:90D9: 85 03        	sta	<R0+2
  4250 07:90DB: A0 06 00     	ldy	#$6
  4251 07:90DE: B7 01        	lda	[<R0],Y
  4252 07:90E0: F0 03        	beq	L61
  4253 07:90E2: 82 DE 00     	brl	L10069
  4254                        L61:
  4255                        	.line	673
  4256                        ;
  4257                        ;				cx = *((INT*)&pMsg->data
                    [1]) - pWin->win_x;
  4258                        	.line	675
  4259 07:90E5: 38           	sec
  4260 07:90E6: A0 17 00     	ldy	#$17
  4261 07:90E9: B7 72        	lda	[<L11+pMsg_0],Y
  4262 07:90EB: A0 08 00     	ldy	#$8
  4263 07:90EE: F7 11        	sbc	[<L12+pWin_1],Y
  4264 07:90F0: 85 28        	sta	<L12+cx_1
  4265                        ;				cy = *((INT*)&pMsg->data
                    [3]) - pWin->win_y;
  4266                        	.line	676
  4267 07:90F2: 38           	sec
  4268 07:90F3: A0 19 00     	ldy	#$19
  4269 07:90F6: B7 72        	lda	[<L11+pMsg_0],Y
  4270 07:90F8: A0 0A 00     	ldy	#$a
  4271 07:90FB: F7 11        	sbc	[<L12+pWin_1],Y
  Thu Dec  3 2020 22:25                                                Page 84


  4272 07:90FD: 85 2A        	sta	<L12+cy_1
  4273                        ;
  4274                        ;
  4275                        ;				px = ((INT*)pctx->userDa
                    ta)[DEBUG_MOUSE_CX];
  4276                        	.line	679
  4277 07:90FF: A0 83 00     	ldy	#$83
  4278 07:9102: B7 1D        	lda	[<L12+pctx_1],Y
  4279 07:9104: 85 01        	sta	<R0
  4280 07:9106: A0 85 00     	ldy	#$85
  4281 07:9109: B7 1D        	lda	[<L12+pctx_1],Y
  4282 07:910B: 85 03        	sta	<R0+2
  4283 07:910D: A0 02 00     	ldy	#$2
  4284 07:9110: B7 01        	lda	[<R0],Y
  4285 07:9112: 85 2C        	sta	<L12+px_1
  4286                        ;				py = ((INT*)pctx->userDa
                    ta)[DEBUG_MOUSE_CY];
  4287                        	.line	680
  4288 07:9114: A0 83 00     	ldy	#$83
  4289 07:9117: B7 1D        	lda	[<L12+pctx_1],Y
  4290 07:9119: 85 01        	sta	<R0
  4291 07:911B: A0 85 00     	ldy	#$85
  4292 07:911E: B7 1D        	lda	[<L12+pctx_1],Y
  4293 07:9120: 85 03        	sta	<R0+2
  4294 07:9122: A0 04 00     	ldy	#$4
  4295 07:9125: B7 01        	lda	[<R0],Y
  4296 07:9127: 85 2E        	sta	<L12+py_1
  4297                        ;
  4298                        ;				if(px > -1)
  4299                        	.line	682
  4300                        ;				{
  4301 07:9129: 38           	sec
  4302 07:912A: A9 FF FF     	lda	#$ffff
  4303 07:912D: E5 2C        	sbc	<L12+px_1
  4304 07:912F: 70 03        	bvs	L62
  4305 07:9131: 49 00 80     	eor	#$8000
  4306                        L62:
  4307 07:9134: 10 03        	bpl	L63
  4308 07:9136: 82 30 00     	brl	L10070
  4309                        L63:
  4310                        	.line	683
  4311                        ;					//k_draw_rect_sl
                    ow(px,py, px+100, py+100, 0);
  4312                        ;					k_vdma_fill_rect
                    _ex(px,py, 200, 200, FILLCOLOR_TRANSPARENT,BITMAP_FRONT);
  4313                        	.line	685
  4314 07:9139: F4 00 00     	pea	#<$0
  4315 07:913C: F4 00 00     	pea	#<$0
  4316 07:913F: F4 C8 00     	pea	#<$c8
  4317 07:9142: F4 C8 00     	pea	#<$c8
  4318 07:9145: A0 00 00     	ldy	#$0
  4319 07:9148: A5 2E        	lda	<L12+py_1
  4320 07:914A: 10 01        	bpl	L64
  4321 07:914C: 88           	dey
  4322                        L64:
  4323 07:914D: 85 01        	sta	<R0
  4324 07:914F: 84 03        	sty	<R0+2
  4325 07:9151: D4 03        	pei	<R0+2
  Thu Dec  3 2020 22:25                                                Page 85


  4326 07:9153: D4 01        	pei	<R0
  4327 07:9155: A0 00 00     	ldy	#$0
  4328 07:9158: A5 2C        	lda	<L12+px_1
  4329 07:915A: 10 01        	bpl	L65
  4330 07:915C: 88           	dey
  4331                        L65:
  4332 07:915D: 85 05        	sta	<R1
  4333 07:915F: 84 07        	sty	<R1+2
  4334 07:9161: D4 07        	pei	<R1+2
  4335 07:9163: D4 05        	pei	<R1
  4336 07:9165: 22 xx xx xx  	jsl	~~k_vdma_fill_rect_ex
  4337                        ;				}
  4338                        	.line	686
  4339                        ;
  4340                        ;				//k_draw_rect_slow(cx,cy
                    , cx+100, cy+100, 15);
  4341                        ;				k_vdma_fill_rect_ex(cx,c
                    y, 200, 100, 15,BITMAP_FRONT);
  4342                        L10070:
  4343                        	.line	689
  4344 07:9169: F4 00 00     	pea	#<$0
  4345 07:916C: F4 0F 00     	pea	#<$f
  4346 07:916F: F4 64 00     	pea	#<$64
  4347 07:9172: F4 C8 00     	pea	#<$c8
  4348 07:9175: A0 00 00     	ldy	#$0
  4349 07:9178: A5 2A        	lda	<L12+cy_1
  4350 07:917A: 10 01        	bpl	L66
  4351 07:917C: 88           	dey
  4352                        L66:
  4353 07:917D: 85 01        	sta	<R0
  4354 07:917F: 84 03        	sty	<R0+2
  4355 07:9181: D4 03        	pei	<R0+2
  4356 07:9183: D4 01        	pei	<R0
  4357 07:9185: A0 00 00     	ldy	#$0
  4358 07:9188: A5 28        	lda	<L12+cx_1
  4359 07:918A: 10 01        	bpl	L67
  4360 07:918C: 88           	dey
  4361                        L67:
  4362 07:918D: 85 05        	sta	<R1
  4363 07:918F: 84 07        	sty	<R1+2
  4364 07:9191: D4 07        	pei	<R1+2
  4365 07:9193: D4 05        	pei	<R1
  4366 07:9195: 22 xx xx xx  	jsl	~~k_vdma_fill_rect_ex
  4367                        ;
  4368                        ;				((INT*)pctx->userData)[D
                    EBUG_MOUSE_CX] = cx;
  4369                        	.line	691
  4370 07:9199: A0 83 00     	ldy	#$83
  4371 07:919C: B7 1D        	lda	[<L12+pctx_1],Y
  4372 07:919E: 85 01        	sta	<R0
  4373 07:91A0: A0 85 00     	ldy	#$85
  4374 07:91A3: B7 1D        	lda	[<L12+pctx_1],Y
  4375 07:91A5: 85 03        	sta	<R0+2
  4376 07:91A7: A5 28        	lda	<L12+cx_1
  4377 07:91A9: A0 02 00     	ldy	#$2
  4378 07:91AC: 97 01        	sta	[<R0],Y
  4379                        ;				((INT*)pctx->userData)[D
                    EBUG_MOUSE_CY] = cy;
  Thu Dec  3 2020 22:25                                                Page 86


  4380                        	.line	692
  4381 07:91AE: A0 83 00     	ldy	#$83
  4382 07:91B1: B7 1D        	lda	[<L12+pctx_1],Y
  4383 07:91B3: 85 01        	sta	<R0
  4384 07:91B5: A0 85 00     	ldy	#$85
  4385 07:91B8: B7 1D        	lda	[<L12+pctx_1],Y
  4386 07:91BA: 85 03        	sta	<R0+2
  4387 07:91BC: A5 2A        	lda	<L12+cy_1
  4388 07:91BE: A0 04 00     	ldy	#$4
  4389 07:91C1: 97 01        	sta	[<R0],Y
  4390                        ;
  4391                        ;			}
  4392                        	.line	694
  4393                        ;
  4394                        ;			break;
  4395                        L10069:
  4396                        	.line	696
  4397 07:91C3: 82 8C 04     	brl	L10012
  4398                        ;
  4399                        ;		case FX_MOUSE_ENTER:
  4400                        	.line	698
  4401                        L10071:
  4402                        ;			k_debug_strings("DesktopWindowPr
                    oc::FX_MOUSE_ENTER:",pWin->win_title);
  4403                        	.line	699
  4404 07:91C6: 18           	clc
  4405 07:91C7: A9 D4 00     	lda	#$d4
  4406 07:91CA: 65 11        	adc	<L12+pWin_1
  4407 07:91CC: 85 01        	sta	<R0
  4408 07:91CE: A9 00 00     	lda	#$0
  4409 07:91D1: 65 13        	adc	<L12+pWin_1+2
  4410 07:91D3: 85 03        	sta	<R0+2
  4411 07:91D5: D4 03        	pei	<R0+2
  4412 07:91D7: D4 01        	pei	<R0
  4413 07:91D9: F4 xx xx     	pea	#^L10+1672
  4414 07:91DC: F4 xx xx     	pea	#<L10+1672
  4415 07:91DF: 22 xx xx xx  	jsl	~~k_debug_strings
  4416                        ;			break;
  4417                        	.line	700
  4418 07:91E3: 82 6C 04     	brl	L10012
  4419                        ;		case FX_MOUSE_EXIT:
  4420                        	.line	701
  4421                        L10072:
  4422                        ;			k_debug_strings("DesktopWindowPr
                    oc::FX_MOUSE_EXIT:",pWin->win_title);
  4423                        	.line	702
  4424 07:91E6: 18           	clc
  4425 07:91E7: A9 D4 00     	lda	#$d4
  4426 07:91EA: 65 11        	adc	<L12+pWin_1
  4427 07:91EC: 85 01        	sta	<R0
  4428 07:91EE: A9 00 00     	lda	#$0
  4429 07:91F1: 65 13        	adc	<L12+pWin_1+2
  4430 07:91F3: 85 03        	sta	<R0+2
  4431 07:91F5: D4 03        	pei	<R0+2
  4432 07:91F7: D4 01        	pei	<R0
  4433 07:91F9: F4 xx xx     	pea	#^L10+1707
  4434 07:91FC: F4 xx xx     	pea	#<L10+1707
  4435 07:91FF: 22 xx xx xx  	jsl	~~k_debug_strings
  Thu Dec  3 2020 22:25                                                Page 87


  4436                        ;			break;
  4437                        	.line	703
  4438 07:9203: 82 4C 04     	brl	L10012
  4439                        ;
  4440                        ;		case FX_RBUTTON_DOWN:
  4441                        	.line	705
  4442                        L10073:
  4443                        ;			k_debug_string("DesktopWindowPro
                    c::FX_RBUTTON_DOWN\r\n");
  4444                        	.line	706
  4445 07:9206: F4 xx xx     	pea	#^L10+1741
  4446 07:9209: F4 xx xx     	pea	#<L10+1741
  4447 07:920C: 22 xx xx xx  	jsl	~~k_debug_string
  4448                        ;			//k_exec_throw_exception(0xFF000
                    000,1,"Test Exception Mode Messages",-1);
  4449                        ;			//drawMandelbrot();
  4450                        ;
  4451                        ;			break;
  4452                        	.line	710
  4453 07:9210: 82 3F 04     	brl	L10012
  4454                        ;
  4455                        ;		case FX_LBUTTON_DOWN:
  4456                        	.line	712
  4457                        L10074:
  4458                        ;			k_debug_string("DesktopWindowPro
                    c::FX_LBUTTON_DOWN\r\n");
  4459                        	.line	713
  4460 07:9213: F4 xx xx     	pea	#^L10+1778
  4461 07:9216: F4 xx xx     	pea	#<L10+1778
  4462 07:9219: 22 xx xx xx  	jsl	~~k_debug_string
  4463                        ;			//k_debug_integer("DesktopWindow
                    Proc::DEBUG_MOUSE_BOX_ENABLE:",((INT*)pctx->userData)[DEBUG_
                    MOUSE_BOX_ENABLE]);
  4464                        ;			//k_debug_integer("DesktopWindow
                    Proc::DEBUG_MOUSE_BOXING:",((INT*)pctx->userData)[DEBUG_MOUS
                    E_BOXING]);
  4465                        ;
  4466                        ;			if(((INT*)pctx->userData)[DEBUG_
                    MOUSE_BOX_ENABLE] && !((INT*)pctx->userData)[DEBUG_MOUSE_BOX
                    ING])
  4467                        	.line	717
  4468                        ;			{
  4469 07:921D: A0 83 00     	ldy	#$83
  4470 07:9220: B7 1D        	lda	[<L12+pctx_1],Y
  4471 07:9222: 85 01        	sta	<R0
  4472 07:9224: A0 85 00     	ldy	#$85
  4473 07:9227: B7 1D        	lda	[<L12+pctx_1],Y
  4474 07:9229: 85 03        	sta	<R0+2
  4475 07:922B: A0 0C 00     	ldy	#$c
  4476 07:922E: B7 01        	lda	[<R0],Y
  4477 07:9230: D0 03        	bne	L68
  4478 07:9232: 82 9C 00     	brl	L10075
  4479                        L68:
  4480 07:9235: A0 83 00     	ldy	#$83
  4481 07:9238: B7 1D        	lda	[<L12+pctx_1],Y
  4482 07:923A: 85 01        	sta	<R0
  4483 07:923C: A0 85 00     	ldy	#$85
  4484 07:923F: B7 1D        	lda	[<L12+pctx_1],Y
  Thu Dec  3 2020 22:25                                                Page 88


  4485 07:9241: 85 03        	sta	<R0+2
  4486 07:9243: A0 06 00     	ldy	#$6
  4487 07:9246: B7 01        	lda	[<R0],Y
  4488 07:9248: F0 03        	beq	L69
  4489 07:924A: 82 84 00     	brl	L10075
  4490                        L69:
  4491                        	.line	718
  4492                        ;
  4493                        ;				((INT*)pctx->userData)[D
                    EBUG_MOUSE_BOXING] = TRUE;
  4494                        	.line	720
  4495 07:924D: A0 83 00     	ldy	#$83
  4496 07:9250: B7 1D        	lda	[<L12+pctx_1],Y
  4497 07:9252: 85 01        	sta	<R0
  4498 07:9254: A0 85 00     	ldy	#$85
  4499 07:9257: B7 1D        	lda	[<L12+pctx_1],Y
  4500 07:9259: 85 03        	sta	<R0+2
  4501 07:925B: A9 01 00     	lda	#$1
  4502 07:925E: A0 06 00     	ldy	#$6
  4503 07:9261: 97 01        	sta	[<R0],Y
  4504                        ;
  4505                        ;				cy = *((INT*)&pMsg->data
                    [3]) - pWin->win_y;
  4506                        	.line	722
  4507 07:9263: 38           	sec
  4508 07:9264: A0 19 00     	ldy	#$19
  4509 07:9267: B7 72        	lda	[<L11+pMsg_0],Y
  4510 07:9269: A0 0A 00     	ldy	#$a
  4511 07:926C: F7 11        	sbc	[<L12+pWin_1],Y
  4512 07:926E: 85 2A        	sta	<L12+cy_1
  4513                        ;				cx = *((INT*)&pMsg->data
                    [1]) - pWin->win_x;
  4514                        	.line	723
  4515 07:9270: 38           	sec
  4516 07:9271: A0 17 00     	ldy	#$17
  4517 07:9274: B7 72        	lda	[<L11+pMsg_0],Y
  4518 07:9276: A0 08 00     	ldy	#$8
  4519 07:9279: F7 11        	sbc	[<L12+pWin_1],Y
  4520 07:927B: 85 28        	sta	<L12+cx_1
  4521                        ;
  4522                        ;				((INT*)pctx->userData)[D
                    EBUG_MOUSE_BOX_LEFT] = cx;
  4523                        	.line	725
  4524 07:927D: A0 83 00     	ldy	#$83
  4525 07:9280: B7 1D        	lda	[<L12+pctx_1],Y
  4526 07:9282: 85 01        	sta	<R0
  4527 07:9284: A0 85 00     	ldy	#$85
  4528 07:9287: B7 1D        	lda	[<L12+pctx_1],Y
  4529 07:9289: 85 03        	sta	<R0+2
  4530 07:928B: A5 28        	lda	<L12+cx_1
  4531 07:928D: A0 0A 00     	ldy	#$a
  4532 07:9290: 97 01        	sta	[<R0],Y
  4533                        ;				((INT*)pctx->userData)[D
                    EBUG_MOUSE_BOX_TOP]  = cy;
  4534                        	.line	726
  4535 07:9292: A0 83 00     	ldy	#$83
  4536 07:9295: B7 1D        	lda	[<L12+pctx_1],Y
  4537 07:9297: 85 01        	sta	<R0
  Thu Dec  3 2020 22:25                                                Page 89


  4538 07:9299: A0 85 00     	ldy	#$85
  4539 07:929C: B7 1D        	lda	[<L12+pctx_1],Y
  4540 07:929E: 85 03        	sta	<R0+2
  4541 07:92A0: A5 2A        	lda	<L12+cy_1
  4542 07:92A2: A0 08 00     	ldy	#$8
  4543 07:92A5: 97 01        	sta	[<R0],Y
  4544                        ;
  4545                        ;				((INT*)pctx->userData)[D
                    EBUG_MOUSE_CX] = cx;
  4546                        	.line	728
  4547 07:92A7: A0 83 00     	ldy	#$83
  4548 07:92AA: B7 1D        	lda	[<L12+pctx_1],Y
  4549 07:92AC: 85 01        	sta	<R0
  4550 07:92AE: A0 85 00     	ldy	#$85
  4551 07:92B1: B7 1D        	lda	[<L12+pctx_1],Y
  4552 07:92B3: 85 03        	sta	<R0+2
  4553 07:92B5: A5 28        	lda	<L12+cx_1
  4554 07:92B7: A0 02 00     	ldy	#$2
  4555 07:92BA: 97 01        	sta	[<R0],Y
  4556                        ;				((INT*)pctx->userData)[D
                    EBUG_MOUSE_CY] = cy;
  4557                        	.line	729
  4558 07:92BC: A0 83 00     	ldy	#$83
  4559 07:92BF: B7 1D        	lda	[<L12+pctx_1],Y
  4560 07:92C1: 85 01        	sta	<R0
  4561 07:92C3: A0 85 00     	ldy	#$85
  4562 07:92C6: B7 1D        	lda	[<L12+pctx_1],Y
  4563 07:92C8: 85 03        	sta	<R0+2
  4564 07:92CA: A5 2A        	lda	<L12+cy_1
  4565 07:92CC: A0 04 00     	ldy	#$4
  4566 07:92CF: 97 01        	sta	[<R0],Y
  4567                        ;			}
  4568                        	.line	730
  4569                        ;
  4570                        ;
  4571                        ;			break;
  4572                        L10075:
  4573                        	.line	733
  4574 07:92D1: 82 7E 03     	brl	L10012
  4575                        ;		case FX_LBUTTON_UP:
  4576                        	.line	734
  4577                        L10076:
  4578                        ;			k_debug_string("DesktopWindowPro
                    c::FX_LBUTTON_UP\r\n");
  4579                        	.line	735
  4580 07:92D4: F4 xx xx     	pea	#^L10+1815
  4581 07:92D7: F4 xx xx     	pea	#<L10+1815
  4582 07:92DA: 22 xx xx xx  	jsl	~~k_debug_string
  4583                        ;			/*
  4584                        ;			//pixelLocation =  &(((unsigned 
                    char FAR *)BITMAP_BANK_0)[(long)(( ((long)200) * 640L) + ((l
                    ong)200) )]);
  4585                        ;			pixelLocation =  (LPVOID)((long)
                    (( ((long)200) * 640L) + ((long)200) ));
  4586                        ;
  4587                        ;			k_debug_pointer("DesktopWindowPr
                    oc::pixelLocation:",pixelLocation);
  4588                        ;
  Thu Dec  3 2020 22:25                                                Page 90


  4589                        ;
  4590                        ;			while(temp1 == VDMA_STAT_VDMA_IP
                    S)
  4591                        ;			{
  4592                        ;				temp1 = ( VDMA_STATUS_RE
                    G[0] & VDMA_STAT_VDMA_IPS);
  4593                        ;			}
  4594                        ;
  4595                        ;			//VDMA_CONTROL_REG[0] = 1 + 2;
  4596                        ;			VDMA_CONTROL_REG[0]  = (VDMA_CTR
                    L_ENABLE | VDMA_CTRL_1D_2D );
  4597                        ;
  4598                        ;			k_debug_pointer("DesktopWindowPr
                    oc::pixelLocation:",pixelLocation);
  4599                        ;
  4600                        ;			VDMA_SRC_ADDY_L[0]  = 0x00;//$AF
                    0402 ;// Pointer to the Source of the Data to be stransfered
  4601                        ;			VDMA_SRC_ADDY_M[0]  = 0x00; //$A
                    F0403 ;// This needs to be within Vicky's Range ($00_0000 - 
                    $3F_0000)
  4602                        ;			VDMA_SRC_ADDY_H[0]  = 0x00;
  4603                        ;
  4604                        ;
  4605                        ;			VDMA_DST_ADDY_L[0] = L24BYTE(pix
                    elLocation);
  4606                        ;			VDMA_DST_ADDY_M[0] = M24BYTE(pix
                    elLocation);
  4607                        ;			VDMA_DST_ADDY_H[0] = H24BYTE(pix
                    elLocation);
  4608                        ;
  4609                        ;
  4610                        ;			VDMA_X_SIZE_L[0]  = 200;
  4611                        ;			VDMA_X_SIZE_H[0]  = 0;
  4612                        ;			VDMA_Y_SIZE_L[0]  = 200;
  4613                        ;			VDMA_Y_SIZE_H[0]  = 0;
  4614                        ;
  4615                        ;			//VDMA_SRC_STRIDE_L[0]  = 200;
  4616                        ;			//VDMA_SRC_STRIDE_H[0]  = 0;
  4617                        ;			//VDMA_DST_STRIDE_L[0]  = 200;
  4618                        ;			//VDMA_DST_STRIDE_H[0]  = 0;
  4619                        ;
  4620                        ;
  4621                        ;			k_debug_pointer("DesktopWindowPr
                    oc::start-vdma:",pixelLocation);
  4622                        ;
  4623                        ;			VDMA_CONTROL_REG[0]  = (VDMA_CTR
                    L_ENABLE | VDMA_CTRL_1D_2D | VDMA_CTRL_START_TRF);
  4624                        ;			*/
  4625                        ;
  4626                        ;			if(pctx->userData && ((INT*)pctx
                    ->userData)[DEBUG_MOUSE_BOXING])
  4627                        	.line	779
  4628                        ;			{
  4629 07:92DE: A0 83 00     	ldy	#$83
  4630 07:92E1: B7 1D        	lda	[<L12+pctx_1],Y
  4631 07:92E3: A0 85 00     	ldy	#$85
  4632 07:92E6: 17 1D        	ora	[<L12+pctx_1],Y
  4633 07:92E8: D0 03        	bne	L70
  Thu Dec  3 2020 22:25                                                Page 91


  4634 07:92EA: 82 11 01     	brl	L10077
  4635                        L70:
  4636 07:92ED: A0 83 00     	ldy	#$83
  4637 07:92F0: B7 1D        	lda	[<L12+pctx_1],Y
  4638 07:92F2: 85 01        	sta	<R0
  4639 07:92F4: A0 85 00     	ldy	#$85
  4640 07:92F7: B7 1D        	lda	[<L12+pctx_1],Y
  4641 07:92F9: 85 03        	sta	<R0+2
  4642 07:92FB: A0 06 00     	ldy	#$6
  4643 07:92FE: B7 01        	lda	[<R0],Y
  4644 07:9300: D0 03        	bne	L71
  4645 07:9302: 82 F9 00     	brl	L10077
  4646                        L71:
  4647                        	.line	780
  4648                        ;				px = ((INT*)pctx->userDa
                    ta)[DEBUG_MOUSE_CX];
  4649                        	.line	781
  4650 07:9305: A0 83 00     	ldy	#$83
  4651 07:9308: B7 1D        	lda	[<L12+pctx_1],Y
  4652 07:930A: 85 01        	sta	<R0
  4653 07:930C: A0 85 00     	ldy	#$85
  4654 07:930F: B7 1D        	lda	[<L12+pctx_1],Y
  4655 07:9311: 85 03        	sta	<R0+2
  4656 07:9313: A0 02 00     	ldy	#$2
  4657 07:9316: B7 01        	lda	[<R0],Y
  4658 07:9318: 85 2C        	sta	<L12+px_1
  4659                        ;				py = ((INT*)pctx->userDa
                    ta)[DEBUG_MOUSE_CY];
  4660                        	.line	782
  4661 07:931A: A0 83 00     	ldy	#$83
  4662 07:931D: B7 1D        	lda	[<L12+pctx_1],Y
  4663 07:931F: 85 01        	sta	<R0
  4664 07:9321: A0 85 00     	ldy	#$85
  4665 07:9324: B7 1D        	lda	[<L12+pctx_1],Y
  4666 07:9326: 85 03        	sta	<R0+2
  4667 07:9328: A0 04 00     	ldy	#$4
  4668 07:932B: B7 01        	lda	[<R0],Y
  4669 07:932D: 85 2E        	sta	<L12+py_1
  4670                        ;
  4671                        ;				if(px > -1)
  4672                        	.line	784
  4673                        ;				{
  4674 07:932F: 38           	sec
  4675 07:9330: A9 FF FF     	lda	#$ffff
  4676 07:9333: E5 2C        	sbc	<L12+px_1
  4677 07:9335: 70 03        	bvs	L72
  4678 07:9337: 49 00 80     	eor	#$8000
  4679                        L72:
  4680 07:933A: 10 03        	bpl	L73
  4681 07:933C: 82 33 00     	brl	L10078
  4682                        L73:
  4683                        	.line	785
  4684                        ;					k_draw_rect_slow
                    (((INT*)pctx->userData)[DEBUG_MOUSE_BOX_LEFT],
  4685                        	.line	786
  4686                        ;							
                             ((INT*)pctx->userData)[DEBUG_MOUSE_BOX_TOP],
  4687                        ;							
  Thu Dec  3 2020 22:25                                                Page 92


                    		 px, py,
  4688                        ;							
                    		 FILLCOLOR_TRANSPARENT);
  4689 07:933F: F4 00 00     	pea	#<$0
  4690 07:9342: D4 2E        	pei	<L12+py_1
  4691 07:9344: D4 2C        	pei	<L12+px_1
  4692 07:9346: A0 83 00     	ldy	#$83
  4693 07:9349: B7 1D        	lda	[<L12+pctx_1],Y
  4694 07:934B: 85 01        	sta	<R0
  4695 07:934D: A0 85 00     	ldy	#$85
  4696 07:9350: B7 1D        	lda	[<L12+pctx_1],Y
  4697 07:9352: 85 03        	sta	<R0+2
  4698 07:9354: A0 08 00     	ldy	#$8
  4699 07:9357: B7 01        	lda	[<R0],Y
  4700 07:9359: 48           	pha
  4701 07:935A: A0 83 00     	ldy	#$83
  4702 07:935D: B7 1D        	lda	[<L12+pctx_1],Y
  4703 07:935F: 85 01        	sta	<R0
  4704 07:9361: A0 85 00     	ldy	#$85
  4705 07:9364: B7 1D        	lda	[<L12+pctx_1],Y
  4706 07:9366: 85 03        	sta	<R0+2
  4707 07:9368: A0 0A 00     	ldy	#$a
  4708 07:936B: B7 01        	lda	[<R0],Y
  4709 07:936D: 48           	pha
  4710 07:936E: 22 xx xx xx  	jsl	~~k_draw_rect_slow
  4711                        ;				}
  4712                        	.line	790
  4713                        ;
  4714                        ;				((INT*)pctx->userData)[D
                    EBUG_MOUSE_CX] 		= -1;
  4715                        L10078:
  4716                        	.line	792
  4717 07:9372: A0 83 00     	ldy	#$83
  4718 07:9375: B7 1D        	lda	[<L12+pctx_1],Y
  4719 07:9377: 85 01        	sta	<R0
  4720 07:9379: A0 85 00     	ldy	#$85
  4721 07:937C: B7 1D        	lda	[<L12+pctx_1],Y
  4722 07:937E: 85 03        	sta	<R0+2
  4723 07:9380: A9 FF FF     	lda	#$ffff
  4724 07:9383: A0 02 00     	ldy	#$2
  4725 07:9386: 97 01        	sta	[<R0],Y
  4726                        ;				((INT*)pctx->userData)[D
                    EBUG_MOUSE_CY] 		= -1;
  4727                        	.line	793
  4728 07:9388: A0 83 00     	ldy	#$83
  4729 07:938B: B7 1D        	lda	[<L12+pctx_1],Y
  4730 07:938D: 85 01        	sta	<R0
  4731 07:938F: A0 85 00     	ldy	#$85
  4732 07:9392: B7 1D        	lda	[<L12+pctx_1],Y
  4733 07:9394: 85 03        	sta	<R0+2
  4734 07:9396: A9 FF FF     	lda	#$ffff
  4735 07:9399: A0 04 00     	ldy	#$4
  4736 07:939C: 97 01        	sta	[<R0],Y
  4737                        ;				((INT*)pctx->userData)[D
                    EBUG_MOUSE_BOXING] 	= FALSE;
  4738                        	.line	794
  4739 07:939E: A0 83 00     	ldy	#$83
  4740 07:93A1: B7 1D        	lda	[<L12+pctx_1],Y
  Thu Dec  3 2020 22:25                                                Page 93


  4741 07:93A3: 85 01        	sta	<R0
  4742 07:93A5: A0 85 00     	ldy	#$85
  4743 07:93A8: B7 1D        	lda	[<L12+pctx_1],Y
  4744 07:93AA: 85 03        	sta	<R0+2
  4745 07:93AC: A9 00 00     	lda	#$0
  4746 07:93AF: A0 06 00     	ldy	#$6
  4747 07:93B2: 97 01        	sta	[<R0],Y
  4748                        ;				((INT*)pctx->userData)[D
                    EBUG_MOUSE_BOX_TOP] = -1;
  4749                        	.line	795
  4750 07:93B4: A0 83 00     	ldy	#$83
  4751 07:93B7: B7 1D        	lda	[<L12+pctx_1],Y
  4752 07:93B9: 85 01        	sta	<R0
  4753 07:93BB: A0 85 00     	ldy	#$85
  4754 07:93BE: B7 1D        	lda	[<L12+pctx_1],Y
  4755 07:93C0: 85 03        	sta	<R0+2
  4756 07:93C2: A9 FF FF     	lda	#$ffff
  4757 07:93C5: A0 08 00     	ldy	#$8
  4758 07:93C8: 97 01        	sta	[<R0],Y
  4759                        ;				((INT*)pctx->userData)[D
                    EBUG_MOUSE_BOX_LEFT]= -1;
  4760                        	.line	796
  4761 07:93CA: A0 83 00     	ldy	#$83
  4762 07:93CD: B7 1D        	lda	[<L12+pctx_1],Y
  4763 07:93CF: 85 01        	sta	<R0
  4764 07:93D1: A0 85 00     	ldy	#$85
  4765 07:93D4: B7 1D        	lda	[<L12+pctx_1],Y
  4766 07:93D6: 85 03        	sta	<R0+2
  4767 07:93D8: A9 FF FF     	lda	#$ffff
  4768 07:93DB: A0 0A 00     	ldy	#$a
  4769 07:93DE: 97 01        	sta	[<R0],Y
  4770                        ;
  4771                        ;				k_debug_integer("Desktop
                    WindowProc::DEBUG_MOUSE_BOXING:",((INT*)pctx->userData)[DEBU
                    G_MOUSE_BOXING]);
  4772                        	.line	798
  4773 07:93E0: A0 83 00     	ldy	#$83
  4774 07:93E3: B7 1D        	lda	[<L12+pctx_1],Y
  4775 07:93E5: 85 01        	sta	<R0
  4776 07:93E7: A0 85 00     	ldy	#$85
  4777 07:93EA: B7 1D        	lda	[<L12+pctx_1],Y
  4778 07:93EC: 85 03        	sta	<R0+2
  4779 07:93EE: A0 06 00     	ldy	#$6
  4780 07:93F1: B7 01        	lda	[<R0],Y
  4781 07:93F3: 48           	pha
  4782 07:93F4: F4 xx xx     	pea	#^L10+1850
  4783 07:93F7: F4 xx xx     	pea	#<L10+1850
  4784 07:93FA: 22 xx xx xx  	jsl	~~k_debug_integer
  4785                        ;			}
  4786                        	.line	799
  4787                        ;
  4788                        ;
  4789                        ;
  4790                        ;			break;
  4791                        L10077:
  4792                        	.line	803
  4793 07:93FE: 82 51 02     	brl	L10012
  4794                        ;		case FX_LBUTTON_DRAG:
  Thu Dec  3 2020 22:25                                                Page 94


  4795                        	.line	804
  4796                        L10079:
  4797                        ;			k_debug_string("DesktopWindowPro
                    c::FX_LBUTTON_DRAG\r\n");
  4798                        	.line	805
  4799 07:9401: F4 xx xx     	pea	#^L10+1889
  4800 07:9404: F4 xx xx     	pea	#<L10+1889
  4801 07:9407: 22 xx xx xx  	jsl	~~k_debug_string
  4802                        ;
  4803                        ;
  4804                        ;			if(((INT*)pctx->userData)[DEBUG_
                    MOUSE_BOX_ENABLE] && ((INT*)pctx->userData)[DEBUG_MOUSE_BOXI
                    NG])
  4805                        	.line	808
  4806                        ;			{
  4807 07:940B: A0 83 00     	ldy	#$83
  4808 07:940E: B7 1D        	lda	[<L12+pctx_1],Y
  4809 07:9410: 85 01        	sta	<R0
  4810 07:9412: A0 85 00     	ldy	#$85
  4811 07:9415: B7 1D        	lda	[<L12+pctx_1],Y
  4812 07:9417: 85 03        	sta	<R0+2
  4813 07:9419: A0 0C 00     	ldy	#$c
  4814 07:941C: B7 01        	lda	[<R0],Y
  4815 07:941E: D0 03        	bne	L74
  4816 07:9420: 82 FC 00     	brl	L10080
  4817                        L74:
  4818 07:9423: A0 83 00     	ldy	#$83
  4819 07:9426: B7 1D        	lda	[<L12+pctx_1],Y
  4820 07:9428: 85 01        	sta	<R0
  4821 07:942A: A0 85 00     	ldy	#$85
  4822 07:942D: B7 1D        	lda	[<L12+pctx_1],Y
  4823 07:942F: 85 03        	sta	<R0+2
  4824 07:9431: A0 06 00     	ldy	#$6
  4825 07:9434: B7 01        	lda	[<R0],Y
  4826 07:9436: D0 03        	bne	L75
  4827 07:9438: 82 E4 00     	brl	L10080
  4828                        L75:
  4829                        	.line	809
  4830                        ;
  4831                        ;				cy = *((INT*)&pMsg->data
                    [3]) - pWin->win_y;
  4832                        	.line	811
  4833 07:943B: 38           	sec
  4834 07:943C: A0 19 00     	ldy	#$19
  4835 07:943F: B7 72        	lda	[<L11+pMsg_0],Y
  4836 07:9441: A0 0A 00     	ldy	#$a
  4837 07:9444: F7 11        	sbc	[<L12+pWin_1],Y
  4838 07:9446: 85 2A        	sta	<L12+cy_1
  4839                        ;				cx = *((INT*)&pMsg->data
                    [1]) - pWin->win_x;
  4840                        	.line	812
  4841 07:9448: 38           	sec
  4842 07:9449: A0 17 00     	ldy	#$17
  4843 07:944C: B7 72        	lda	[<L11+pMsg_0],Y
  4844 07:944E: A0 08 00     	ldy	#$8
  4845 07:9451: F7 11        	sbc	[<L12+pWin_1],Y
  4846 07:9453: 85 28        	sta	<L12+cx_1
  4847                        ;
  Thu Dec  3 2020 22:25                                                Page 95


  4848                        ;				px = ((INT*)pctx->userDa
                    ta)[DEBUG_MOUSE_CX];
  4849                        	.line	814
  4850 07:9455: A0 83 00     	ldy	#$83
  4851 07:9458: B7 1D        	lda	[<L12+pctx_1],Y
  4852 07:945A: 85 01        	sta	<R0
  4853 07:945C: A0 85 00     	ldy	#$85
  4854 07:945F: B7 1D        	lda	[<L12+pctx_1],Y
  4855 07:9461: 85 03        	sta	<R0+2
  4856 07:9463: A0 02 00     	ldy	#$2
  4857 07:9466: B7 01        	lda	[<R0],Y
  4858 07:9468: 85 2C        	sta	<L12+px_1
  4859                        ;				py = ((INT*)pctx->userDa
                    ta)[DEBUG_MOUSE_CY];
  4860                        	.line	815
  4861 07:946A: A0 83 00     	ldy	#$83
  4862 07:946D: B7 1D        	lda	[<L12+pctx_1],Y
  4863 07:946F: 85 01        	sta	<R0
  4864 07:9471: A0 85 00     	ldy	#$85
  4865 07:9474: B7 1D        	lda	[<L12+pctx_1],Y
  4866 07:9476: 85 03        	sta	<R0+2
  4867 07:9478: A0 04 00     	ldy	#$4
  4868 07:947B: B7 01        	lda	[<R0],Y
  4869 07:947D: 85 2E        	sta	<L12+py_1
  4870                        ;
  4871                        ;				if(px > -1)
  4872                        	.line	817
  4873                        ;				{
  4874 07:947F: 38           	sec
  4875 07:9480: A9 FF FF     	lda	#$ffff
  4876 07:9483: E5 2C        	sbc	<L12+px_1
  4877 07:9485: 70 03        	bvs	L76
  4878 07:9487: 49 00 80     	eor	#$8000
  4879                        L76:
  4880 07:948A: 10 03        	bpl	L77
  4881 07:948C: 82 33 00     	brl	L10081
  4882                        L77:
  4883                        	.line	818
  4884                        ;					k_draw_rect_slow
                    (((INT*)pctx->userData)[DEBUG_MOUSE_BOX_LEFT],
  4885                        	.line	819
  4886                        ;							
                             ((INT*)pctx->userData)[DEBUG_MOUSE_BOX_TOP],
  4887                        ;							
                    		 px, py,
  4888                        ;							
                    		 FILLCOLOR_TRANSPARENT);
  4889 07:948F: F4 00 00     	pea	#<$0
  4890 07:9492: D4 2E        	pei	<L12+py_1
  4891 07:9494: D4 2C        	pei	<L12+px_1
  4892 07:9496: A0 83 00     	ldy	#$83
  4893 07:9499: B7 1D        	lda	[<L12+pctx_1],Y
  4894 07:949B: 85 01        	sta	<R0
  4895 07:949D: A0 85 00     	ldy	#$85
  4896 07:94A0: B7 1D        	lda	[<L12+pctx_1],Y
  4897 07:94A2: 85 03        	sta	<R0+2
  4898 07:94A4: A0 08 00     	ldy	#$8
  4899 07:94A7: B7 01        	lda	[<R0],Y
  Thu Dec  3 2020 22:25                                                Page 96


  4900 07:94A9: 48           	pha
  4901 07:94AA: A0 83 00     	ldy	#$83
  4902 07:94AD: B7 1D        	lda	[<L12+pctx_1],Y
  4903 07:94AF: 85 01        	sta	<R0
  4904 07:94B1: A0 85 00     	ldy	#$85
  4905 07:94B4: B7 1D        	lda	[<L12+pctx_1],Y
  4906 07:94B6: 85 03        	sta	<R0+2
  4907 07:94B8: A0 0A 00     	ldy	#$a
  4908 07:94BB: B7 01        	lda	[<R0],Y
  4909 07:94BD: 48           	pha
  4910 07:94BE: 22 xx xx xx  	jsl	~~k_draw_rect_slow
  4911                        ;				}
  4912                        	.line	823
  4913                        ;
  4914                        ;				k_draw_rect_slow(((INT*)
                    pctx->userData)[DEBUG_MOUSE_BOX_LEFT],
  4915                        L10081:
  4916                        	.line	825
  4917                        ;							
                    	 ((INT*)pctx->userData)[DEBUG_MOUSE_BOX_TOP],
  4918                        ;							
                    	 cx,cy,
  4919                        ;							
                    	 15);
  4920 07:94C2: F4 0F 00     	pea	#<$f
  4921 07:94C5: D4 2A        	pei	<L12+cy_1
  4922 07:94C7: D4 28        	pei	<L12+cx_1
  4923 07:94C9: A0 83 00     	ldy	#$83
  4924 07:94CC: B7 1D        	lda	[<L12+pctx_1],Y
  4925 07:94CE: 85 01        	sta	<R0
  4926 07:94D0: A0 85 00     	ldy	#$85
  4927 07:94D3: B7 1D        	lda	[<L12+pctx_1],Y
  4928 07:94D5: 85 03        	sta	<R0+2
  4929 07:94D7: A0 08 00     	ldy	#$8
  4930 07:94DA: B7 01        	lda	[<R0],Y
  4931 07:94DC: 48           	pha
  4932 07:94DD: A0 83 00     	ldy	#$83
  4933 07:94E0: B7 1D        	lda	[<L12+pctx_1],Y
  4934 07:94E2: 85 01        	sta	<R0
  4935 07:94E4: A0 85 00     	ldy	#$85
  4936 07:94E7: B7 1D        	lda	[<L12+pctx_1],Y
  4937 07:94E9: 85 03        	sta	<R0+2
  4938 07:94EB: A0 0A 00     	ldy	#$a
  4939 07:94EE: B7 01        	lda	[<R0],Y
  4940 07:94F0: 48           	pha
  4941 07:94F1: 22 xx xx xx  	jsl	~~k_draw_rect_slow
  4942                        ;
  4943                        ;				((INT*)pctx->userData)[D
                    EBUG_MOUSE_CX] = cx;
  4944                        	.line	830
  4945 07:94F5: A0 83 00     	ldy	#$83
  4946 07:94F8: B7 1D        	lda	[<L12+pctx_1],Y
  4947 07:94FA: 85 01        	sta	<R0
  4948 07:94FC: A0 85 00     	ldy	#$85
  4949 07:94FF: B7 1D        	lda	[<L12+pctx_1],Y
  4950 07:9501: 85 03        	sta	<R0+2
  4951 07:9503: A5 28        	lda	<L12+cx_1
  4952 07:9505: A0 02 00     	ldy	#$2
  Thu Dec  3 2020 22:25                                                Page 97


  4953 07:9508: 97 01        	sta	[<R0],Y
  4954                        ;				((INT*)pctx->userData)[D
                    EBUG_MOUSE_CY] = cy;
  4955                        	.line	831
  4956 07:950A: A0 83 00     	ldy	#$83
  4957 07:950D: B7 1D        	lda	[<L12+pctx_1],Y
  4958 07:950F: 85 01        	sta	<R0
  4959 07:9511: A0 85 00     	ldy	#$85
  4960 07:9514: B7 1D        	lda	[<L12+pctx_1],Y
  4961 07:9516: 85 03        	sta	<R0+2
  4962 07:9518: A5 2A        	lda	<L12+cy_1
  4963 07:951A: A0 04 00     	ldy	#$4
  4964 07:951D: 97 01        	sta	[<R0],Y
  4965                        ;			}
  4966                        	.line	832
  4967                        ;
  4968                        ;			break;
  4969                        L10080:
  4970                        	.line	834
  4971 07:951F: 82 30 01     	brl	L10012
  4972                        ;		case FX_LBUTTON_DBLCLICK:
  4973                        	.line	835
  4974                        L10082:
  4975                        ;			k_debug_string("DesktopWindowPro
                    c::FX_LBUTTON_DBLCLICK\r\n");
  4976                        	.line	836
  4977 07:9522: F4 xx xx     	pea	#^L10+1926
  4978 07:9525: F4 xx xx     	pea	#<L10+1926
  4979 07:9528: 22 xx xx xx  	jsl	~~k_debug_string
  4980                        ;
  4981                        ;
  4982                        ;
  4983                        ;			if(k_user_getDesktopWindow())
  4984                        	.line	840
  4985                        ;			{
  4986 07:952C: 22 xx xx xx  	jsl	~~k_user_getDesktopWindow
  4987 07:9530: 85 01        	sta	<R0
  4988 07:9532: 86 03        	stx	<R0+2
  4989 07:9534: A5 01        	lda	<R0
  4990 07:9536: 05 03        	ora	<R0+2
  4991 07:9538: D0 03        	bne	L78
  4992 07:953A: 82 69 00     	brl	L10083
  4993                        L78:
  4994                        	.line	841
  4995                        ;				k_debug_string("DesktopW
                    indowProc::DESKTOP HITLISTK\r\n");
  4996                        	.line	842
  4997 07:953D: F4 xx xx     	pea	#^L10+1967
  4998 07:9540: F4 xx xx     	pea	#<L10+1967
  4999 07:9543: 22 xx xx xx  	jsl	~~k_debug_string
  5000                        ;				k_debug_nodelist_with_da
                    ta( k_getWindowFromHandle(k_user_getDesktopWindow())->pChild
                    HitList->listhead->next, debug_clickable_node );
  5001                        	.line	843
  5002 07:9547: F4 xx xx     	pea	#^~~debug_clickable_node
  5003 07:954A: F4 xx xx     	pea	#<~~debug_clickable_node
  5004 07:954D: 22 xx xx xx  	jsl	~~k_user_getDesktopWindow
  5005 07:9551: 85 01        	sta	<R0
  Thu Dec  3 2020 22:25                                                Page 98


  5006 07:9553: 86 03        	stx	<R0+2
  5007 07:9555: DA           	phx
  5008 07:9556: 48           	pha
  5009 07:9557: 22 xx xx xx  	jsl	~~k_getWindowFromHandle
  5010 07:955B: 85 05        	sta	<R1
  5011 07:955D: 86 07        	stx	<R1+2
  5012 07:955F: A0 3C 01     	ldy	#$13c
  5013 07:9562: B7 05        	lda	[<R1],Y
  5014 07:9564: 85 09        	sta	<R2
  5015 07:9566: A0 3E 01     	ldy	#$13e
  5016 07:9569: B7 05        	lda	[<R1],Y
  5017 07:956B: 85 0B        	sta	<R2+2
  5018 07:956D: A7 09        	lda	[<R2]
  5019 07:956F: 85 05        	sta	<R1
  5020 07:9571: A0 02 00     	ldy	#$2
  5021 07:9574: B7 09        	lda	[<R2],Y
  5022 07:9576: 85 07        	sta	<R1+2
  5023 07:9578: A0 0C 00     	ldy	#$c
  5024 07:957B: B7 05        	lda	[<R1],Y
  5025 07:957D: 48           	pha
  5026 07:957E: A0 0A 00     	ldy	#$a
  5027 07:9581: B7 05        	lda	[<R1],Y
  5028 07:9583: 48           	pha
  5029 07:9584: 22 xx xx xx  	jsl	~~k_debug_nodelist_with_data
  5030                        ;				k_debug_string("DesktopW
                    indowProc::GLOBAL HITLISTK\r\n");
  5031                        	.line	844
  5032 07:9588: F4 xx xx     	pea	#^L10+2005
  5033 07:958B: F4 xx xx     	pea	#<L10+2005
  5034 07:958E: 22 xx xx xx  	jsl	~~k_debug_string
  5035                        ;				k_debug_nodelist_with_da
                    ta( k_getWindowHitList(), debug_clickable_node );
  5036                        	.line	845
  5037 07:9592: F4 xx xx     	pea	#^~~debug_clickable_node
  5038 07:9595: F4 xx xx     	pea	#<~~debug_clickable_node
  5039 07:9598: 22 xx xx xx  	jsl	~~k_getWindowHitList
  5040 07:959C: 85 01        	sta	<R0
  5041 07:959E: 86 03        	stx	<R0+2
  5042 07:95A0: DA           	phx
  5043 07:95A1: 48           	pha
  5044 07:95A2: 22 xx xx xx  	jsl	~~k_debug_nodelist_with_data
  5045                        ;			}
  5046                        	.line	846
  5047                        ;
  5048                        ;
  5049                        ;			break;
  5050                        L10083:
  5051                        	.line	849
  5052 07:95A6: 82 A9 00     	brl	L10012
  5053                        ;		case FX_WINDOW_TOFRONT:
  5054                        	.line	850
  5055                        L10084:
  5056                        ;			k_debug_string("DesktopWindowPro
                    c::FX_WINDOW_TOFRONT\r\n");
  5057                        	.line	851
  5058 07:95A9: F4 xx xx     	pea	#^L10+2042
  5059 07:95AC: F4 xx xx     	pea	#<L10+2042
  5060 07:95AF: 22 xx xx xx  	jsl	~~k_debug_string
  Thu Dec  3 2020 22:25                                                Page 99


  5061                        ;
  5062                        ;			//k_vdraw_ui_window(25,25,200,30
                    0,"Clicked FRONT",15,3);
  5063                        ;
  5064                        ;			break;
  5065                        	.line	855
  5066 07:95B3: 82 9C 00     	brl	L10012
  5067                        ;		case FX_WINDOW_TOBACK:
  5068                        	.line	856
  5069                        L10085:
  5070                        ;			k_debug_string("DesktopWindowPro
                    c::FX_WINDOW_TOBACK\r\n");
  5071                        	.line	857
  5072 07:95B6: F4 xx xx     	pea	#^L10+2081
  5073 07:95B9: F4 xx xx     	pea	#<L10+2081
  5074 07:95BC: 22 xx xx xx  	jsl	~~k_debug_string
  5075                        ;
  5076                        ;			//k_vdraw_ui_window(250,250,150,
                    200,"Clicked BACK",15,3);
  5077                        ;
  5078                        ;			break;
  5079                        	.line	861
  5080 07:95C0: 82 8F 00     	brl	L10012
  5081                        ;		case FX_COM1_DATA:
  5082                        	.line	862
  5083                        L10086:
  5084                        ;			//k_debug_string("DesktopWindowP
                    roc::FX_COM1_DATA\r\n");
  5085                        ;			break;
  5086                        	.line	864
  5087 07:95C3: 82 8C 00     	brl	L10012
  5088                        ;		case FX_COM2_DATA:
  5089                        	.line	865
  5090                        L10087:
  5091                        ;			//k_debug_string("DesktopWindowP
                    roc::FX_COM2_DATA\r\n");
  5092                        ;			break;
  5093                        	.line	867
  5094 07:95C6: 82 89 00     	brl	L10012
  5095                        ;
  5096                        ;		default:
  5097                        	.line	869
  5098                        L10088:
  5099                        ;			//k_updatespinner(2,40,&consoles
                    pinctx);
  5100                        ;			return DefWindowProc(pMsg);
  5101                        	.line	871
  5102 07:95C9: D4 74        	pei	<L11+pMsg_0+2
  5103 07:95CB: D4 72        	pei	<L11+pMsg_0
  5104 07:95CD: 22 xx xx xx  	jsl	~~DefWindowProc
  5105 07:95D1: E2 20        	sep	#$20
  5106                        	longa	off
  5107 07:95D3: 85 01        	sta	<R0
  5108 07:95D5: C2 20        	rep	#$20
  5109                        	longa	on
  5110 07:95D7: A5 01        	lda	<R0
  5111 07:95D9: 29 FF 00     	and	#$ff
  5112                        L79:
  Thu Dec  3 2020 22:25                                                Page 100


  5113 07:95DC: A8           	tay
  5114 07:95DD: A5 70        	lda	<L11+2
  5115 07:95DF: 85 74        	sta	<L11+2+4
  5116 07:95E1: A5 6F        	lda	<L11+1
  5117 07:95E3: 85 73        	sta	<L11+1+4
  5118 07:95E5: 2B           	pld
  5119 07:95E6: 3B           	tsc
  5120 07:95E7: 18           	clc
  5121 07:95E8: 69 72 00     	adc	#L11+4
  5122 07:95EB: 1B           	tcs
  5123 07:95EC: 98           	tya
  5124 07:95ED: 6B           	rtl
  5125                        ;			break;
  5126                        	.line	872
  5127                        ;		}
  5128                        	.line	873
  5129                        L10011:
  5130                        	xref	~~~swt
  5131 07:95EE: 22 xx xx xx  	jsl	~~~swt
  5132 07:95F2: 17 00        	dw	23
  5133 07:95F4: 01 0F        	dw	3841
  5134 07:95F6: C5 91        	dw	L10071-1
  5135 07:95F8: 02 0F        	dw	3842
  5136 07:95FA: E5 91        	dw	L10072-1
  5137 07:95FC: 03 0F        	dw	3843
  5138 07:95FE: B7 90        	dw	L10068-1
  5139 07:9600: 04 0F        	dw	3844
  5140 07:9602: 12 92        	dw	L10074-1
  5141 07:9604: 05 0F        	dw	3845
  5142 07:9606: 00 94        	dw	L10079-1
  5143 07:9608: 06 0F        	dw	3846
  5144 07:960A: D3 92        	dw	L10076-1
  5145 07:960C: 07 0F        	dw	3847
  5146 07:960E: 21 95        	dw	L10082-1
  5147 07:9610: 08 0F        	dw	3848
  5148 07:9612: 05 92        	dw	L10073-1
  5149 07:9614: 10 0F        	dw	3856
  5150 07:9616: 07 8C        	dw	L10055-1
  5151 07:9618: 12 0F        	dw	3858
  5152 07:961A: FA 8B        	dw	L10054-1
  5153 07:961C: 20 0F        	dw	3872
  5154 07:961E: 14 8C        	dw	L10056-1
  5155 07:9620: 22 0F        	dw	3874
  5156 07:9622: 2E 8F        	dw	L10064-1
  5157 07:9624: 30 0F        	dw	3888
  5158 07:9626: A8 95        	dw	L10084-1
  5159 07:9628: 31 0F        	dw	3889
  5160 07:962A: B5 95        	dw	L10085-1
  5161 07:962C: 00 FA        	dw	64000
  5162 07:962E: D5 85        	dw	L10018-1
  5163 07:9630: 01 FA        	dw	64001
  5164 07:9632: 28 86        	dw	L10021-1
  5165 07:9634: 02 FA        	dw	64002
  5166 07:9636: E8 85        	dw	L10019-1
  5167 07:9638: 00 FB        	dw	64256
  5168 07:963A: C3 85        	dw	L10017-1
  5169 07:963C: 00 FC        	dw	64512
  5170 07:963E: C2 95        	dw	L10086-1
  Thu Dec  3 2020 22:25                                                Page 101


  5171 07:9640: 01 FC        	dw	64513
  5172 07:9642: C5 95        	dw	L10087-1
  5173 07:9644: 03 FF        	dw	65283
  5174 07:9646: A2 81        	dw	L10013-1
  5175 07:9648: F0 FF        	dw	65520
  5176 07:964A: AA 90        	dw	L10067-1
  5177 07:964C: F1 FF        	dw	65521
  5178 07:964E: C0 85        	dw	L10016-1
  5179 07:9650: C8 95        	dw	L10088-1
  5180                        L10012:
  5181                        ;	}
  5182                        	.line	874
  5183                        ;	//k_debug_string("DesktopWindowProc exit\r\n");
  5184                        ;
  5185                        ;	return TRUE;
  5186                        L10009:
  5187                        	.line	877
  5188 07:9652: A9 01 00     	lda	#$1
  5189 07:9655: 82 84 FF     	brl	L79
  5190                        ;}
  5191                        	.line	878
  5192                        	.endblock	878
  5193             0000006E   L11	equ	110
  5194             0000000D   L12	equ	13
  5195 07:9658:              	ends
  5196                        	efunc
  5197                        	.endfunc	878,13,110
  5198                        	.line	878
  5199                        	data
  5200                        L10:
  5201 00:0094: 30 00 31 00  	db	$30,$00,$31,$00,$32,$00,$33,$00,$34,$00,
                    $35,$00,$36,$00,$37
       00:0098: 32 00 33 00 
       00:009C: 34 00 35 00 
       00:00A0: 36 00 37 
  5202 00:00A3: 00 38 00 39  	db	$00,$38,$00,$39,$00,$44,$65,$73,$6B,$74,
                    $6F,$70,$57,$69,$6E
       00:00A7: 00 44 65 73 
       00:00AB: 6B 74 6F 70 
       00:00AF: 57 69 6E 
  5203 00:00B2: 64 6F 77 50  	db	$64,$6F,$77,$50,$72,$6F,$63,$3A,$3A,$46,
                    $58,$5F,$43,$52,$45
       00:00B6: 72 6F 63 3A 
       00:00BA: 3A 46 58 5F 
       00:00BE: 43 52 45 
  5204 00:00C1: 41 54 45 5F  	db	$41,$54,$45,$5F,$57,$49,$4E,$44,$4F,$57,
                    $0D,$0A,$00,$44,$65
       00:00C5: 57 49 4E 44 
       00:00C9: 4F 57 0D 0A 
       00:00CD: 00 44 65 
  5205 00:00D0: 73 6B 74 6F  	db	$73,$6B,$74,$6F,$70,$57,$69,$6E,$64,$6F,
                    $77,$50,$72,$6F,$63
       00:00D4: 70 57 69 6E 
       00:00D8: 64 6F 77 50 
       00:00DC: 72 6F 63 
  5206 00:00DF: 3A 3A 70 63  	db	$3A,$3A,$70,$63,$74,$78,$3A,$00,$44,$65,
                    $73,$6B,$74,$6F,$70
       00:00E3: 74 78 3A 00 
  Thu Dec  3 2020 22:25                                                Page 102


       00:00E7: 44 65 73 6B 
       00:00EB: 74 6F 70 
  5207 00:00EE: 57 69 6E 64  	db	$57,$69,$6E,$64,$6F,$77,$50,$72,$6F,$63,
                    $3A,$3A,$70,$63,$74
       00:00F2: 6F 77 50 72 
       00:00F6: 6F 63 3A 3A 
       00:00FA: 70 63 74 
  5208 00:00FD: 78 2D 3E 75  	db	$78,$2D,$3E,$75,$73,$65,$72,$44,$61,$74,
                    $61,$3A,$00,$70,$72
       00:0101: 73 65 72 44 
       00:0105: 61 74 61 3A 
       00:0109: 00 70 72 
  5209 00:010C: 65 66 65 72  	db	$65,$66,$65,$72,$65,$6E,$63,$65,$73,$57,
                    $69,$6E,$64,$6F,$77
       00:0110: 65 6E 63 65 
       00:0114: 73 57 69 6E 
       00:0118: 64 6F 77 
  5210 00:011B: 43 6C 61 73  	db	$43,$6C,$61,$73,$73,$00,$74,$65,$73,$74,
                    $57,$69,$6E,$64,$6F
       00:011F: 73 00 74 65 
       00:0123: 73 74 57 69 
       00:0127: 6E 64 6F 
  5211 00:012A: 77 43 6C 61  	db	$77,$43,$6C,$61,$73,$73,$00,$6C,$69,$73,
                    $74,$62,$6F,$78,$57
       00:012E: 73 73 00 6C 
       00:0132: 69 73 74 62 
       00:0136: 6F 78 57 
  5212 00:0139: 69 6E 64 6F  	db	$69,$6E,$64,$6F,$77,$43,$6C,$61,$73,$73,
                    $00,$74,$65,$78,$74
       00:013D: 77 43 6C 61 
       00:0141: 73 73 00 74 
       00:0145: 65 78 74 
  5213 00:0148: 62 6F 78 57  	db	$62,$6F,$78,$57,$69,$6E,$64,$6F,$77,$43,
                    $6C,$61,$73,$73,$00
       00:014C: 69 6E 64 6F 
       00:0150: 77 43 6C 61 
       00:0154: 73 73 00 
  5214 00:0157: 46 69 6C 65  	db	$46,$69,$6C,$65,$00,$56,$6F,$6C,$75,$6D,
                    $65,$20,$49,$6E,$66
       00:015B: 00 56 6F 6C 
       00:015F: 75 6D 65 20 
       00:0163: 49 6E 66 
  5215 00:0166: 6F 00 52 65  	db	$6F,$00,$52,$65,$6E,$61,$6D,$65,$00,$43,
                    $6F,$70,$79,$00,$4D
       00:016A: 6E 61 6D 65 
       00:016E: 00 43 6F 70 
       00:0172: 79 00 4D 
  5216 00:0175: 6F 75 6E 74  	db	$6F,$75,$6E,$74,$00,$45,$6A,$65,$63,$74,
                    $00,$52,$75,$6E,$2E
       00:0179: 00 45 6A 65 
       00:017D: 63 74 00 52 
       00:0181: 75 6E 2E 
  5217 00:0184: 2E 2E 00 5F  	db	$2E,$2E,$00,$5F,$5F,$5F,$5F,$5F,$5F,$5F,
                    $5F,$5F,$5F,$5F,$5F
       00:0188: 5F 5F 5F 5F 
       00:018C: 5F 5F 5F 5F 
       00:0190: 5F 5F 5F 
  5218 00:0193: 5F 5F 5F 5F  	db	$5F,$5F,$5F,$5F,$5F,$5F,$00,$50,$72,$6F,
  Thu Dec  3 2020 22:25                                                Page 103


                    $63,$65,$73,$73,$65
       00:0197: 5F 5F 00 50 
       00:019B: 72 6F 63 65 
       00:019F: 73 73 65 
  5219 00:01A2: 73 00 52 65  	db	$73,$00,$52,$65,$66,$72,$65,$73,$68,$20,
                    $44,$65,$73,$6B,$74
       00:01A6: 66 72 65 73 
       00:01AA: 68 20 44 65 
       00:01AE: 73 6B 74 
  5220 00:01B1: 6F 70 00 51  	db	$6F,$70,$00,$51,$75,$69,$74,$20,$74,$6F,
                    $20,$43,$4C,$49,$00
       00:01B5: 75 69 74 20 
       00:01B9: 74 6F 20 43 
       00:01BD: 4C 49 00 
  5221 00:01C0: 45 64 69 74  	db	$45,$64,$69,$74,$00,$43,$6F,$70,$79,$00,
                    $43,$75,$74,$00,$50
       00:01C4: 00 43 6F 70 
       00:01C8: 79 00 43 75 
       00:01CC: 74 00 50 
  5222 00:01CF: 61 73 74 65  	db	$61,$73,$74,$65,$00,$5F,$5F,$5F,$5F,$5F,
                    $5F,$5F,$5F,$5F,$5F
       00:01D3: 00 5F 5F 5F 
       00:01D7: 5F 5F 5F 5F 
       00:01DB: 5F 5F 5F 
  5223 00:01DE: 5F 5F 5F 5F  	db	$5F,$5F,$5F,$5F,$00,$50,$72,$65,$66,$65,
                    $72,$65,$6E,$63,$65
       00:01E2: 00 50 72 65 
       00:01E6: 66 65 72 65 
       00:01EA: 6E 63 65 
  5224 00:01ED: 73 00 44 65  	db	$73,$00,$44,$65,$62,$75,$67,$00,$44,$65,
                    $62,$75,$67,$20,$46
       00:01F1: 62 75 67 00 
       00:01F5: 44 65 62 75 
       00:01F9: 67 20 46 
  5225 00:01FC: 6F 6E 74 73  	db	$6F,$6E,$74,$73,$00,$44,$65,$62,$75,$67,
                    $20,$57,$69,$6E,$64
       00:0200: 00 44 65 62 
       00:0204: 75 67 20 57 
       00:0208: 69 6E 64 
  5226 00:020B: 6F 77 00 44  	db	$6F,$77,$00,$44,$65,$62,$75,$67,$20,$53,
                    $65,$6C,$65,$63,$74
       00:020F: 65 62 75 67 
       00:0213: 20 53 65 6C 
       00:0217: 65 63 74 
  5227 00:021A: 69 6F 6E 00  	db	$69,$6F,$6E,$00,$44,$65,$62,$75,$67,$20,
                    $44,$72,$61,$67,$00
       00:021E: 44 65 62 75 
       00:0222: 67 20 44 72 
       00:0226: 61 67 00 
  5228 00:0229: 44 65 62 75  	db	$44,$65,$62,$75,$67,$20,$52,$75,$62,$62,
                    $65,$72,$62,$61,$6E
       00:022D: 67 20 52 75 
       00:0231: 62 62 65 72 
       00:0235: 62 61 6E 
  5229 00:0238: 64 00 44 65  	db	$64,$00,$44,$65,$62,$75,$67,$20,$50,$6F,
                    $69,$6E,$74,$65,$72
       00:023C: 62 75 67 20 
       00:0240: 50 6F 69 6E 
  Thu Dec  3 2020 22:25                                                Page 104


       00:0244: 74 65 72 
  5230 00:0247: 20 48 6F 75  	db	$20,$48,$6F,$75,$72,$67,$6C,$61,$73,$73,
                    $00,$44,$65,$62,$75
       00:024B: 72 67 6C 61 
       00:024F: 73 73 00 44 
       00:0253: 65 62 75 
  5231 00:0256: 67 20 50 6F  	db	$67,$20,$50,$6F,$69,$6E,$74,$65,$72,$20,
                    $48,$65,$6C,$70,$00
       00:025A: 69 6E 74 65 
       00:025E: 72 20 48 65 
       00:0262: 6C 70 00 
  5232 00:0265: 44 65 62 75  	db	$44,$65,$62,$75,$67,$20,$50,$6F,$69,$6E,
                    $74,$65,$72,$20,$41
       00:0269: 67 20 50 6F 
       00:026D: 69 6E 74 65 
       00:0271: 72 20 41 
  5233 00:0274: 72 72 6F 77  	db	$72,$72,$6F,$77,$00,$44,$65,$62,$75,$67,
                    $20,$50,$6F,$69,$6E
       00:0278: 00 44 65 62 
       00:027C: 75 67 20 50 
       00:0280: 6F 69 6E 
  5234 00:0283: 74 65 72 20  	db	$74,$65,$72,$20,$52,$65,$73,$69,$7A,$65,
                    $00,$41,$62,$6F,$75
       00:0287: 52 65 73 69 
       00:028B: 7A 65 00 41 
       00:028F: 62 6F 75 
  5235 00:0292: 74 00 41 62  	db	$74,$00,$41,$62,$6F,$75,$74,$20,$46,$58,
                    $2F,$4F,$53,$2E,$2E
       00:0296: 6F 75 74 20 
       00:029A: 46 58 2F 4F 
       00:029E: 53 2E 2E 
  5236 00:02A1: 2E 00 5F 5F  	db	$2E,$00,$5F,$5F,$5F,$5F,$5F,$5F,$5F,$5F,
                    $5F,$5F,$5F,$5F,$5F
       00:02A5: 5F 5F 5F 5F 
       00:02A9: 5F 5F 5F 5F 
       00:02AD: 5F 5F 5F 
  5237 00:02B0: 5F 5F 5F 5F  	db	$5F,$5F,$5F,$5F,$00,$54,$65,$78,$74,$62,
                    $6F,$78,$20,$54,$65
       00:02B4: 00 54 65 78 
       00:02B8: 74 62 6F 78 
       00:02BC: 20 54 65 
  5238 00:02BF: 73 74 00 4C  	db	$73,$74,$00,$4C,$69,$73,$74,$62,$6F,$78,
                    $20,$54,$65,$73,$74
       00:02C3: 69 73 74 62 
       00:02C7: 6F 78 20 54 
       00:02CB: 65 73 74 
  5239 00:02CE: 00 44 65 73  	db	$00,$44,$65,$73,$6B,$74,$6F,$70,$57,$69,
                    $6E,$64,$6F,$77,$50
       00:02D2: 6B 74 6F 70 
       00:02D6: 57 69 6E 64 
       00:02DA: 6F 77 50 
  5240 00:02DD: 72 6F 63 3A  	db	$72,$6F,$63,$3A,$3A,$46,$58,$5F,$44,$52,
                    $41,$57,$5F,$57,$49
       00:02E1: 3A 46 58 5F 
       00:02E5: 44 52 41 57 
       00:02E9: 5F 57 49 
  5241 00:02EC: 4E 44 4F 57  	db	$4E,$44,$4F,$57,$0D,$0A,$00,$44,$65,$73,
                    $6B,$74,$6F,$70,$57
  Thu Dec  3 2020 22:25                                                Page 105


       00:02F0: 0D 0A 00 44 
       00:02F4: 65 73 6B 74 
       00:02F8: 6F 70 57 
  5242 00:02FB: 69 6E 64 6F  	db	$69,$6E,$64,$6F,$77,$50,$72,$6F,$63,$3A,
                    $3A,$46,$58,$5F,$43
       00:02FF: 77 50 72 6F 
       00:0303: 63 3A 3A 46 
       00:0307: 58 5F 43 
  5243 00:030A: 4F 4E 54 52  	db	$4F,$4E,$54,$52,$4F,$4C,$5F,$43,$4F,$4D,
                    $4D,$41,$4E,$44,$3A
       00:030E: 4F 4C 5F 43 
       00:0312: 4F 4D 4D 41 
       00:0316: 4E 44 3A 
  5244 00:0319: 00 44 65 73  	db	$00,$44,$65,$73,$6B,$74,$6F,$70,$57,$69,
                    $6E,$64,$6F,$77,$50
       00:031D: 6B 74 6F 70 
       00:0321: 57 69 6E 64 
       00:0325: 6F 77 50 
  5245 00:0328: 72 6F 63 3A  	db	$72,$6F,$63,$3A,$3A,$46,$58,$5F,$53,$43,
                    $52,$4F,$4C,$4C,$42
       00:032C: 3A 46 58 5F 
       00:0330: 53 43 52 4F 
       00:0334: 4C 4C 42 
  5246 00:0337: 41 52 5F 43  	db	$41,$52,$5F,$43,$4F,$4D,$4D,$41,$4E,$44,
                    $3A,$00,$44,$65,$73
       00:033B: 4F 4D 4D 41 
       00:033F: 4E 44 3A 00 
       00:0343: 44 65 73 
  5247 00:0346: 6B 74 6F 70  	db	$6B,$74,$6F,$70,$57,$69,$6E,$64,$6F,$77,
                    $50,$72,$6F,$63,$3A
       00:034A: 57 69 6E 64 
       00:034E: 6F 77 50 72 
       00:0352: 6F 63 3A 
  5248 00:0355: 3A 46 58 5F  	db	$3A,$46,$58,$5F,$53,$43,$52,$4F,$4C,$4C,
                    $42,$41,$52,$5F,$43
       00:0359: 53 43 52 4F 
       00:035D: 4C 4C 42 41 
       00:0361: 52 5F 43 
  5249 00:0364: 4F 4D 4D 41  	db	$4F,$4D,$4D,$41,$4E,$44,$3A,$4C,$4F,$43,
                    $41,$54,$49,$4F,$4E
       00:0368: 4E 44 3A 4C 
       00:036C: 4F 43 41 54 
       00:0370: 49 4F 4E 
  5250 00:0373: 3A 00 44 65  	db	$3A,$00,$44,$65,$73,$6B,$74,$6F,$70,$57,
                    $69,$6E,$64,$6F,$77
       00:0377: 73 6B 74 6F 
       00:037B: 70 57 69 6E 
       00:037F: 64 6F 77 
  5251 00:0382: 50 72 6F 63  	db	$50,$72,$6F,$63,$3A,$3A,$46,$58,$5F,$53,
                    $43,$52,$4F,$4C,$4C
       00:0386: 3A 3A 46 58 
       00:038A: 5F 53 43 52 
       00:038E: 4F 4C 4C 
  5252 00:0391: 42 41 52 5F  	db	$42,$41,$52,$5F,$43,$4F,$4D,$4D,$41,$4E,
                    $44,$3A,$56,$41,$4C
       00:0395: 43 4F 4D 4D 
       00:0399: 41 4E 44 3A 
       00:039D: 56 41 4C 
  Thu Dec  3 2020 22:25                                                Page 106


  5253 00:03A0: 55 45 3A 00  	db	$55,$45,$3A,$00,$54,$45,$58,$54,$42,$4F,
                    $58,$31,$00,$74,$65
       00:03A4: 54 45 58 54 
       00:03A8: 42 4F 58 31 
       00:03AC: 00 74 65 
  5254 00:03AF: 78 74 62 6F  	db	$78,$74,$62,$6F,$78,$57,$69,$6E,$64,$6F,
                    $77,$43,$6C,$61,$73
       00:03B3: 78 57 69 6E 
       00:03B7: 64 6F 77 43 
       00:03BB: 6C 61 73 
  5255 00:03BE: 73 00 54 45  	db	$73,$00,$54,$45,$58,$54,$42,$4F,$58,$31,
                    $00,$54,$45,$58,$54
       00:03C2: 58 54 42 4F 
       00:03C6: 58 31 00 54 
       00:03CA: 45 58 54 
  5256 00:03CD: 42 4F 58 31  	db	$42,$4F,$58,$31,$20,$41,$6C,$72,$65,$61,
                    $64,$79,$20,$4F,$70
       00:03D1: 20 41 6C 72 
       00:03D5: 65 61 64 79 
       00:03D9: 20 4F 70 
  5257 00:03DC: 65 6E 0D 0A  	db	$65,$6E,$0D,$0A,$00,$54,$45,$58,$54,$42,
                    $4F,$58,$32,$00,$74
       00:03E0: 00 54 45 58 
       00:03E4: 54 42 4F 58 
       00:03E8: 32 00 74 
  5258 00:03EB: 65 78 74 62  	db	$65,$78,$74,$62,$6F,$78,$57,$69,$6E,$64,
                    $6F,$77,$43,$6C,$61
       00:03EF: 6F 78 57 69 
       00:03F3: 6E 64 6F 77 
       00:03F7: 43 6C 61 
  5259 00:03FA: 73 73 00 54  	db	$73,$73,$00,$54,$45,$58,$54,$42,$4F,$58,
                    $32,$00,$54,$45,$58
       00:03FE: 45 58 54 42 
       00:0402: 4F 58 32 00 
       00:0406: 54 45 58 
  5260 00:0409: 54 42 4F 58  	db	$54,$42,$4F,$58,$32,$20,$41,$6C,$72,$65,
                    $61,$64,$79,$20,$4F
       00:040D: 32 20 41 6C 
       00:0411: 72 65 61 64 
       00:0415: 79 20 4F 
  5261 00:0418: 70 65 6E 0D  	db	$70,$65,$6E,$0D,$0A,$00,$4C,$49,$53,$54,
                    $42,$4F,$58,$00,$6C
       00:041C: 0A 00 4C 49 
       00:0420: 53 54 42 4F 
       00:0424: 58 00 6C 
  5262 00:0427: 69 73 74 62  	db	$69,$73,$74,$62,$6F,$78,$57,$69,$6E,$64,
                    $6F,$77,$43,$6C,$61
       00:042B: 6F 78 57 69 
       00:042F: 6E 64 6F 77 
       00:0433: 43 6C 61 
  5263 00:0436: 73 73 00 4C  	db	$73,$73,$00,$4C,$49,$53,$54,$42,$4F,$58,
                    $00,$4C,$69,$73,$74
       00:043A: 49 53 54 42 
       00:043E: 4F 58 00 4C 
       00:0442: 69 73 74 
  5264 00:0445: 62 6F 78 20  	db	$62,$6F,$78,$20,$41,$6C,$72,$65,$61,$64,
                    $79,$20,$4F,$70,$65
       00:0449: 41 6C 72 65 
  Thu Dec  3 2020 22:25                                                Page 107


       00:044D: 61 64 79 20 
       00:0451: 4F 70 65 
  5265 00:0454: 6E 0D 0A 00  	db	$6E,$0D,$0A,$00,$41,$62,$6F,$75,$74,$20,
                    $46,$58,$2F,$4F,$53
       00:0458: 41 62 6F 75 
       00:045C: 74 20 46 58 
       00:0460: 2F 4F 53 
  5266 00:0463: 00 61 62 6F  	db	$00,$61,$62,$6F,$75,$74,$44,$69,$61,$6C,
                    $6F,$67,$57,$69,$6E
       00:0467: 75 74 44 69 
       00:046B: 61 6C 6F 67 
       00:046F: 57 69 6E 
  5267 00:0472: 64 6F 77 43  	db	$64,$6F,$77,$43,$6C,$61,$73,$73,$00,$41,
                    $62,$6F,$75,$74,$20
       00:0476: 6C 61 73 73 
       00:047A: 00 41 62 6F 
       00:047E: 75 74 20 
  5268 00:0481: 46 58 2F 4F  	db	$46,$58,$2F,$4F,$53,$00,$44,$69,$61,$6C,
                    $6F,$67,$20,$41,$6C
       00:0485: 53 00 44 69 
       00:0489: 61 6C 6F 67 
       00:048D: 20 41 6C 
  5269 00:0490: 72 65 61 64  	db	$72,$65,$61,$64,$79,$20,$4F,$70,$65,$6E,
                    $0D,$0A,$00,$50,$72
       00:0494: 79 20 4F 70 
       00:0498: 65 6E 0D 0A 
       00:049C: 00 50 72 
  5270 00:049F: 65 66 65 72  	db	$65,$66,$65,$72,$65,$6E,$63,$65,$73,$00,
                    $70,$72,$65,$66,$65
       00:04A3: 65 6E 63 65 
       00:04A7: 73 00 70 72 
       00:04AB: 65 66 65 
  5271 00:04AE: 72 65 6E 63  	db	$72,$65,$6E,$63,$65,$73,$57,$69,$6E,$64,
                    $6F,$77,$43,$6C,$61
       00:04B2: 65 73 57 69 
       00:04B6: 6E 64 6F 77 
       00:04BA: 43 6C 61 
  5272 00:04BD: 73 73 00 50  	db	$73,$73,$00,$50,$72,$65,$66,$65,$72,$65,
                    $6E,$63,$65,$73,$00
       00:04C1: 72 65 66 65 
       00:04C5: 72 65 6E 63 
       00:04C9: 65 73 00 
  5273 00:04CC: 70 72 65 66  	db	$70,$72,$65,$66,$65,$72,$65,$6E,$63,$65,
                    $73,$57,$69,$6E,$64
       00:04D0: 65 72 65 6E 
       00:04D4: 63 65 73 57 
       00:04D8: 69 6E 64 
  5274 00:04DB: 6F 77 43 6C  	db	$6F,$77,$43,$6C,$61,$73,$73,$00,$43,$68,
                    $69,$6C,$64,$31,$00
       00:04DF: 61 73 73 00 
       00:04E3: 43 68 69 6C 
       00:04E7: 64 31 00 
  5275 00:04EA: 70 72 65 66  	db	$70,$72,$65,$66,$65,$72,$65,$6E,$63,$65,
                    $73,$57,$69,$6E,$64
       00:04EE: 65 72 65 6E 
       00:04F2: 63 65 73 57 
       00:04F6: 69 6E 64 
  5276 00:04F9: 6F 77 43 6C  	db	$6F,$77,$43,$6C,$61,$73,$73,$00,$43,$32,
  Thu Dec  3 2020 22:25                                                Page 108


                    $00,$44,$69,$61,$6C
       00:04FD: 61 73 73 00 
       00:0501: 43 32 00 44 
       00:0505: 69 61 6C 
  5277 00:0508: 6F 67 20 41  	db	$6F,$67,$20,$41,$6C,$72,$65,$61,$64,$79,
                    $20,$4F,$70,$65,$6E
       00:050C: 6C 72 65 61 
       00:0510: 64 79 20 4F 
       00:0514: 70 65 6E 
  5278 00:0517: 0D 0A 00 44  	db	$0D,$0A,$00,$44,$45,$53,$4B,$5F,$4D,$45,
                    $4E,$55,$5F,$44,$42
       00:051B: 45 53 4B 5F 
       00:051F: 4D 45 4E 55 
       00:0523: 5F 44 42 
  5279 00:0526: 47 5F 46 4F  	db	$47,$5F,$46,$4F,$4E,$54,$53,$0D,$0A,$00,
                    $44,$45,$53,$4B,$5F
       00:052A: 4E 54 53 0D 
       00:052E: 0A 00 44 45 
       00:0532: 53 4B 5F 
  5280 00:0535: 4D 45 4E 55  	db	$4D,$45,$4E,$55,$5F,$44,$42,$47,$5F,$57,
                    $49,$4E,$44,$4F,$57
       00:0539: 5F 44 42 47 
       00:053D: 5F 57 49 4E 
       00:0541: 44 4F 57 
  5281 00:0544: 0D 0A 00 44  	db	$0D,$0A,$00,$44,$65,$62,$75,$67,$20,$57,
                    $69,$6E,$64,$6F,$77
       00:0548: 65 62 75 67 
       00:054C: 20 57 69 6E 
       00:0550: 64 6F 77 
  5282 00:0553: 00 74 65 73  	db	$00,$74,$65,$73,$74,$57,$69,$6E,$64,$6F,
                    $77,$43,$6C,$61,$73
       00:0557: 74 57 69 6E 
       00:055B: 64 6F 77 43 
       00:055F: 6C 61 73 
  5283 00:0562: 73 00 44 65  	db	$73,$00,$44,$65,$62,$75,$67,$20,$57,$69,
                    $6E,$64,$6F,$77,$00
       00:0566: 62 75 67 20 
       00:056A: 57 69 6E 64 
       00:056E: 6F 77 00 
  5284 00:0571: 44 65 62 75  	db	$44,$65,$62,$75,$67,$20,$57,$69,$6E,$64,
                    $6F,$77,$20,$41,$6C
       00:0575: 67 20 57 69 
       00:0579: 6E 64 6F 77 
       00:057D: 20 41 6C 
  5285 00:0580: 72 65 61 64  	db	$72,$65,$61,$64,$79,$20,$4F,$70,$65,$6E,
                    $0D,$0A,$00,$44,$45
       00:0584: 79 20 4F 70 
       00:0588: 65 6E 0D 0A 
       00:058C: 00 44 45 
  5286 00:058F: 53 4B 5F 4D  	db	$53,$4B,$5F,$4D,$45,$4E,$55,$5F,$44,$42,
                    $47,$5F,$53,$45,$4C
       00:0593: 45 4E 55 5F 
       00:0597: 44 42 47 5F 
       00:059B: 53 45 4C 
  5287 00:059E: 45 43 54 0D  	db	$45,$43,$54,$0D,$0A,$00,$48,$4F,$55,$52,
                    $47,$4C,$41,$53,$53
       00:05A2: 0A 00 48 4F 
       00:05A6: 55 52 47 4C 
  Thu Dec  3 2020 22:25                                                Page 109


       00:05AA: 41 53 53 
  5288 00:05AD: 00 48 45 4C  	db	$00,$48,$45,$4C,$50,$00,$41,$52,$52,$4F,
                    $57,$00,$52,$45,$53
       00:05B1: 50 00 41 52 
       00:05B5: 52 4F 57 00 
       00:05B9: 52 45 53 
  5289 00:05BC: 49 5A 45 00  	db	$49,$5A,$45,$00,$44,$65,$73,$6B,$74,$6F,
                    $70,$57,$69,$6E,$64
       00:05C0: 44 65 73 6B 
       00:05C4: 74 6F 70 57 
       00:05C8: 69 6E 64 
  5290 00:05CB: 6F 77 50 72  	db	$6F,$77,$50,$72,$6F,$63,$3A,$3A,$46,$58,
                    $5F,$4B,$45,$59,$5F
       00:05CF: 6F 63 3A 3A 
       00:05D3: 46 58 5F 4B 
       00:05D7: 45 59 5F 
  5291 00:05DA: 55 50 0D 0A  	db	$55,$50,$0D,$0A,$00,$44,$65,$73,$6B,$74,
                    $6F,$70,$57,$69,$6E
       00:05DE: 00 44 65 73 
       00:05E2: 6B 74 6F 70 
       00:05E6: 57 69 6E 
  5292 00:05E9: 64 6F 77 50  	db	$64,$6F,$77,$50,$72,$6F,$63,$3A,$3A,$46,
                    $58,$5F,$4B,$45,$59
       00:05ED: 72 6F 63 3A 
       00:05F1: 3A 46 58 5F 
       00:05F5: 4B 45 59 
  5293 00:05F8: 5F 44 4F 57  	db	$5F,$44,$4F,$57,$4E,$0D,$0A,$00,$44,$65,
                    $73,$6B,$74,$6F,$70
       00:05FC: 4E 0D 0A 00 
       00:0600: 44 65 73 6B 
       00:0604: 74 6F 70 
  5294 00:0607: 57 69 6E 64  	db	$57,$69,$6E,$64,$6F,$77,$50,$72,$6F,$63,
                    $3A,$3A,$44,$49,$53
       00:060B: 6F 77 50 72 
       00:060F: 6F 63 3A 3A 
       00:0613: 44 49 53 
  5295 00:0616: 4B 2D 49 4E  	db	$4B,$2D,$49,$4E,$53,$45,$52,$54,$3A,$00,
                    $4E,$55,$4C,$4C,$00
       00:061A: 53 45 52 54 
       00:061E: 3A 00 4E 55 
       00:0622: 4C 4C 00 
  5296 00:0625: 0D 0A 00 44  	db	$0D,$0A,$00,$44,$65,$73,$6B,$74,$6F,$70,
                    $57,$69,$6E,$64,$6F
       00:0629: 65 73 6B 74 
       00:062D: 6F 70 57 69 
       00:0631: 6E 64 6F 
  5297 00:0634: 77 50 72 6F  	db	$77,$50,$72,$6F,$63,$3A,$3A,$44,$49,$53,
                    $4B,$2D,$49,$4E,$53
       00:0638: 63 3A 3A 44 
       00:063C: 49 53 4B 2D 
       00:0640: 49 4E 53 
  5298 00:0643: 45 52 54 3A  	db	$45,$52,$54,$3A,$4E,$4F,$2D,$43,$48,$41,
                    $4E,$47,$45,$0D,$0A
       00:0647: 4E 4F 2D 43 
       00:064B: 48 41 4E 47 
       00:064F: 45 0D 0A 
  5299 00:0652: 00 64 69 73  	db	$00,$64,$69,$73,$6B,$00,$69,$63,$6F,$6E,
                    $00,$44,$65,$73,$6B
  Thu Dec  3 2020 22:25                                                Page 110


       00:0656: 6B 00 69 63 
       00:065A: 6F 6E 00 44 
       00:065E: 65 73 6B 
  5300 00:0661: 74 6F 70 57  	db	$74,$6F,$70,$57,$69,$6E,$64,$6F,$77,$50,
                    $72,$6F,$63,$3A,$3A
       00:0665: 69 6E 64 6F 
       00:0669: 77 50 72 6F 
       00:066D: 63 3A 3A 
  5301 00:0670: 44 49 53 4B  	db	$44,$49,$53,$4B,$2D,$49,$4E,$53,$45,$52,
                    $54,$3A,$44,$49,$53
       00:0674: 2D 49 4E 53 
       00:0678: 45 52 54 3A 
       00:067C: 44 49 53 
  5302 00:067F: 4B 3A 00 44  	db	$4B,$3A,$00,$44,$65,$73,$6B,$74,$6F,$70,
                    $57,$69,$6E,$64,$6F
       00:0683: 65 73 6B 74 
       00:0687: 6F 70 57 69 
       00:068B: 6E 64 6F 
  5303 00:068E: 77 50 72 6F  	db	$77,$50,$72,$6F,$63,$3A,$3A,$44,$49,$53,
                    $4B,$2D,$52,$45,$4D
       00:0692: 63 3A 3A 44 
       00:0696: 49 53 4B 2D 
       00:069A: 52 45 4D 
  5304 00:069D: 4F 56 45 0D  	db	$4F,$56,$45,$0D,$0A,$00,$44,$65,$73,$6B,
                    $74,$6F,$70,$57,$69
       00:06A1: 0A 00 44 65 
       00:06A5: 73 6B 74 6F 
       00:06A9: 70 57 69 
  5305 00:06AC: 6E 64 6F 77  	db	$6E,$64,$6F,$77,$50,$72,$6F,$63,$3A,$3A,
                    $44,$49,$53,$4B,$2D
       00:06B0: 50 72 6F 63 
       00:06B4: 3A 3A 44 49 
       00:06B8: 53 4B 2D 
  5306 00:06BB: 52 45 4D 4F  	db	$52,$45,$4D,$4F,$56,$45,$3A,$44,$49,$53,
                    $4B,$3A,$00,$44,$65
       00:06BF: 56 45 3A 44 
       00:06C3: 49 53 4B 3A 
       00:06C7: 00 44 65 
  5307 00:06CA: 73 6B 74 6F  	db	$73,$6B,$74,$6F,$70,$57,$69,$6E,$64,$6F,
                    $77,$50,$72,$6F,$63
       00:06CE: 70 57 69 6E 
       00:06D2: 64 6F 77 50 
       00:06D6: 72 6F 63 
  5308 00:06D9: 3A 3A 44 49  	db	$3A,$3A,$44,$49,$53,$4B,$2D,$52,$45,$4D,
                    $4F,$56,$45,$3A,$62
       00:06DD: 53 4B 2D 52 
       00:06E1: 45 4D 4F 56 
       00:06E5: 45 3A 62 
  5309 00:06E8: 61 63 6B 67  	db	$61,$63,$6B,$67,$72,$6F,$75,$6E,$64,$43,
                    $6F,$6C,$6F,$72,$3A
       00:06EC: 72 6F 75 6E 
       00:06F0: 64 43 6F 6C 
       00:06F4: 6F 72 3A 
  5310 00:06F7: 00 44 65 73  	db	$00,$44,$65,$73,$6B,$74,$6F,$70,$57,$69,
                    $6E,$64,$6F,$77,$50
       00:06FB: 6B 74 6F 70 
       00:06FF: 57 69 6E 64 
       00:0703: 6F 77 50 
  Thu Dec  3 2020 22:25                                                Page 111


  5311 00:0706: 72 6F 63 3A  	db	$72,$6F,$63,$3A,$3A,$46,$58,$5F,$41,$50,
                    $50,$5F,$4D,$45,$53
       00:070A: 3A 46 58 5F 
       00:070E: 41 50 50 5F 
       00:0712: 4D 45 53 
  5312 00:0715: 53 41 47 45  	db	$53,$41,$47,$45,$0D,$0A,$00,$44,$65,$73,
                    $6B,$74,$6F,$70,$57
       00:0719: 0D 0A 00 44 
       00:071D: 65 73 6B 74 
       00:0721: 6F 70 57 
  5313 00:0724: 69 6E 64 6F  	db	$69,$6E,$64,$6F,$77,$50,$72,$6F,$63,$3A,
                    $3A,$46,$58,$5F,$4D
       00:0728: 77 50 72 6F 
       00:072C: 63 3A 3A 46 
       00:0730: 58 5F 4D 
  5314 00:0733: 4F 55 53 45  	db	$4F,$55,$53,$45,$5F,$45,$4E,$54,$45,$52,
                    $3A,$00,$44,$65,$73
       00:0737: 5F 45 4E 54 
       00:073B: 45 52 3A 00 
       00:073F: 44 65 73 
  5315 00:0742: 6B 74 6F 70  	db	$6B,$74,$6F,$70,$57,$69,$6E,$64,$6F,$77,
                    $50,$72,$6F,$63,$3A
       00:0746: 57 69 6E 64 
       00:074A: 6F 77 50 72 
       00:074E: 6F 63 3A 
  5316 00:0751: 3A 46 58 5F  	db	$3A,$46,$58,$5F,$4D,$4F,$55,$53,$45,$5F,
                    $45,$58,$49,$54,$3A
       00:0755: 4D 4F 55 53 
       00:0759: 45 5F 45 58 
       00:075D: 49 54 3A 
  5317 00:0760: 00 44 65 73  	db	$00,$44,$65,$73,$6B,$74,$6F,$70,$57,$69,
                    $6E,$64,$6F,$77,$50
       00:0764: 6B 74 6F 70 
       00:0768: 57 69 6E 64 
       00:076C: 6F 77 50 
  5318 00:076F: 72 6F 63 3A  	db	$72,$6F,$63,$3A,$3A,$46,$58,$5F,$52,$42,
                    $55,$54,$54,$4F,$4E
       00:0773: 3A 46 58 5F 
       00:0777: 52 42 55 54 
       00:077B: 54 4F 4E 
  5319 00:077E: 5F 44 4F 57  	db	$5F,$44,$4F,$57,$4E,$0D,$0A,$00,$44,$65,
                    $73,$6B,$74,$6F,$70
       00:0782: 4E 0D 0A 00 
       00:0786: 44 65 73 6B 
       00:078A: 74 6F 70 
  5320 00:078D: 57 69 6E 64  	db	$57,$69,$6E,$64,$6F,$77,$50,$72,$6F,$63,
                    $3A,$3A,$46,$58,$5F
       00:0791: 6F 77 50 72 
       00:0795: 6F 63 3A 3A 
       00:0799: 46 58 5F 
  5321 00:079C: 4C 42 55 54  	db	$4C,$42,$55,$54,$54,$4F,$4E,$5F,$44,$4F,
                    $57,$4E,$0D,$0A,$00
       00:07A0: 54 4F 4E 5F 
       00:07A4: 44 4F 57 4E 
       00:07A8: 0D 0A 00 
  5322 00:07AB: 44 65 73 6B  	db	$44,$65,$73,$6B,$74,$6F,$70,$57,$69,$6E,
                    $64,$6F,$77,$50,$72
       00:07AF: 74 6F 70 57 
  Thu Dec  3 2020 22:25                                                Page 112


       00:07B3: 69 6E 64 6F 
       00:07B7: 77 50 72 
  5323 00:07BA: 6F 63 3A 3A  	db	$6F,$63,$3A,$3A,$46,$58,$5F,$4C,$42,$55,
                    $54,$54,$4F,$4E,$5F
       00:07BE: 46 58 5F 4C 
       00:07C2: 42 55 54 54 
       00:07C6: 4F 4E 5F 
  5324 00:07C9: 55 50 0D 0A  	db	$55,$50,$0D,$0A,$00,$44,$65,$73,$6B,$74,
                    $6F,$70,$57,$69,$6E
       00:07CD: 00 44 65 73 
       00:07D1: 6B 74 6F 70 
       00:07D5: 57 69 6E 
  5325 00:07D8: 64 6F 77 50  	db	$64,$6F,$77,$50,$72,$6F,$63,$3A,$3A,$44,
                    $45,$42,$55,$47,$5F
       00:07DC: 72 6F 63 3A 
       00:07E0: 3A 44 45 42 
       00:07E4: 55 47 5F 
  5326 00:07E7: 4D 4F 55 53  	db	$4D,$4F,$55,$53,$45,$5F,$42,$4F,$58,$49,
                    $4E,$47,$3A,$00,$44
       00:07EB: 45 5F 42 4F 
       00:07EF: 58 49 4E 47 
       00:07F3: 3A 00 44 
  5327 00:07F6: 65 73 6B 74  	db	$65,$73,$6B,$74,$6F,$70,$57,$69,$6E,$64,
                    $6F,$77,$50,$72,$6F
       00:07FA: 6F 70 57 69 
       00:07FE: 6E 64 6F 77 
       00:0802: 50 72 6F 
  5328 00:0805: 63 3A 3A 46  	db	$63,$3A,$3A,$46,$58,$5F,$4C,$42,$55,$54,
                    $54,$4F,$4E,$5F,$44
       00:0809: 58 5F 4C 42 
       00:080D: 55 54 54 4F 
       00:0811: 4E 5F 44 
  5329 00:0814: 52 41 47 0D  	db	$52,$41,$47,$0D,$0A,$00,$44,$65,$73,$6B,
                    $74,$6F,$70,$57,$69
       00:0818: 0A 00 44 65 
       00:081C: 73 6B 74 6F 
       00:0820: 70 57 69 
  5330 00:0823: 6E 64 6F 77  	db	$6E,$64,$6F,$77,$50,$72,$6F,$63,$3A,$3A,
                    $46,$58,$5F,$4C,$42
       00:0827: 50 72 6F 63 
       00:082B: 3A 3A 46 58 
       00:082F: 5F 4C 42 
  5331 00:0832: 55 54 54 4F  	db	$55,$54,$54,$4F,$4E,$5F,$44,$42,$4C,$43,
                    $4C,$49,$43,$4B,$0D
       00:0836: 4E 5F 44 42 
       00:083A: 4C 43 4C 49 
       00:083E: 43 4B 0D 
  5332 00:0841: 0A 00 44 65  	db	$0A,$00,$44,$65,$73,$6B,$74,$6F,$70,$57,
                    $69,$6E,$64,$6F,$77
       00:0845: 73 6B 74 6F 
       00:0849: 70 57 69 6E 
       00:084D: 64 6F 77 
  5333 00:0850: 50 72 6F 63  	db	$50,$72,$6F,$63,$3A,$3A,$44,$45,$53,$4B,
                    $54,$4F,$50,$20,$48
       00:0854: 3A 3A 44 45 
       00:0858: 53 4B 54 4F 
       00:085C: 50 20 48 
  5334 00:085F: 49 54 4C 49  	db	$49,$54,$4C,$49,$53,$54,$4B,$0D,$0A,$00,
  Thu Dec  3 2020 22:25                                                Page 113


                    $44,$65,$73,$6B,$74
       00:0863: 53 54 4B 0D 
       00:0867: 0A 00 44 65 
       00:086B: 73 6B 74 
  5335 00:086E: 6F 70 57 69  	db	$6F,$70,$57,$69,$6E,$64,$6F,$77,$50,$72,
                    $6F,$63,$3A,$3A,$47
       00:0872: 6E 64 6F 77 
       00:0876: 50 72 6F 63 
       00:087A: 3A 3A 47 
  5336 00:087D: 4C 4F 42 41  	db	$4C,$4F,$42,$41,$4C,$20,$48,$49,$54,$4C,
                    $49,$53,$54,$4B,$0D
       00:0881: 4C 20 48 49 
       00:0885: 54 4C 49 53 
       00:0889: 54 4B 0D 
  5337 00:088C: 0A 00 44 65  	db	$0A,$00,$44,$65,$73,$6B,$74,$6F,$70,$57,
                    $69,$6E,$64,$6F,$77
       00:0890: 73 6B 74 6F 
       00:0894: 70 57 69 6E 
       00:0898: 64 6F 77 
  5338 00:089B: 50 72 6F 63  	db	$50,$72,$6F,$63,$3A,$3A,$46,$58,$5F,$57,
                    $49,$4E,$44,$4F,$57
       00:089F: 3A 3A 46 58 
       00:08A3: 5F 57 49 4E 
       00:08A7: 44 4F 57 
  5339 00:08AA: 5F 54 4F 46  	db	$5F,$54,$4F,$46,$52,$4F,$4E,$54,$0D,$0A,
                    $00,$44,$65,$73,$6B
       00:08AE: 52 4F 4E 54 
       00:08B2: 0D 0A 00 44 
       00:08B6: 65 73 6B 
  5340 00:08B9: 74 6F 70 57  	db	$74,$6F,$70,$57,$69,$6E,$64,$6F,$77,$50,
                    $72,$6F,$63,$3A,$3A
       00:08BD: 69 6E 64 6F 
       00:08C1: 77 50 72 6F 
       00:08C5: 63 3A 3A 
  5341 00:08C8: 46 58 5F 57  	db	$46,$58,$5F,$57,$49,$4E,$44,$4F,$57,$5F,
                    $54,$4F,$42,$41,$43
       00:08CC: 49 4E 44 4F 
       00:08D0: 57 5F 54 4F 
       00:08D4: 42 41 43 
  5342 00:08D7: 4B 0D 0A 00  	db	$4B,$0D,$0A,$00
  5343 00:08DB:              	ends
  5344                        ;
  5345                        ;BOOL testWindowProc(PFXOSMESSAGE pMsg)
  5346                        ;{
  5347                        	.line	880
  5348                        	.line	881
  5349                        	DTOP
  5350                        	xdef	~~testWindowProc
  5351                        	func
  5352                        	.function	881
  5353                        ~~testWindowProc:
  5354                        	longa	on
  5355                        	longi	on
  5356 07:9658: 3B           	tsc
  5357 07:9659: 38           	sec
  5358 07:965A: E9 1A 00     	sbc	#L81
  5359 07:965D: 1B           	tcs
  5360 07:965E: 0B           	phd
  Thu Dec  3 2020 22:25                                                Page 114


  5361 07:965F: 5B           	tcd
  5362             00000004   pMsg_0	set	4
  5363                        	.block	881
  5364                        ;	PFXPROCESS p = NULL;
  5365                        ;	PWINDOW pWin = NULL;
  5366                        ;	INT index = 0;
  5367                        ;	RECT winRect;
  5368                        ;
  5369                        ;	if(pMsg!=NULL)
  5370             00000000   p_1	set	0
  5371             00000004   pWin_1	set	4
  5372             00000008   index_1	set	8
  5373             0000000A   winRect_1	set	10
  5374                        	.sym	p,0,138,1,32,17
  5375                        	.sym	pWin,4,138,1,32,27
  5376                        	.sym	index,8,5,1,16
  5377                        	.sym	winRect,10,10,1,64,22
  5378                        	.sym	pMsg,4,138,6,32,13
  5379 07:9660: 64 09        	stz	<L82+p_1
  5380 07:9662: 64 0B        	stz	<L82+p_1+2
  5381 07:9664: 64 0D        	stz	<L82+pWin_1
  5382 07:9666: 64 0F        	stz	<L82+pWin_1+2
  5383 07:9668: 64 11        	stz	<L82+index_1
  5384                        	.line	887
  5385                        ;	{
  5386 07:966A: A5 1E        	lda	<L81+pMsg_0
  5387 07:966C: 05 20        	ora	<L81+pMsg_0+2
  5388 07:966E: D0 03        	bne	L84
  5389 07:9670: 82 35 02     	brl	L10089
  5390                        L84:
  5391                        	.line	888
  5392                        ;		p = k_exec_get_current_process();
  5393                        	.line	889
  5394 07:9673: 22 xx xx xx  	jsl	~~k_exec_get_current_process
  5395 07:9677: 85 09        	sta	<L82+p_1
  5396 07:9679: 86 0B        	stx	<L82+p_1+2
  5397                        ;
  5398                        ;		//k_debug_long("consoleWindowProc::Proce
                    ssId:",p->procId);
  5399                        ;
  5400                        ;		switch(pMsg->type)
  5401                        	.line	893
  5402 07:967B: A0 08 00     	ldy	#$8
  5403 07:967E: B7 1E        	lda	[<L81+pMsg_0],Y
  5404 07:9680: 82 F1 01     	brl	L10090
  5405                        ;		{
  5406                        	.line	894
  5407                        ;		case FX_CREATE_WINDOW:
  5408                        	.line	895
  5409                        L10092:
  5410                        ;			if(p)
  5411                        	.line	896
  5412                        ;			{
  5413 07:9683: A5 09        	lda	<L82+p_1
  5414 07:9685: 05 0B        	ora	<L82+p_1+2
  5415 07:9687: D0 03        	bne	L85
  5416 07:9689: 82 16 00     	brl	L10093
  5417                        L85:
  Thu Dec  3 2020 22:25                                                Page 115


  5418                        	.line	897
  5419                        ;				k_debug_long("testWindow
                    Proc::FX_CREATE_WINDOW:",p->procId);
  5420                        	.line	898
  5421 07:968C: A0 04 00     	ldy	#$4
  5422 07:968F: B7 09        	lda	[<L82+p_1],Y
  5423 07:9691: 48           	pha
  5424 07:9692: A0 02 00     	ldy	#$2
  5425 07:9695: B7 09        	lda	[<L82+p_1],Y
  5426 07:9697: 48           	pha
  5427 07:9698: F4 xx xx     	pea	#^L80
  5428 07:969B: F4 xx xx     	pea	#<L80
  5429 07:969E: 22 xx xx xx  	jsl	~~k_debug_long
  5430                        ;				//k_debug_integer("testW
                    indowProc::MessageId:",pMsg->type);
  5431                        ;			}
  5432                        	.line	900
  5433                        ;			break;
  5434                        L10093:
  5435                        	.line	901
  5436 07:96A2: 82 03 02     	brl	L10091
  5437                        ;		case FX_DRAW_WINDOW:
  5438                        	.line	902
  5439                        L10094:
  5440                        ;			k_debug_string("testWindowProc::
                    FX_DRAW_WINDOW\r\n");
  5441                        	.line	903
  5442 07:96A5: F4 xx xx     	pea	#^L80+34
  5443 07:96A8: F4 xx xx     	pea	#<L80+34
  5444 07:96AB: 22 xx xx xx  	jsl	~~k_debug_string
  5445                        ;			//k_vdma_fill_rect(100,100,100,5
                    0,4);
  5446                        ;			break;
  5447                        	.line	905
  5448 07:96AF: 82 F6 01     	brl	L10091
  5449                        ;		case FX_MOUSE_MOVE:
  5450                        	.line	906
  5451                        L10095:
  5452                        ;			k_debug_string("testWindowProc::
                    FX_MOUSE_MOVE\r\n");
  5453                        	.line	907
  5454 07:96B2: F4 xx xx     	pea	#^L80+67
  5455 07:96B5: F4 xx xx     	pea	#<L80+67
  5456 07:96B8: 22 xx xx xx  	jsl	~~k_debug_string
  5457                        ;			break;
  5458                        	.line	908
  5459 07:96BC: 82 E9 01     	brl	L10091
  5460                        ;		//case FX_NC_MOUSE_MOVE:
  5461                        ;		//	k_debug_string("testWindowProc::
                    FX_NC_MOUSE_MOVE\r\n");
  5462                        ;		//	break;
  5463                        ;
  5464                        ;		case FX_LBUTTON_DRAG:
  5465                        	.line	913
  5466                        L10096:
  5467                        ;			k_debug_string("testWindowProc::
                    FX_LBUTTON_DRAG\r\n");
  5468                        	.line	914
  Thu Dec  3 2020 22:25                                                Page 116


  5469 07:96BF: F4 xx xx     	pea	#^L80+99
  5470 07:96C2: F4 xx xx     	pea	#<L80+99
  5471 07:96C5: 22 xx xx xx  	jsl	~~k_debug_string
  5472                        ;			break;
  5473                        	.line	915
  5474 07:96C9: 82 DC 01     	brl	L10091
  5475                        ;
  5476                        ;
  5477                        ;		case FX_LBUTTON_DBLCLICK:
  5478                        	.line	918
  5479                        L10097:
  5480                        ;
  5481                        ;			//k_getWindowRect(pMsg->hwnd,&wi
                    nRect);
  5482                        ;			//k_vdma_copy_address_ex((LPVOID
                    )(0x100000 | k_gui_get_pixel_offset(20,20)),(LPVOID)(k_gui_g
                    et_pixel_offset(winRect.x,winRect.y)),winRect.width,winRect.
                    height);
  5483                        ;
  5484                        ;			//k_switch_window_page(pMsg->hwn
                    d,BITMAP_BACK,BITMAP_FRONT,TRUE);
  5485                        ;			//k_switch_window_page(pMsg->hwn
                    d,BITMAP_BACK,BITMAP_FRONT,FALSE);
  5486                        ;
  5487                        ;			pWin = k_getWindowFromHandle(pMs
                    g->hwnd);
  5488                        	.line	926
  5489 07:96CC: A0 0C 00     	ldy	#$c
  5490 07:96CF: B7 1E        	lda	[<L81+pMsg_0],Y
  5491 07:96D1: 48           	pha
  5492 07:96D2: A0 0A 00     	ldy	#$a
  5493 07:96D5: B7 1E        	lda	[<L81+pMsg_0],Y
  5494 07:96D7: 48           	pha
  5495 07:96D8: 22 xx xx xx  	jsl	~~k_getWindowFromHandle
  5496 07:96DC: 85 0D        	sta	<L82+pWin_1
  5497 07:96DE: 86 0F        	stx	<L82+pWin_1+2
  5498                        ;
  5499                        ;			for(index = 0;index<8;index++)
  5500                        	.line	928
  5501 07:96E0: 64 11        	stz	<L82+index_1
  5502                        L10100:
  5503                        ;			{
  5504                        	.line	929
  5505                        ;				k_debug_rect("testWindow
                    Proc::nonclientGadgets:rect:",&pWin->nonclientGadgets[index]
                    .area);
  5506                        	.line	930
  5507 07:96E2: A0 00 00     	ldy	#$0
  5508 07:96E5: A5 11        	lda	<L82+index_1
  5509 07:96E7: 10 01        	bpl	L86
  5510 07:96E9: 88           	dey
  5511                        L86:
  5512 07:96EA: 85 01        	sta	<R0
  5513 07:96EC: 84 03        	sty	<R0+2
  5514 07:96EE: F4 00 00     	pea	#^$b
  5515 07:96F1: F4 0B 00     	pea	#<$b
  5516 07:96F4: D4 03        	pei	<R0+2
  5517 07:96F6: D4 01        	pei	<R0
  Thu Dec  3 2020 22:25                                                Page 117


  5518                        	xref	~~~lmul
  5519 07:96F8: 22 xx xx xx  	jsl	~~~lmul
  5520 07:96FC: 85 01        	sta	<R0
  5521 07:96FE: 86 03        	stx	<R0+2
  5522 07:9700: 18           	clc
  5523 07:9701: A9 20 00     	lda	#$20
  5524 07:9704: 65 01        	adc	<R0
  5525 07:9706: 85 05        	sta	<R1
  5526 07:9708: A9 00 00     	lda	#$0
  5527 07:970B: 65 03        	adc	<R0+2
  5528 07:970D: 85 07        	sta	<R1+2
  5529 07:970F: 18           	clc
  5530 07:9710: A5 0D        	lda	<L82+pWin_1
  5531 07:9712: 65 05        	adc	<R1
  5532 07:9714: 85 01        	sta	<R0
  5533 07:9716: A5 0F        	lda	<L82+pWin_1+2
  5534 07:9718: 65 07        	adc	<R1+2
  5535 07:971A: 85 03        	sta	<R0+2
  5536 07:971C: D4 03        	pei	<R0+2
  5537 07:971E: D4 01        	pei	<R0
  5538 07:9720: F4 xx xx     	pea	#^L80+133
  5539 07:9723: F4 xx xx     	pea	#<L80+133
  5540 07:9726: 22 xx xx xx  	jsl	~~k_debug_rect
  5541                        ;			}
  5542                        	.line	931
  5543                        L10098:
  5544 07:972A: E6 11        	inc	<L82+index_1
  5545 07:972C: 38           	sec
  5546 07:972D: A5 11        	lda	<L82+index_1
  5547 07:972F: E9 08 00     	sbc	#<$8
  5548 07:9732: 70 03        	bvs	L87
  5549 07:9734: 49 00 80     	eor	#$8000
  5550                        L87:
  5551 07:9737: 30 03        	bmi	L88
  5552 07:9739: 82 A6 FF     	brl	L10100
  5553                        L88:
  5554                        L10099:
  5555                        ;
  5556                        ;
  5557                        ;			break;
  5558                        	.line	934
  5559 07:973C: 82 69 01     	brl	L10091
  5560                        ;		case FX_MBUTTON_DOWN:
  5561                        	.line	935
  5562                        L10101:
  5563                        ;			if(pMsg->type!=FX_PROCESS)
  5564                        	.line	936
  5565                        ;			{
  5566 07:973F: A0 08 00     	ldy	#$8
  5567 07:9742: B7 1E        	lda	[<L81+pMsg_0],Y
  5568 07:9744: C9 00 FF     	cmp	#<$ff00
  5569 07:9747: D0 03        	bne	L89
  5570 07:9749: 82 0A 00     	brl	L10102
  5571                        L89:
  5572                        	.line	937
  5573                        ;				//k_debug_integer("conso
                    leWindowProc::ProcessId:",p->procId);
  5574                        ;				k_debug_string("testWind
  Thu Dec  3 2020 22:25                                                Page 118


                    owProc::FX_MBUTTON_DOWN\r\n");
  5575                        	.line	939
  5576 07:974C: F4 xx xx     	pea	#^L80+172
  5577 07:974F: F4 xx xx     	pea	#<L80+172
  5578 07:9752: 22 xx xx xx  	jsl	~~k_debug_string
  5579                        ;			}
  5580                        	.line	940
  5581                        ;
  5582                        ;			break;
  5583                        L10102:
  5584                        	.line	942
  5585 07:9756: 82 4F 01     	brl	L10091
  5586                        ;		case FX_LBUTTON_DOWN:
  5587                        	.line	943
  5588                        L10103:
  5589                        ;			k_debug_string("testWindowProc::
                    FX_LBUTTON_DOWN\r\n");
  5590                        	.line	944
  5591 07:9759: F4 xx xx     	pea	#^L80+206
  5592 07:975C: F4 xx xx     	pea	#<L80+206
  5593 07:975F: 22 xx xx xx  	jsl	~~k_debug_string
  5594                        ;			break;
  5595                        	.line	945
  5596 07:9763: 82 42 01     	brl	L10091
  5597                        ;
  5598                        ;		case FX_LBUTTON_UP:
  5599                        	.line	947
  5600                        L10104:
  5601                        ;			k_debug_string("testWindowProc::
                    FX_LBUTTON_UP\r\n");
  5602                        	.line	948
  5603 07:9766: F4 xx xx     	pea	#^L80+240
  5604 07:9769: F4 xx xx     	pea	#<L80+240
  5605 07:976C: 22 xx xx xx  	jsl	~~k_debug_string
  5606                        ;			break;
  5607                        	.line	949
  5608 07:9770: 82 35 01     	brl	L10091
  5609                        ;			//case FX_NC_LBUTTON_DOWN:
  5610                        ;		//	k_debug_string("testWindowProc::
                    FX_NC_LBUTTON_DOWN\r\n");
  5611                        ;		//	k_event_lock_focus(pMsg->hwnd);
  5612                        ;		//	break;
  5613                        ;		//case FX_RBUTTON_DOWN:
  5614                        ;		//case FX_NC_RBUTTON_DOWN:
  5615                        ;		//	k_debug_string("testWindowProc::
                    FX_RBUTTON_DOWN or FX_NC_RBUTTON_DOWN\r\n");
  5616                        ;		//	k_event_unlock_focus();
  5617                        ;		//	break;
  5618                        ;		case FX_MIN_WINDOW:
  5619                        	.line	959
  5620                        L10105:
  5621                        ;			k_switch_window_page(pMsg->hwnd,
                    BITMAP_BACK,BITMAP_FRONT,TRUE);
  5622                        	.line	960
  5623 07:9773: F4 01 00     	pea	#<$1
  5624 07:9776: F4 00 00     	pea	#<$0
  5625 07:9779: F4 10 00     	pea	#<$10
  5626 07:977C: A0 0C 00     	ldy	#$c
  Thu Dec  3 2020 22:25                                                Page 119


  5627 07:977F: B7 1E        	lda	[<L81+pMsg_0],Y
  5628 07:9781: 48           	pha
  5629 07:9782: A0 0A 00     	ldy	#$a
  5630 07:9785: B7 1E        	lda	[<L81+pMsg_0],Y
  5631 07:9787: 48           	pha
  5632 07:9788: 22 xx xx xx  	jsl	~~k_switch_window_page
  5633                        ;			break;
  5634                        	.line	961
  5635 07:978C: 82 19 01     	brl	L10091
  5636                        ;		case FX_MAX_WINDOW:
  5637                        	.line	962
  5638                        L10106:
  5639                        ;			k_switch_window_page(pMsg->hwnd,
                    BITMAP_FRONT,BITMAP_BACK,FALSE);
  5640                        	.line	963
  5641 07:978F: F4 00 00     	pea	#<$0
  5642 07:9792: F4 10 00     	pea	#<$10
  5643 07:9795: F4 00 00     	pea	#<$0
  5644 07:9798: A0 0C 00     	ldy	#$c
  5645 07:979B: B7 1E        	lda	[<L81+pMsg_0],Y
  5646 07:979D: 48           	pha
  5647 07:979E: A0 0A 00     	ldy	#$a
  5648 07:97A1: B7 1E        	lda	[<L81+pMsg_0],Y
  5649 07:97A3: 48           	pha
  5650 07:97A4: 22 xx xx xx  	jsl	~~k_switch_window_page
  5651                        ;			break;
  5652                        	.line	964
  5653 07:97A8: 82 FD 00     	brl	L10091
  5654                        ;		case FX_WINDOW_CLOSE:
  5655                        	.line	965
  5656                        L10107:
  5657                        ;			pWin = k_getWindowFromHandle(pMs
                    g->hwnd);
  5658                        	.line	966
  5659 07:97AB: A0 0C 00     	ldy	#$c
  5660 07:97AE: B7 1E        	lda	[<L81+pMsg_0],Y
  5661 07:97B0: 48           	pha
  5662 07:97B1: A0 0A 00     	ldy	#$a
  5663 07:97B4: B7 1E        	lda	[<L81+pMsg_0],Y
  5664 07:97B6: 48           	pha
  5665 07:97B7: 22 xx xx xx  	jsl	~~k_getWindowFromHandle
  5666 07:97BB: 85 0D        	sta	<L82+pWin_1
  5667 07:97BD: 86 0F        	stx	<L82+pWin_1+2
  5668                        ;			k_vdma_fill_rect_ex(pWin->win_x,
                    pWin->win_y, pWin->win_width, pWin->win_height,
  5669                        	.line	967
  5670                        ;					            FILL
                    COLOR_TRANSPARENT,BITMAP_FRONT);
  5671 07:97BF: F4 00 00     	pea	#<$0
  5672 07:97C2: F4 00 00     	pea	#<$0
  5673 07:97C5: A0 0E 00     	ldy	#$e
  5674 07:97C8: B7 0D        	lda	[<L82+pWin_1],Y
  5675 07:97CA: 48           	pha
  5676 07:97CB: A0 0C 00     	ldy	#$c
  5677 07:97CE: B7 0D        	lda	[<L82+pWin_1],Y
  5678 07:97D0: 48           	pha
  5679 07:97D1: A0 00 00     	ldy	#$0
  5680 07:97D4: 5A           	phy
  Thu Dec  3 2020 22:25                                                Page 120


  5681 07:97D5: A0 0A 00     	ldy	#$a
  5682 07:97D8: B7 0D        	lda	[<L82+pWin_1],Y
  5683 07:97DA: 7A           	ply
  5684 07:97DB: 2A           	rol	A
  5685 07:97DC: 6A           	ror	A
  5686 07:97DD: 10 01        	bpl	L90
  5687 07:97DF: 88           	dey
  5688                        L90:
  5689 07:97E0: 85 01        	sta	<R0
  5690 07:97E2: 84 03        	sty	<R0+2
  5691 07:97E4: D4 03        	pei	<R0+2
  5692 07:97E6: D4 01        	pei	<R0
  5693 07:97E8: A0 00 00     	ldy	#$0
  5694 07:97EB: 5A           	phy
  5695 07:97EC: A0 08 00     	ldy	#$8
  5696 07:97EF: B7 0D        	lda	[<L82+pWin_1],Y
  5697 07:97F1: 7A           	ply
  5698 07:97F2: 2A           	rol	A
  5699 07:97F3: 6A           	ror	A
  5700 07:97F4: 10 01        	bpl	L91
  5701 07:97F6: 88           	dey
  5702                        L91:
  5703 07:97F7: 85 05        	sta	<R1
  5704 07:97F9: 84 07        	sty	<R1+2
  5705 07:97FB: D4 07        	pei	<R1+2
  5706 07:97FD: D4 05        	pei	<R1
  5707 07:97FF: 22 xx xx xx  	jsl	~~k_vdma_fill_rect_ex
  5708                        ;			k_vdma_fill_rect_ex(pWin->win_x,
                    pWin->win_y, pWin->win_width, pWin->win_height,
  5709                        	.line	969
  5710                        ;							
                    	k_getUIBackgroundColor(),BITMAP_BACK);
  5711 07:9803: F4 10 00     	pea	#<$10
  5712 07:9806: 22 xx xx xx  	jsl	~~k_getUIBackgroundColor
  5713 07:980A: 48           	pha
  5714 07:980B: A0 0E 00     	ldy	#$e
  5715 07:980E: B7 0D        	lda	[<L82+pWin_1],Y
  5716 07:9810: 48           	pha
  5717 07:9811: A0 0C 00     	ldy	#$c
  5718 07:9814: B7 0D        	lda	[<L82+pWin_1],Y
  5719 07:9816: 48           	pha
  5720 07:9817: A0 00 00     	ldy	#$0
  5721 07:981A: 5A           	phy
  5722 07:981B: A0 0A 00     	ldy	#$a
  5723 07:981E: B7 0D        	lda	[<L82+pWin_1],Y
  5724 07:9820: 7A           	ply
  5725 07:9821: 2A           	rol	A
  5726 07:9822: 6A           	ror	A
  5727 07:9823: 10 01        	bpl	L92
  5728 07:9825: 88           	dey
  5729                        L92:
  5730 07:9826: 85 01        	sta	<R0
  5731 07:9828: 84 03        	sty	<R0+2
  5732 07:982A: D4 03        	pei	<R0+2
  5733 07:982C: D4 01        	pei	<R0
  5734 07:982E: A0 00 00     	ldy	#$0
  5735 07:9831: 5A           	phy
  5736 07:9832: A0 08 00     	ldy	#$8
  Thu Dec  3 2020 22:25                                                Page 121


  5737 07:9835: B7 0D        	lda	[<L82+pWin_1],Y
  5738 07:9837: 7A           	ply
  5739 07:9838: 2A           	rol	A
  5740 07:9839: 6A           	ror	A
  5741 07:983A: 10 01        	bpl	L93
  5742 07:983C: 88           	dey
  5743                        L93:
  5744 07:983D: 85 05        	sta	<R1
  5745 07:983F: 84 07        	sty	<R1+2
  5746 07:9841: D4 07        	pei	<R1+2
  5747 07:9843: D4 05        	pei	<R1
  5748 07:9845: 22 xx xx xx  	jsl	~~k_vdma_fill_rect_ex
  5749                        ;			return FALSE;
  5750                        	.line	971
  5751 07:9849: A9 00 00     	lda	#$0
  5752                        L94:
  5753 07:984C: A8           	tay
  5754 07:984D: A5 1C        	lda	<L81+2
  5755 07:984F: 85 20        	sta	<L81+2+4
  5756 07:9851: A5 1B        	lda	<L81+1
  5757 07:9853: 85 1F        	sta	<L81+1+4
  5758 07:9855: 2B           	pld
  5759 07:9856: 3B           	tsc
  5760 07:9857: 18           	clc
  5761 07:9858: 69 1E 00     	adc	#L81+4
  5762 07:985B: 1B           	tcs
  5763 07:985C: 98           	tya
  5764 07:985D: 6B           	rtl
  5765                        ;		default:
  5766                        	.line	972
  5767                        L10108:
  5768                        ;			return DefWindowProc(pMsg);
  5769                        	.line	973
  5770 07:985E: D4 20        	pei	<L81+pMsg_0+2
  5771 07:9860: D4 1E        	pei	<L81+pMsg_0
  5772 07:9862: 22 xx xx xx  	jsl	~~DefWindowProc
  5773 07:9866: E2 20        	sep	#$20
  5774                        	longa	off
  5775 07:9868: 85 01        	sta	<R0
  5776 07:986A: C2 20        	rep	#$20
  5777                        	longa	on
  5778 07:986C: A5 01        	lda	<R0
  5779 07:986E: 29 FF 00     	and	#$ff
  5780 07:9871: 82 D8 FF     	brl	L94
  5781                        ;			break;
  5782                        	.line	974
  5783                        ;		}
  5784                        	.line	975
  5785                        L10090:
  5786                        	xref	~~~swt
  5787 07:9874: 22 xx xx xx  	jsl	~~~swt
  5788 07:9878: 0B 00        	dw	11
  5789 07:987A: 03 0F        	dw	3843
  5790 07:987C: B1 96        	dw	L10095-1
  5791 07:987E: 04 0F        	dw	3844
  5792 07:9880: 58 97        	dw	L10103-1
  5793 07:9882: 05 0F        	dw	3845
  5794 07:9884: BE 96        	dw	L10096-1
  Thu Dec  3 2020 22:25                                                Page 122


  5795 07:9886: 06 0F        	dw	3846
  5796 07:9888: 65 97        	dw	L10104-1
  5797 07:988A: 07 0F        	dw	3847
  5798 07:988C: CB 96        	dw	L10097-1
  5799 07:988E: 0C 0F        	dw	3852
  5800 07:9890: 3E 97        	dw	L10101-1
  5801 07:9892: 00 FB        	dw	64256
  5802 07:9894: A4 96        	dw	L10094-1
  5803 07:9896: 09 FB        	dw	64265
  5804 07:9898: 72 97        	dw	L10105-1
  5805 07:989A: 0A FB        	dw	64266
  5806 07:989C: 8E 97        	dw	L10106-1
  5807 07:989E: FF FB        	dw	64511
  5808 07:98A0: AA 97        	dw	L10107-1
  5809 07:98A2: 03 FF        	dw	65283
  5810 07:98A4: 82 96        	dw	L10092-1
  5811 07:98A6: 5D 98        	dw	L10108-1
  5812                        L10091:
  5813                        ;	}
  5814                        	.line	976
  5815                        ;
  5816                        ;	return TRUE;
  5817                        L10089:
  5818                        	.line	978
  5819 07:98A8: A9 01 00     	lda	#$1
  5820 07:98AB: 82 9E FF     	brl	L94
  5821                        ;}
  5822                        	.line	979
  5823                        	.endblock	979
  5824             0000001A   L81	equ	26
  5825             00000009   L82	equ	9
  5826 07:98AE:              	ends
  5827                        	efunc
  5828                        	.endfunc	979,9,26
  5829                        	.line	979
  5830                        	data
  5831                        L80:
  5832 00:08DB: 74 65 73 74  	db	$74,$65,$73,$74,$57,$69,$6E,$64,$6F,$77,
                    $50,$72,$6F,$63,$3A
       00:08DF: 57 69 6E 64 
       00:08E3: 6F 77 50 72 
       00:08E7: 6F 63 3A 
  5833 00:08EA: 3A 46 58 5F  	db	$3A,$46,$58,$5F,$43,$52,$45,$41,$54,$45,
                    $5F,$57,$49,$4E,$44
       00:08EE: 43 52 45 41 
       00:08F2: 54 45 5F 57 
       00:08F6: 49 4E 44 
  5834 00:08F9: 4F 57 3A 00  	db	$4F,$57,$3A,$00,$74,$65,$73,$74,$57,$69,
                    $6E,$64,$6F,$77,$50
       00:08FD: 74 65 73 74 
       00:0901: 57 69 6E 64 
       00:0905: 6F 77 50 
  5835 00:0908: 72 6F 63 3A  	db	$72,$6F,$63,$3A,$3A,$46,$58,$5F,$44,$52,
                    $41,$57,$5F,$57,$49
       00:090C: 3A 46 58 5F 
       00:0910: 44 52 41 57 
       00:0914: 5F 57 49 
  5836 00:0917: 4E 44 4F 57  	db	$4E,$44,$4F,$57,$0D,$0A,$00,$74,$65,$73,
  Thu Dec  3 2020 22:25                                                Page 123


                    $74,$57,$69,$6E,$64
       00:091B: 0D 0A 00 74 
       00:091F: 65 73 74 57 
       00:0923: 69 6E 64 
  5837 00:0926: 6F 77 50 72  	db	$6F,$77,$50,$72,$6F,$63,$3A,$3A,$46,$58,
                    $5F,$4D,$4F,$55,$53
       00:092A: 6F 63 3A 3A 
       00:092E: 46 58 5F 4D 
       00:0932: 4F 55 53 
  5838 00:0935: 45 5F 4D 4F  	db	$45,$5F,$4D,$4F,$56,$45,$0D,$0A,$00,$74,
                    $65,$73,$74,$57,$69
       00:0939: 56 45 0D 0A 
       00:093D: 00 74 65 73 
       00:0941: 74 57 69 
  5839 00:0944: 6E 64 6F 77  	db	$6E,$64,$6F,$77,$50,$72,$6F,$63,$3A,$3A,
                    $46,$58,$5F,$4C,$42
       00:0948: 50 72 6F 63 
       00:094C: 3A 3A 46 58 
       00:0950: 5F 4C 42 
  5840 00:0953: 55 54 54 4F  	db	$55,$54,$54,$4F,$4E,$5F,$44,$52,$41,$47,
                    $0D,$0A,$00,$74,$65
       00:0957: 4E 5F 44 52 
       00:095B: 41 47 0D 0A 
       00:095F: 00 74 65 
  5841 00:0962: 73 74 57 69  	db	$73,$74,$57,$69,$6E,$64,$6F,$77,$50,$72,
                    $6F,$63,$3A,$3A,$6E
       00:0966: 6E 64 6F 77 
       00:096A: 50 72 6F 63 
       00:096E: 3A 3A 6E 
  5842 00:0971: 6F 6E 63 6C  	db	$6F,$6E,$63,$6C,$69,$65,$6E,$74,$47,$61,
                    $64,$67,$65,$74,$73
       00:0975: 69 65 6E 74 
       00:0979: 47 61 64 67 
       00:097D: 65 74 73 
  5843 00:0980: 3A 72 65 63  	db	$3A,$72,$65,$63,$74,$3A,$00,$74,$65,$73,
                    $74,$57,$69,$6E,$64
       00:0984: 74 3A 00 74 
       00:0988: 65 73 74 57 
       00:098C: 69 6E 64 
  5844 00:098F: 6F 77 50 72  	db	$6F,$77,$50,$72,$6F,$63,$3A,$3A,$46,$58,
                    $5F,$4D,$42,$55,$54
       00:0993: 6F 63 3A 3A 
       00:0997: 46 58 5F 4D 
       00:099B: 42 55 54 
  5845 00:099E: 54 4F 4E 5F  	db	$54,$4F,$4E,$5F,$44,$4F,$57,$4E,$0D,$0A,
                    $00,$74,$65,$73,$74
       00:09A2: 44 4F 57 4E 
       00:09A6: 0D 0A 00 74 
       00:09AA: 65 73 74 
  5846 00:09AD: 57 69 6E 64  	db	$57,$69,$6E,$64,$6F,$77,$50,$72,$6F,$63,
                    $3A,$3A,$46,$58,$5F
       00:09B1: 6F 77 50 72 
       00:09B5: 6F 63 3A 3A 
       00:09B9: 46 58 5F 
  5847 00:09BC: 4C 42 55 54  	db	$4C,$42,$55,$54,$54,$4F,$4E,$5F,$44,$4F,
                    $57,$4E,$0D,$0A,$00
       00:09C0: 54 4F 4E 5F 
       00:09C4: 44 4F 57 4E 
  Thu Dec  3 2020 22:25                                                Page 124


       00:09C8: 0D 0A 00 
  5848 00:09CB: 74 65 73 74  	db	$74,$65,$73,$74,$57,$69,$6E,$64,$6F,$77,
                    $50,$72,$6F,$63,$3A
       00:09CF: 57 69 6E 64 
       00:09D3: 6F 77 50 72 
       00:09D7: 6F 63 3A 
  5849 00:09DA: 3A 46 58 5F  	db	$3A,$46,$58,$5F,$4C,$42,$55,$54,$54,$4F,
                    $4E,$5F,$55,$50,$0D
       00:09DE: 4C 42 55 54 
       00:09E2: 54 4F 4E 5F 
       00:09E6: 55 50 0D 
  5850 00:09E9: 0A 00        	db	$0A,$00
  5851 00:09EB:              	ends
  5852                        ;
  5853                        ;
  5854                        ;BOOL textboxWindowProc(PFXOSMESSAGE pMsg)
  5855                        ;{
  5856                        	.line	982
  5857                        	.line	983
  5858                        	DTOP
  5859                        	xdef	~~textboxWindowProc
  5860                        	func
  5861                        	.function	983
  5862                        ~~textboxWindowProc:
  5863                        	longa	on
  5864                        	longi	on
  5865 07:98AE: 3B           	tsc
  5866 07:98AF: 38           	sec
  5867 07:98B0: E9 3D 00     	sbc	#L96
  5868 07:98B3: 1B           	tcs
  5869 07:98B4: 0B           	phd
  5870 07:98B5: 5B           	tcd
  5871             00000004   pMsg_0	set	4
  5872                        	.block	983
  5873                        ;	UINT i;
  5874                        ;	RECT r;
  5875                        ;	CHAR c;
  5876                        ;	PFXPROCESS p = NULL;
  5877                        ;	PWINDOW pWin = NULL;
  5878                        ;	UCHAR buffer[16];
  5879                        ;	LPCHAR listItem;
  5880                        ;	PTEXTBOX textbox = NULL;
  5881                        ;	HWND hWnd;
  5882                        ;	INT cMenu;
  5883                        ;	LPCSTR pFont;
  5884                        ;
  5885                        ;	if(pMsg!=NULL)
  5886             00000000   i_1	set	0
  5887             00000002   r_1	set	2
  5888             0000000A   c_1	set	10
  5889             0000000B   p_1	set	11
  5890             0000000F   pWin_1	set	15
  5891             00000013   buffer_1	set	19
  5892             00000023   listItem_1	set	35
  5893             00000027   textbox_1	set	39
  5894             0000002B   hWnd_1	set	43
  5895             0000002F   cMenu_1	set	47
  5896             00000031   pFont_1	set	49
  Thu Dec  3 2020 22:25                                                Page 125


  5897                        	.sym	i,0,16,1,16
  5898                        	.sym	r,2,10,1,64,22
  5899                        	.sym	c,10,14,1,8
  5900                        	.sym	p,11,138,1,32,17
  5901                        	.sym	pWin,15,138,1,32,27
  5902                        	.sym	buffer,19,110,1,0,16
  5903                        	.sym	listItem,35,142,1,32
  5904                        	.sym	textbox,39,138,1,32,37
  5905                        	.sym	hWnd,43,129,1,32
  5906                        	.sym	cMenu,47,5,1,16
  5907                        	.sym	pFont,49,142,1,32
  5908                        	.sym	pMsg,4,138,6,32,13
  5909 07:98B6: 64 14        	stz	<L97+p_1
  5910 07:98B8: 64 16        	stz	<L97+p_1+2
  5911 07:98BA: 64 18        	stz	<L97+pWin_1
  5912 07:98BC: 64 1A        	stz	<L97+pWin_1+2
  5913 07:98BE: 64 30        	stz	<L97+textbox_1
  5914 07:98C0: 64 32        	stz	<L97+textbox_1+2
  5915                        	.line	996
  5916                        ;	{
  5917 07:98C2: A5 41        	lda	<L96+pMsg_0
  5918 07:98C4: 05 43        	ora	<L96+pMsg_0+2
  5919 07:98C6: D0 03        	bne	L99
  5920 07:98C8: 82 0A 05     	brl	L10109
  5921                        L99:
  5922                        	.line	997
  5923                        ;		p = k_exec_get_current_process();
  5924                        	.line	998
  5925 07:98CB: 22 xx xx xx  	jsl	~~k_exec_get_current_process
  5926 07:98CF: 85 14        	sta	<L97+p_1
  5927 07:98D1: 86 16        	stx	<L97+p_1+2
  5928                        ;		pWin = k_getWindowFromHandle(pMsg->hwnd)
                    ;
  5929                        	.line	999
  5930 07:98D3: A0 0C 00     	ldy	#$c
  5931 07:98D6: B7 41        	lda	[<L96+pMsg_0],Y
  5932 07:98D8: 48           	pha
  5933 07:98D9: A0 0A 00     	ldy	#$a
  5934 07:98DC: B7 41        	lda	[<L96+pMsg_0],Y
  5935 07:98DE: 48           	pha
  5936 07:98DF: 22 xx xx xx  	jsl	~~k_getWindowFromHandle
  5937 07:98E3: 85 18        	sta	<L97+pWin_1
  5938 07:98E5: 86 1A        	stx	<L97+pWin_1+2
  5939                        ;		hWnd = k_getHandleFromWindow(pWin);
  5940                        	.line	1000
  5941 07:98E7: D4 1A        	pei	<L97+pWin_1+2
  5942 07:98E9: D4 18        	pei	<L97+pWin_1
  5943 07:98EB: 22 xx xx xx  	jsl	~~k_getHandleFromWindow
  5944 07:98EF: 85 34        	sta	<L97+hWnd_1
  5945 07:98F1: 86 36        	stx	<L97+hWnd_1+2
  5946                        ;		textbox = pWin->windowData;
  5947                        	.line	1001
  5948 07:98F3: A0 41 01     	ldy	#$141
  5949 07:98F6: B7 18        	lda	[<L97+pWin_1],Y
  5950 07:98F8: 85 30        	sta	<L97+textbox_1
  5951 07:98FA: A0 43 01     	ldy	#$143
  5952 07:98FD: B7 18        	lda	[<L97+pWin_1],Y
  5953 07:98FF: 85 32        	sta	<L97+textbox_1+2
  Thu Dec  3 2020 22:25                                                Page 126


  5954                        ;		cMenu = k_getUIMenuColor();
  5955                        	.line	1002
  5956 07:9901: 22 xx xx xx  	jsl	~~k_getUIMenuColor
  5957 07:9905: 85 38        	sta	<L97+cMenu_1
  5958                        ;
  5959                        ;
  5960                        ;		switch(pMsg->type)
  5961                        	.line	1005
  5962 07:9907: A0 08 00     	ldy	#$8
  5963 07:990A: B7 41        	lda	[<L96+pMsg_0],Y
  5964 07:990C: 82 A6 04     	brl	L10110
  5965                        ;		{
  5966                        	.line	1006
  5967                        ;		case FX_CREATE_WINDOW:
  5968                        	.line	1007
  5969                        L10112:
  5970                        ;			if(p)
  5971                        	.line	1008
  5972                        ;			{
  5973 07:990F: A5 14        	lda	<L97+p_1
  5974 07:9911: 05 16        	ora	<L97+p_1+2
  5975 07:9913: D0 03        	bne	L100
  5976 07:9915: 82 95 00     	brl	L10113
  5977                        L100:
  5978                        	.line	1009
  5979                        ;				k_debug_long("textboxWin
                    dowProc::FX_CREATE_WINDOW:",p->procId);
  5980                        	.line	1010
  5981 07:9918: A0 04 00     	ldy	#$4
  5982 07:991B: B7 14        	lda	[<L97+p_1],Y
  5983 07:991D: 48           	pha
  5984 07:991E: A0 02 00     	ldy	#$2
  5985 07:9921: B7 14        	lda	[<L97+p_1],Y
  5986 07:9923: 48           	pha
  5987 07:9924: F4 xx xx     	pea	#^L95
  5988 07:9927: F4 xx xx     	pea	#<L95
  5989 07:992A: 22 xx xx xx  	jsl	~~k_debug_long
  5990                        ;				textbox = pWin->windowDa
                    ta = k_mem_allocate_heap(sizeof(TEXTBOX));
  5991                        	.line	1011
  5992 07:992E: F4 12 00     	pea	#<$12
  5993 07:9931: 22 xx xx xx  	jsl	~~k_mem_allocate_heap
  5994 07:9935: 85 01        	sta	<R0
  5995 07:9937: 86 03        	stx	<R0+2
  5996 07:9939: A5 01        	lda	<R0
  5997 07:993B: A0 41 01     	ldy	#$141
  5998 07:993E: 97 18        	sta	[<L97+pWin_1],Y
  5999 07:9940: A5 03        	lda	<R0+2
  6000 07:9942: A0 43 01     	ldy	#$143
  6001 07:9945: 97 18        	sta	[<L97+pWin_1],Y
  6002 07:9947: A5 01        	lda	<R0
  6003 07:9949: 85 30        	sta	<L97+textbox_1
  6004 07:994B: A5 03        	lda	<R0+2
  6005 07:994D: 85 32        	sta	<L97+textbox_1+2
  6006                        ;				memset(textbox,0,sizeof(
                    TEXTBOX));
  6007                        	.line	1012
  6008 07:994F: F4 12 00     	pea	#<$12
  Thu Dec  3 2020 22:25                                                Page 127


  6009 07:9952: F4 00 00     	pea	#<$0
  6010 07:9955: D4 32        	pei	<L97+textbox_1+2
  6011 07:9957: D4 30        	pei	<L97+textbox_1
  6012 07:9959: 22 xx xx xx  	jsl	~~memset
  6013                        ;
  6014                        ;				//textbox->data = textDa
                    ta;
  6015                        ;
  6016                        ;				textbox->data = k_fxstri
                    ng_new(textData,128);
  6017                        	.line	1016
  6018 07:995D: F4 80 00     	pea	#<$80
  6019 07:9960: AD xx xx     	lda	|~~textData+2
  6020 07:9963: 48           	pha
  6021 07:9964: AD xx xx     	lda	|~~textData
  6022 07:9967: 48           	pha
  6023 07:9968: 22 xx xx xx  	jsl	~~k_fxstring_new
  6024 07:996C: 85 01        	sta	<R0
  6025 07:996E: 86 03        	stx	<R0+2
  6026 07:9970: A5 01        	lda	<R0
  6027 07:9972: A0 0E 00     	ldy	#$e
  6028 07:9975: 97 30        	sta	[<L97+textbox_1],Y
  6029 07:9977: A5 03        	lda	<R0+2
  6030 07:9979: A0 10 00     	ldy	#$10
  6031 07:997C: 97 30        	sta	[<L97+textbox_1],Y
  6032                        ;
  6033                        ;				textbox->fontSet = (LPCH
                    AR)k_user_getFontClass("ToshibaLCD8x8");
  6034                        	.line	1018
  6035 07:997E: F4 xx xx     	pea	#^L95+37
  6036 07:9981: F4 xx xx     	pea	#<L95+37
  6037 07:9984: 22 xx xx xx  	jsl	~~k_user_getFontClass
  6038 07:9988: 85 01        	sta	<R0
  6039 07:998A: 86 03        	stx	<R0+2
  6040 07:998C: A5 01        	lda	<R0
  6041 07:998E: A0 0A 00     	ldy	#$a
  6042 07:9991: 97 30        	sta	[<L97+textbox_1],Y
  6043 07:9993: A5 03        	lda	<R0+2
  6044 07:9995: A0 0C 00     	ldy	#$c
  6045 07:9998: 97 30        	sta	[<L97+textbox_1],Y
  6046                        ;				textbox->offsetY = 0;
  6047                        	.line	1019
  6048 07:999A: A9 00 00     	lda	#$0
  6049 07:999D: A0 06 00     	ldy	#$6
  6050 07:99A0: 97 30        	sta	[<L97+textbox_1],Y
  6051                        ;				textbox->cursorState = F
                    ALSE;
  6052                        	.line	1020
  6053 07:99A2: E2 20        	sep	#$20
  6054                        	longa	off
  6055 07:99A4: A9 00        	lda	#$0
  6056 07:99A6: A0 09 00     	ldy	#$9
  6057 07:99A9: 97 30        	sta	[<L97+textbox_1],Y
  6058 07:99AB: C2 20        	rep	#$20
  6059                        	longa	on
  6060                        ;				//k_debug_integer("testW
                    indowProc::MessageId:",pMsg->type);
  6061                        ;			}
  Thu Dec  3 2020 22:25                                                Page 128


  6062                        	.line	1022
  6063                        ;			break;
  6064                        L10113:
  6065                        	.line	1023
  6066 07:99AD: 82 25 04     	brl	L10111
  6067                        ;		case FX_DRAW_WINDOW:
  6068                        	.line	1024
  6069                        L10114:
  6070                        ;			k_debug_string("textboxWindowPro
                    c::FX_DRAW_WINDOW\r\n");
  6071                        	.line	1025
  6072 07:99B0: F4 xx xx     	pea	#^L95+51
  6073 07:99B3: F4 xx xx     	pea	#<L95+51
  6074 07:99B6: 22 xx xx xx  	jsl	~~k_debug_string
  6075                        ;
  6076                        ;			//pFont = (LPCSTR)k_user_getFont
                    Class("ToshibaLCD8x8");
  6077                        ;
  6078                        ;			r.x = 1;
  6079                        	.line	1029
  6080 07:99BA: A9 01 00     	lda	#$1
  6081 07:99BD: 85 0B        	sta	<L97+r_1
  6082                        ;			r.y = 2;
  6083                        	.line	1030
  6084 07:99BF: A9 02 00     	lda	#$2
  6085 07:99C2: 85 0D        	sta	<L97+r_1+2
  6086                        ;
  6087                        ;			k_vdma_fill_rect(pWin->win_x + 2
                    ,
  6088                        	.line	1032
  6089                        ;					         pWin->w
                    in_y + 1,
  6090                        ;							
                     pWin->win_width - (k_user_getSystemMetric(SM_CXBORDER) * 2)
                     - 1,
  6091                        ;							
                     pWin->win_height - 1,
  6092                        ;							
                     k_getUIBackgroundColor()
  6093                        ;							
                     //3
  6094                        ;							
                     );
  6095 07:99C4: 22 xx xx xx  	jsl	~~k_getUIBackgroundColor
  6096 07:99C8: 48           	pha
  6097 07:99C9: 18           	clc
  6098 07:99CA: A9 FF FF     	lda	#$ffff
  6099 07:99CD: A0 0E 00     	ldy	#$e
  6100 07:99D0: 77 18        	adc	[<L97+pWin_1],Y
  6101 07:99D2: 48           	pha
  6102 07:99D3: F4 05 00     	pea	#<$5
  6103 07:99D6: 22 xx xx xx  	jsl	~~k_user_getSystemMetric
  6104 07:99DA: 85 05        	sta	<R1
  6105 07:99DC: A5 05        	lda	<R1
  6106 07:99DE: 0A           	asl	A
  6107 07:99DF: 85 01        	sta	<R0
  6108 07:99E1: 38           	sec
  6109 07:99E2: A0 0C 00     	ldy	#$c
  Thu Dec  3 2020 22:25                                                Page 129


  6110 07:99E5: B7 18        	lda	[<L97+pWin_1],Y
  6111 07:99E7: E5 01        	sbc	<R0
  6112 07:99E9: 85 05        	sta	<R1
  6113 07:99EB: 18           	clc
  6114 07:99EC: A9 FF FF     	lda	#$ffff
  6115 07:99EF: 65 05        	adc	<R1
  6116 07:99F1: 48           	pha
  6117 07:99F2: A0 0A 00     	ldy	#$a
  6118 07:99F5: B7 18        	lda	[<L97+pWin_1],Y
  6119 07:99F7: 1A           	ina
  6120 07:99F8: 85 01        	sta	<R0
  6121 07:99FA: A0 00 00     	ldy	#$0
  6122 07:99FD: A5 01        	lda	<R0
  6123 07:99FF: 10 01        	bpl	L101
  6124 07:9A01: 88           	dey
  6125                        L101:
  6126 07:9A02: 85 01        	sta	<R0
  6127 07:9A04: 84 03        	sty	<R0+2
  6128 07:9A06: D4 03        	pei	<R0+2
  6129 07:9A08: D4 01        	pei	<R0
  6130 07:9A0A: 18           	clc
  6131 07:9A0B: A9 02 00     	lda	#$2
  6132 07:9A0E: A0 08 00     	ldy	#$8
  6133 07:9A11: 77 18        	adc	[<L97+pWin_1],Y
  6134 07:9A13: 85 05        	sta	<R1
  6135 07:9A15: A0 00 00     	ldy	#$0
  6136 07:9A18: A5 05        	lda	<R1
  6137 07:9A1A: 10 01        	bpl	L102
  6138 07:9A1C: 88           	dey
  6139                        L102:
  6140 07:9A1D: 85 05        	sta	<R1
  6141 07:9A1F: 84 07        	sty	<R1+2
  6142 07:9A21: D4 07        	pei	<R1+2
  6143 07:9A23: D4 05        	pei	<R1
  6144 07:9A25: 22 xx xx xx  	jsl	~~k_vdma_fill_rect
  6145                        ;
  6146                        ;			if(textbox)
  6147                        	.line	1040
  6148                        ;			{
  6149 07:9A29: A5 30        	lda	<L97+textbox_1
  6150 07:9A2B: 05 32        	ora	<L97+textbox_1+2
  6151 07:9A2D: D0 03        	bne	L103
  6152 07:9A2F: 82 60 00     	brl	L10115
  6153                        L103:
  6154                        	.line	1041
  6155                        ;				textbox->offsetX = k_use
                    r_DrawWindowTextToPointWithFont(hWnd,
  6156                        	.line	1042
  6157                        ;							
                    					     ((PFXSTRING)textbox
                    ->data)->buffer,
  6158                        ;							
                    						 cMenu,
  6159                        ;							
                    						 &r,
  6160                        ;							
                    						 textbox->fontSe
                    t);
  Thu Dec  3 2020 22:25                                                Page 130


  6161 07:9A32: A0 0C 00     	ldy	#$c
  6162 07:9A35: B7 30        	lda	[<L97+textbox_1],Y
  6163 07:9A37: 48           	pha
  6164 07:9A38: A0 0A 00     	ldy	#$a
  6165 07:9A3B: B7 30        	lda	[<L97+textbox_1],Y
  6166 07:9A3D: 48           	pha
  6167 07:9A3E: F4 00 00     	pea	#0
  6168 07:9A41: 18           	clc
  6169 07:9A42: 7B           	tdc
  6170 07:9A43: 69 0B 00     	adc	#<L97+r_1
  6171 07:9A46: 48           	pha
  6172 07:9A47: D4 38        	pei	<L97+cMenu_1
  6173 07:9A49: A0 0E 00     	ldy	#$e
  6174 07:9A4C: B7 30        	lda	[<L97+textbox_1],Y
  6175 07:9A4E: 85 01        	sta	<R0
  6176 07:9A50: A0 10 00     	ldy	#$10
  6177 07:9A53: B7 30        	lda	[<L97+textbox_1],Y
  6178 07:9A55: 85 03        	sta	<R0+2
  6179 07:9A57: A0 06 00     	ldy	#$6
  6180 07:9A5A: B7 01        	lda	[<R0],Y
  6181 07:9A5C: 48           	pha
  6182 07:9A5D: A0 04 00     	ldy	#$4
  6183 07:9A60: B7 01        	lda	[<R0],Y
  6184 07:9A62: 48           	pha
  6185 07:9A63: D4 36        	pei	<L97+hWnd_1+2
  6186 07:9A65: D4 34        	pei	<L97+hWnd_1
  6187 07:9A67: 22 xx xx xx  	jsl	~~k_user_DrawWindowTextToPointWithFont
  6188 07:9A6B: A0 04 00     	ldy	#$4
  6189 07:9A6E: 97 30        	sta	[<L97+textbox_1],Y
  6190                        ;
  6191                        ;				if(textbox->offsetX == 0
                    )
  6192                        	.line	1048
  6193                        ;					textbox->offsetX
                     = 1;
  6194 07:9A70: A0 04 00     	ldy	#$4
  6195 07:9A73: B7 30        	lda	[<L97+textbox_1],Y
  6196 07:9A75: F0 03        	beq	L104
  6197 07:9A77: 82 08 00     	brl	L10116
  6198                        L104:
  6199                        	.line	1049
  6200 07:9A7A: A9 01 00     	lda	#$1
  6201 07:9A7D: A0 04 00     	ldy	#$4
  6202 07:9A80: 97 30        	sta	[<L97+textbox_1],Y
  6203                        ;
  6204                        ;				k_debug_integer("textbox
                    WindowProc:x:",textbox->offsetX);
  6205                        L10116:
  6206                        	.line	1051
  6207 07:9A82: A0 04 00     	ldy	#$4
  6208 07:9A85: B7 30        	lda	[<L97+textbox_1],Y
  6209 07:9A87: 48           	pha
  6210 07:9A88: F4 xx xx     	pea	#^L95+87
  6211 07:9A8B: F4 xx xx     	pea	#<L95+87
  6212 07:9A8E: 22 xx xx xx  	jsl	~~k_debug_integer
  6213                        ;			//	k_debug_integer("listbox
                    WindowProc:y:",r.y);
  6214                        ;				//k_debug_integer("listb
  Thu Dec  3 2020 22:25                                                Page 131


                    oxWindowProc:w:",r.width);
  6215                        ;				//k_debug_integer("listb
                    oxWindowProc:h:",r.height);
  6216                        ;				//r.y += 10;
  6217                        ;
  6218                        ;				//if(r.y > pWin->win_hei
                    ght)
  6219                        ;				//	break;
  6220                        ;				//k_mem_deallocate_heap(
                    listItem);
  6221                        ;			}
  6222                        	.line	1060
  6223                        ;
  6224                        ;			//k_vdma_fill_rect(100,100,100,5
                    0,4);
  6225                        ;			break;
  6226                        L10115:
  6227                        	.line	1063
  6228 07:9A92: 82 40 03     	brl	L10111
  6229                        ;		case FX_PROCESS_TIMER:
  6230                        	.line	1064
  6231                        L10117:
  6232                        ;			//k_debug_string("preferencesWin
                    dowProc::FX_PROCESS_TIMER\r\n");
  6233                        ;
  6234                        ;			hWnd = k_user_getFocusWindow();
  6235                        	.line	1067
  6236 07:9A95: 22 xx xx xx  	jsl	~~k_user_getFocusWindow
  6237 07:9A99: 85 34        	sta	<L97+hWnd_1
  6238 07:9A9B: 86 36        	stx	<L97+hWnd_1+2
  6239                        ;			if(hWnd)
  6240                        	.line	1068
  6241                        ;			{
  6242 07:9A9D: A5 34        	lda	<L97+hWnd_1
  6243 07:9A9F: 05 36        	ora	<L97+hWnd_1+2
  6244 07:9AA1: D0 03        	bne	L105
  6245 07:9AA3: 82 D6 00     	brl	L10118
  6246                        L105:
  6247                        	.line	1069
  6248                        ;				pWin = k_getWindowFromHa
                    ndle(hWnd);
  6249                        	.line	1070
  6250 07:9AA6: D4 36        	pei	<L97+hWnd_1+2
  6251 07:9AA8: D4 34        	pei	<L97+hWnd_1
  6252 07:9AAA: 22 xx xx xx  	jsl	~~k_getWindowFromHandle
  6253 07:9AAE: 85 18        	sta	<L97+pWin_1
  6254 07:9AB0: 86 1A        	stx	<L97+pWin_1+2
  6255                        ;				//k_debug_strings("textb
                    oxWindowProc:FX_PROCESS_TIMER:pWin->win_class:",(LPSTR)pWin-
                    >win_class_name);
  6256                        ;				if(pWin && (strcmp("text
                    boxWindowClass",pWin->win_class_name) == 0))
  6257                        	.line	1072
  6258                        ;				{
  6259 07:9AB2: A5 18        	lda	<L97+pWin_1
  6260 07:9AB4: 05 1A        	ora	<L97+pWin_1+2
  6261 07:9AB6: D0 03        	bne	L106
  6262 07:9AB8: 82 C1 00     	brl	L10119
  Thu Dec  3 2020 22:25                                                Page 132


  6263                        L106:
  6264 07:9ABB: 18           	clc
  6265 07:9ABC: A9 06 01     	lda	#$106
  6266 07:9ABF: 65 18        	adc	<L97+pWin_1
  6267 07:9AC1: 85 01        	sta	<R0
  6268 07:9AC3: A9 00 00     	lda	#$0
  6269 07:9AC6: 65 1A        	adc	<L97+pWin_1+2
  6270 07:9AC8: 85 03        	sta	<R0+2
  6271 07:9ACA: D4 03        	pei	<R0+2
  6272 07:9ACC: D4 01        	pei	<R0
  6273 07:9ACE: F4 xx xx     	pea	#^L95+108
  6274 07:9AD1: F4 xx xx     	pea	#<L95+108
  6275 07:9AD4: 22 xx xx xx  	jsl	~~strcmp
  6276 07:9AD8: AA           	tax
  6277 07:9AD9: F0 03        	beq	L107
  6278 07:9ADB: 82 9E 00     	brl	L10119
  6279                        L107:
  6280                        	.line	1073
  6281                        ;					textbox = ASTEXT
                    BOX(pWin);
  6282                        	.line	1074
  6283 07:9ADE: A0 41 01     	ldy	#$141
  6284 07:9AE1: B7 18        	lda	[<L97+pWin_1],Y
  6285 07:9AE3: 85 30        	sta	<L97+textbox_1
  6286 07:9AE5: A0 43 01     	ldy	#$143
  6287 07:9AE8: B7 18        	lda	[<L97+pWin_1],Y
  6288 07:9AEA: 85 32        	sta	<L97+textbox_1+2
  6289                        ;
  6290                        ;					textbox->cursorS
                    tate=!textbox->cursorState;
  6291                        	.line	1076
  6292 07:9AEC: 64 01        	stz	<R0
  6293 07:9AEE: A0 09 00     	ldy	#$9
  6294 07:9AF1: B7 30        	lda	[<L97+textbox_1],Y
  6295 07:9AF3: 29 FF 00     	and	#$ff
  6296 07:9AF6: F0 03        	beq	L109
  6297 07:9AF8: 82 02 00     	brl	L108
  6298                        L109:
  6299 07:9AFB: E6 01        	inc	<R0
  6300                        L108:
  6301 07:9AFD: E2 20        	sep	#$20
  6302                        	longa	off
  6303 07:9AFF: A5 01        	lda	<R0
  6304 07:9B01: A0 09 00     	ldy	#$9
  6305 07:9B04: 97 30        	sta	[<L97+textbox_1],Y
  6306 07:9B06: C2 20        	rep	#$20
  6307                        	longa	on
  6308                        ;
  6309                        ;					r.x = textbox->o
                    ffsetX;
  6310                        	.line	1078
  6311 07:9B08: A0 04 00     	ldy	#$4
  6312 07:9B0B: B7 30        	lda	[<L97+textbox_1],Y
  6313 07:9B0D: 85 0B        	sta	<L97+r_1
  6314                        ;					r.y = 1;
  6315                        	.line	1079
  6316 07:9B0F: A9 01 00     	lda	#$1
  6317 07:9B12: 85 0D        	sta	<L97+r_1+2
  Thu Dec  3 2020 22:25                                                Page 133


  6318                        ;
  6319                        ;					//k_debug_intege
                    r("textboxWindowProc:FX_PROCESS_TIMER:name:",pWin->win_title
                    );
  6320                        ;					//k_debug_intege
                    r("textboxWindowProc:FX_PROCESS_TIMER:offsetX:",r.x);
  6321                        ;					//k_debug_intege
                    r("textboxWindowProc:FX_PROCESS_TIMER:cursorState:",textbox-
                    >cursorState);
  6322                        ;
  6323                        ;					if(textbox->curs
                    orState)
  6324                        	.line	1085
  6325                        ;						k_user_D
                    rawWindowTextToPointWithFont(hWnd,"\xAF",k_getUIBackgroundCo
                    lor(),&r,(LPCSTR)k_user_getFontClass("FXOS8x8"));
  6326 07:9B14: A0 09 00     	ldy	#$9
  6327 07:9B17: B7 30        	lda	[<L97+textbox_1],Y
  6328 07:9B19: 29 FF 00     	and	#$ff
  6329 07:9B1C: D0 03        	bne	L110
  6330 07:9B1E: 82 2F 00     	brl	L10120
  6331                        L110:
  6332                        	.line	1086
  6333 07:9B21: F4 xx xx     	pea	#^L95+129
  6334 07:9B24: F4 xx xx     	pea	#<L95+129
  6335 07:9B27: 22 xx xx xx  	jsl	~~k_user_getFontClass
  6336 07:9B2B: 85 01        	sta	<R0
  6337 07:9B2D: 86 03        	stx	<R0+2
  6338 07:9B2F: DA           	phx
  6339 07:9B30: 48           	pha
  6340 07:9B31: F4 00 00     	pea	#0
  6341 07:9B34: 18           	clc
  6342 07:9B35: 7B           	tdc
  6343 07:9B36: 69 0B 00     	adc	#<L97+r_1
  6344 07:9B39: 48           	pha
  6345 07:9B3A: 22 xx xx xx  	jsl	~~k_getUIBackgroundColor
  6346 07:9B3E: 48           	pha
  6347 07:9B3F: F4 xx xx     	pea	#^L95+127
  6348 07:9B42: F4 xx xx     	pea	#<L95+127
  6349 07:9B45: D4 36        	pei	<L97+hWnd_1+2
  6350 07:9B47: D4 34        	pei	<L97+hWnd_1
  6351 07:9B49: 22 xx xx xx  	jsl	~~k_user_DrawWindowTextToPointWithFont
  6352                        ;					else
  6353 07:9B4D: 82 2C 00     	brl	L10121
  6354                        L10120:
  6355                        ;						k_user_D
                    rawWindowTextToPointWithFont(hWnd,"\xAE",k_getUIMenuColor(),
                    &r,(LPCSTR)k_user_getFontClass("FXOS8x8"));
  6356                        	.line	1088
  6357 07:9B50: F4 xx xx     	pea	#^L95+139
  6358 07:9B53: F4 xx xx     	pea	#<L95+139
  6359 07:9B56: 22 xx xx xx  	jsl	~~k_user_getFontClass
  6360 07:9B5A: 85 01        	sta	<R0
  6361 07:9B5C: 86 03        	stx	<R0+2
  6362 07:9B5E: DA           	phx
  6363 07:9B5F: 48           	pha
  6364 07:9B60: F4 00 00     	pea	#0
  6365 07:9B63: 18           	clc
  Thu Dec  3 2020 22:25                                                Page 134


  6366 07:9B64: 7B           	tdc
  6367 07:9B65: 69 0B 00     	adc	#<L97+r_1
  6368 07:9B68: 48           	pha
  6369 07:9B69: 22 xx xx xx  	jsl	~~k_getUIMenuColor
  6370 07:9B6D: 48           	pha
  6371 07:9B6E: F4 xx xx     	pea	#^L95+137
  6372 07:9B71: F4 xx xx     	pea	#<L95+137
  6373 07:9B74: D4 36        	pei	<L97+hWnd_1+2
  6374 07:9B76: D4 34        	pei	<L97+hWnd_1
  6375 07:9B78: 22 xx xx xx  	jsl	~~k_user_DrawWindowTextToPointWithFont
  6376                        L10121:
  6377                        ;
  6378                        ;				}
  6379                        	.line	1090
  6380                        ;			}
  6381                        L10119:
  6382                        	.line	1091
  6383                        ;
  6384                        ;			break;
  6385                        L10118:
  6386                        	.line	1093
  6387 07:9B7C: 82 56 02     	brl	L10111
  6388                        ;
  6389                        ;
  6390                        ;		case FX_KEY_UP:
  6391                        	.line	1096
  6392                        L10122:
  6393                        ;
  6394                        ;			if(pMsg->data[0] == 182 || pMsg-
                    >data[0] == 170)
  6395                        	.line	1098
  6396                        ;			{
  6397 07:9B7F: E2 20        	sep	#$20
  6398                        	longa	off
  6399 07:9B81: A0 16 00     	ldy	#$16
  6400 07:9B84: B7 41        	lda	[<L96+pMsg_0],Y
  6401 07:9B86: C9 B6        	cmp	#<$b6
  6402 07:9B88: C2 20        	rep	#$20
  6403                        	longa	on
  6404 07:9B8A: D0 03        	bne	L112
  6405 07:9B8C: 82 10 00     	brl	L111
  6406                        L112:
  6407 07:9B8F: E2 20        	sep	#$20
  6408                        	longa	off
  6409 07:9B91: A0 16 00     	ldy	#$16
  6410 07:9B94: B7 41        	lda	[<L96+pMsg_0],Y
  6411 07:9B96: C9 AA        	cmp	#<$aa
  6412 07:9B98: C2 20        	rep	#$20
  6413                        	longa	on
  6414 07:9B9A: F0 03        	beq	L113
  6415 07:9B9C: 82 1E 00     	brl	L10123
  6416                        L113:
  6417                        L111:
  6418                        	.line	1099
  6419                        ;				textbox->isShifted = FAL
                    SE;
  6420                        	.line	1100
  6421 07:9B9F: E2 20        	sep	#$20
  Thu Dec  3 2020 22:25                                                Page 135


  6422                        	longa	off
  6423 07:9BA1: A9 00        	lda	#$0
  6424 07:9BA3: A0 08 00     	ldy	#$8
  6425 07:9BA6: 97 30        	sta	[<L97+textbox_1],Y
  6426 07:9BA8: C2 20        	rep	#$20
  6427                        	longa	on
  6428                        ;				k_debug_integer("textbox
                    WindowProc::FX_KEY_DOWN:isShifted",textbox->isShifted);
  6429                        	.line	1101
  6430 07:9BAA: A0 08 00     	ldy	#$8
  6431 07:9BAD: B7 30        	lda	[<L97+textbox_1],Y
  6432 07:9BAF: 29 FF 00     	and	#$ff
  6433 07:9BB2: 48           	pha
  6434 07:9BB3: F4 xx xx     	pea	#^L95+147
  6435 07:9BB6: F4 xx xx     	pea	#<L95+147
  6436 07:9BB9: 22 xx xx xx  	jsl	~~k_debug_integer
  6437                        ;			}
  6438                        	.line	1102
  6439                        ;
  6440                        ;			break;
  6441                        L10123:
  6442                        	.line	1104
  6443 07:9BBD: 82 15 02     	brl	L10111
  6444                        ;		case FX_KEY_DOWN:
  6445                        	.line	1105
  6446                        L10124:
  6447                        ;
  6448                        ;			k_debug_integer("textboxWindowPr
                    oc::FX_KEY_DOWN:",pMsg->data[0]);
  6449                        	.line	1107
  6450 07:9BC0: A0 16 00     	ldy	#$16
  6451 07:9BC3: B7 41        	lda	[<L96+pMsg_0],Y
  6452 07:9BC5: 29 FF 00     	and	#$ff
  6453 07:9BC8: 48           	pha
  6454 07:9BC9: F4 xx xx     	pea	#^L95+188
  6455 07:9BCC: F4 xx xx     	pea	#<L95+188
  6456 07:9BCF: 22 xx xx xx  	jsl	~~k_debug_integer
  6457                        ;
  6458                        ;			if(pMsg->data[0] == 54 || pMsg->
                    data[0] == 42)
  6459                        	.line	1109
  6460                        ;			{
  6461 07:9BD3: E2 20        	sep	#$20
  6462                        	longa	off
  6463 07:9BD5: A0 16 00     	ldy	#$16
  6464 07:9BD8: B7 41        	lda	[<L96+pMsg_0],Y
  6465 07:9BDA: C9 36        	cmp	#<$36
  6466 07:9BDC: C2 20        	rep	#$20
  6467                        	longa	on
  6468 07:9BDE: D0 03        	bne	L115
  6469 07:9BE0: 82 10 00     	brl	L114
  6470                        L115:
  6471 07:9BE3: E2 20        	sep	#$20
  6472                        	longa	off
  6473 07:9BE5: A0 16 00     	ldy	#$16
  6474 07:9BE8: B7 41        	lda	[<L96+pMsg_0],Y
  6475 07:9BEA: C9 2A        	cmp	#<$2a
  6476 07:9BEC: C2 20        	rep	#$20
  Thu Dec  3 2020 22:25                                                Page 136


  6477                        	longa	on
  6478 07:9BEE: F0 03        	beq	L116
  6479 07:9BF0: 82 21 00     	brl	L10125
  6480                        L116:
  6481                        L114:
  6482                        	.line	1110
  6483                        ;				textbox->isShifted = TRU
                    E;
  6484                        	.line	1111
  6485 07:9BF3: E2 20        	sep	#$20
  6486                        	longa	off
  6487 07:9BF5: A9 01        	lda	#$1
  6488 07:9BF7: A0 08 00     	ldy	#$8
  6489 07:9BFA: 97 30        	sta	[<L97+textbox_1],Y
  6490 07:9BFC: C2 20        	rep	#$20
  6491                        	longa	on
  6492                        ;				k_debug_integer("textbox
                    WindowProc::FX_KEY_DOWN:isShifted",textbox->isShifted);
  6493                        	.line	1112
  6494 07:9BFE: A0 08 00     	ldy	#$8
  6495 07:9C01: B7 30        	lda	[<L97+textbox_1],Y
  6496 07:9C03: 29 FF 00     	and	#$ff
  6497 07:9C06: 48           	pha
  6498 07:9C07: F4 xx xx     	pea	#^L95+220
  6499 07:9C0A: F4 xx xx     	pea	#<L95+220
  6500 07:9C0D: 22 xx xx xx  	jsl	~~k_debug_integer
  6501                        ;			}
  6502                        	.line	1113
  6503                        ;			else if(pMsg->data[0] == 80)
  6504 07:9C11: 82 5F 01     	brl	L10126
  6505                        L10125:
  6506                        	.line	1114
  6507                        ;			{
  6508 07:9C14: E2 20        	sep	#$20
  6509                        	longa	off
  6510 07:9C16: A0 16 00     	ldy	#$16
  6511 07:9C19: B7 41        	lda	[<L96+pMsg_0],Y
  6512 07:9C1B: C9 50        	cmp	#<$50
  6513 07:9C1D: C2 20        	rep	#$20
  6514                        	longa	on
  6515 07:9C1F: F0 03        	beq	L117
  6516 07:9C21: 82 3B 00     	brl	L10127
  6517                        L117:
  6518                        	.line	1115
  6519                        ;				textbox->pos++;
  6520                        	.line	1116
  6521 07:9C24: A7 30        	lda	[<L97+textbox_1]
  6522 07:9C26: 1A           	ina
  6523 07:9C27: 87 30        	sta	[<L97+textbox_1]
  6524                        ;				if(textbox->pos > 29)
  6525                        	.line	1117
  6526                        ;					textbox->pos = 2
                    9;
  6527 07:9C29: 38           	sec
  6528 07:9C2A: A9 1D 00     	lda	#$1d
  6529 07:9C2D: E7 30        	sbc	[<L97+textbox_1]
  6530 07:9C2F: 70 03        	bvs	L118
  6531 07:9C31: 49 00 80     	eor	#$8000
  Thu Dec  3 2020 22:25                                                Page 137


  6532                        L118:
  6533 07:9C34: 10 03        	bpl	L119
  6534 07:9C36: 82 05 00     	brl	L10128
  6535                        L119:
  6536                        	.line	1118
  6537 07:9C39: A9 1D 00     	lda	#$1d
  6538 07:9C3C: 87 30        	sta	[<L97+textbox_1]
  6539                        ;				k_send_window_message(k_
                    getHandleFromWindow(pWin),FX_DRAW_WINDOW,0,0);
  6540                        L10128:
  6541                        	.line	1119
  6542 07:9C3E: F4 00 00     	pea	#<$0
  6543 07:9C41: F4 00 00     	pea	#^$0
  6544 07:9C44: F4 00 00     	pea	#<$0
  6545 07:9C47: F4 00 FB     	pea	#<$fb00
  6546 07:9C4A: D4 1A        	pei	<L97+pWin_1+2
  6547 07:9C4C: D4 18        	pei	<L97+pWin_1
  6548 07:9C4E: 22 xx xx xx  	jsl	~~k_getHandleFromWindow
  6549 07:9C52: 85 01        	sta	<R0
  6550 07:9C54: 86 03        	stx	<R0+2
  6551 07:9C56: DA           	phx
  6552 07:9C57: 48           	pha
  6553 07:9C58: 22 xx xx xx  	jsl	~~k_send_window_message
  6554                        ;			}
  6555                        	.line	1120
  6556                        ;			else if(pMsg->data[0] == 72)
  6557 07:9C5C: 82 14 01     	brl	L10129
  6558                        L10127:
  6559                        	.line	1121
  6560                        ;			{
  6561 07:9C5F: E2 20        	sep	#$20
  6562                        	longa	off
  6563 07:9C61: A0 16 00     	ldy	#$16
  6564 07:9C64: B7 41        	lda	[<L96+pMsg_0],Y
  6565 07:9C66: C9 48        	cmp	#<$48
  6566 07:9C68: C2 20        	rep	#$20
  6567                        	longa	on
  6568 07:9C6A: F0 03        	beq	L120
  6569 07:9C6C: 82 35 00     	brl	L10130
  6570                        L120:
  6571                        	.line	1122
  6572                        ;				textbox->pos--;
  6573                        	.line	1123
  6574 07:9C6F: 18           	clc
  6575 07:9C70: A9 FF FF     	lda	#$ffff
  6576 07:9C73: 67 30        	adc	[<L97+textbox_1]
  6577 07:9C75: 87 30        	sta	[<L97+textbox_1]
  6578                        ;				if(textbox->pos < 0)
  6579                        	.line	1124
  6580                        ;					textbox->pos = 0
                    ;
  6581 07:9C77: A7 30        	lda	[<L97+textbox_1]
  6582 07:9C79: 30 03        	bmi	L121
  6583 07:9C7B: 82 05 00     	brl	L10131
  6584                        L121:
  6585                        	.line	1125
  6586 07:9C7E: A9 00 00     	lda	#$0
  6587 07:9C81: 87 30        	sta	[<L97+textbox_1]
  Thu Dec  3 2020 22:25                                                Page 138


  6588                        ;				k_send_window_message(k_
                    getHandleFromWindow(pWin),FX_DRAW_WINDOW,0,0);
  6589                        L10131:
  6590                        	.line	1126
  6591 07:9C83: F4 00 00     	pea	#<$0
  6592 07:9C86: F4 00 00     	pea	#^$0
  6593 07:9C89: F4 00 00     	pea	#<$0
  6594 07:9C8C: F4 00 FB     	pea	#<$fb00
  6595 07:9C8F: D4 1A        	pei	<L97+pWin_1+2
  6596 07:9C91: D4 18        	pei	<L97+pWin_1
  6597 07:9C93: 22 xx xx xx  	jsl	~~k_getHandleFromWindow
  6598 07:9C97: 85 01        	sta	<R0
  6599 07:9C99: 86 03        	stx	<R0+2
  6600 07:9C9B: DA           	phx
  6601 07:9C9C: 48           	pha
  6602 07:9C9D: 22 xx xx xx  	jsl	~~k_send_window_message
  6603                        ;			}
  6604                        	.line	1127
  6605                        ;			else if(pMsg->data[0] == 14)
  6606 07:9CA1: 82 CF 00     	brl	L10132
  6607                        L10130:
  6608                        	.line	1128
  6609                        ;			{
  6610 07:9CA4: E2 20        	sep	#$20
  6611                        	longa	off
  6612 07:9CA6: A0 16 00     	ldy	#$16
  6613 07:9CA9: B7 41        	lda	[<L96+pMsg_0],Y
  6614 07:9CAB: C9 0E        	cmp	#<$e
  6615 07:9CAD: C2 20        	rep	#$20
  6616                        	longa	on
  6617 07:9CAF: F0 03        	beq	L122
  6618 07:9CB1: 82 47 00     	brl	L10133
  6619                        L122:
  6620                        	.line	1129
  6621                        ;				c = k_fxstring_removecha
                    r(textbox->data);
  6622                        	.line	1130
  6623 07:9CB4: A0 10 00     	ldy	#$10
  6624 07:9CB7: B7 30        	lda	[<L97+textbox_1],Y
  6625 07:9CB9: 48           	pha
  6626 07:9CBA: A0 0E 00     	ldy	#$e
  6627 07:9CBD: B7 30        	lda	[<L97+textbox_1],Y
  6628 07:9CBF: 48           	pha
  6629 07:9CC0: 22 xx xx xx  	jsl	~~k_fxstring_removechar
  6630 07:9CC4: E2 20        	sep	#$20
  6631                        	longa	off
  6632 07:9CC6: 85 13        	sta	<L97+c_1
  6633 07:9CC8: C2 20        	rep	#$20
  6634                        	longa	on
  6635                        ;
  6636                        ;				k_debug_integer("textbox
                    WindowProc::FX_KEY_DOWN:BACKSPACE:",c);
  6637                        	.line	1132
  6638 07:9CCA: A5 13        	lda	<L97+c_1
  6639 07:9CCC: 29 FF 00     	and	#$ff
  6640 07:9CCF: 48           	pha
  6641 07:9CD0: F4 xx xx     	pea	#^L95+261
  6642 07:9CD3: F4 xx xx     	pea	#<L95+261
  Thu Dec  3 2020 22:25                                                Page 139


  6643 07:9CD6: 22 xx xx xx  	jsl	~~k_debug_integer
  6644                        ;
  6645                        ;				k_send_window_message(k_
                    getHandleFromWindow(pWin),FX_DRAW_WINDOW,0,0);
  6646                        	.line	1134
  6647 07:9CDA: F4 00 00     	pea	#<$0
  6648 07:9CDD: F4 00 00     	pea	#^$0
  6649 07:9CE0: F4 00 00     	pea	#<$0
  6650 07:9CE3: F4 00 FB     	pea	#<$fb00
  6651 07:9CE6: D4 1A        	pei	<L97+pWin_1+2
  6652 07:9CE8: D4 18        	pei	<L97+pWin_1
  6653 07:9CEA: 22 xx xx xx  	jsl	~~k_getHandleFromWindow
  6654 07:9CEE: 85 01        	sta	<R0
  6655 07:9CF0: 86 03        	stx	<R0+2
  6656 07:9CF2: DA           	phx
  6657 07:9CF3: 48           	pha
  6658 07:9CF4: 22 xx xx xx  	jsl	~~k_send_window_message
  6659                        ;			}
  6660                        	.line	1135
  6661                        ;			else
  6662 07:9CF8: 82 78 00     	brl	L10134
  6663                        L10133:
  6664                        ;			{
  6665                        	.line	1137
  6666                        ;				c = k_getKeyboardChar(pM
                    sg->data[0],pMsg->data[1],textbox->isShifted);
  6667                        	.line	1138
  6668 07:9CFB: A0 08 00     	ldy	#$8
  6669 07:9CFE: B7 30        	lda	[<L97+textbox_1],Y
  6670 07:9D00: 29 FF 00     	and	#$ff
  6671 07:9D03: 48           	pha
  6672 07:9D04: A0 17 00     	ldy	#$17
  6673 07:9D07: B7 41        	lda	[<L96+pMsg_0],Y
  6674 07:9D09: 29 FF 00     	and	#$ff
  6675 07:9D0C: 48           	pha
  6676 07:9D0D: A0 16 00     	ldy	#$16
  6677 07:9D10: B7 41        	lda	[<L96+pMsg_0],Y
  6678 07:9D12: 48           	pha
  6679 07:9D13: 22 xx xx xx  	jsl	~~k_getKeyboardChar
  6680 07:9D17: E2 20        	sep	#$20
  6681                        	longa	off
  6682 07:9D19: 85 13        	sta	<L97+c_1
  6683 07:9D1B: C2 20        	rep	#$20
  6684                        	longa	on
  6685                        ;
  6686                        ;				k_debug_char("textboxWin
                    dowProc::FX_KEY_DOWN:",pMsg->data[2]);
  6687                        	.line	1140
  6688 07:9D1D: A0 18 00     	ldy	#$18
  6689 07:9D20: B7 41        	lda	[<L96+pMsg_0],Y
  6690 07:9D22: 48           	pha
  6691 07:9D23: F4 xx xx     	pea	#^L95+303
  6692 07:9D26: F4 xx xx     	pea	#<L95+303
  6693 07:9D29: 22 xx xx xx  	jsl	~~k_debug_char
  6694                        ;				k_debug_char("textboxWin
                    dowProc::FX_KEY_DOWN:KEYCODE:",c);
  6695                        	.line	1141
  6696 07:9D2D: D4 13        	pei	<L97+c_1
  Thu Dec  3 2020 22:25                                                Page 140


  6697 07:9D2F: F4 xx xx     	pea	#^L95+335
  6698 07:9D32: F4 xx xx     	pea	#<L95+335
  6699 07:9D35: 22 xx xx xx  	jsl	~~k_debug_char
  6700                        ;
  6701                        ;
  6702                        ;
  6703                        ;				//k_fxstring_addchar(tex
                    tbox->data, pMsg->data[2]);
  6704                        ;				if(c)
  6705                        	.line	1146
  6706                        ;					k_fxstring_addch
                    ar(textbox->data,c);
  6707 07:9D39: A5 13        	lda	<L97+c_1
  6708 07:9D3B: 29 FF 00     	and	#$ff
  6709 07:9D3E: D0 03        	bne	L123
  6710 07:9D40: 82 12 00     	brl	L10135
  6711                        L123:
  6712                        	.line	1147
  6713 07:9D43: D4 13        	pei	<L97+c_1
  6714 07:9D45: A0 10 00     	ldy	#$10
  6715 07:9D48: B7 30        	lda	[<L97+textbox_1],Y
  6716 07:9D4A: 48           	pha
  6717 07:9D4B: A0 0E 00     	ldy	#$e
  6718 07:9D4E: B7 30        	lda	[<L97+textbox_1],Y
  6719 07:9D50: 48           	pha
  6720 07:9D51: 22 xx xx xx  	jsl	~~k_fxstring_addchar
  6721                        ;
  6722                        ;				k_send_window_message(k_
                    getHandleFromWindow(pWin),FX_DRAW_WINDOW,0,0);
  6723                        L10135:
  6724                        	.line	1149
  6725 07:9D55: F4 00 00     	pea	#<$0
  6726 07:9D58: F4 00 00     	pea	#^$0
  6727 07:9D5B: F4 00 00     	pea	#<$0
  6728 07:9D5E: F4 00 FB     	pea	#<$fb00
  6729 07:9D61: D4 1A        	pei	<L97+pWin_1+2
  6730 07:9D63: D4 18        	pei	<L97+pWin_1
  6731 07:9D65: 22 xx xx xx  	jsl	~~k_getHandleFromWindow
  6732 07:9D69: 85 01        	sta	<R0
  6733 07:9D6B: 86 03        	stx	<R0+2
  6734 07:9D6D: DA           	phx
  6735 07:9D6E: 48           	pha
  6736 07:9D6F: 22 xx xx xx  	jsl	~~k_send_window_message
  6737                        ;
  6738                        ;
  6739                        ;			}
  6740                        	.line	1152
  6741                        L10134:
  6742                        L10132:
  6743                        L10129:
  6744                        L10126:
  6745                        ;			break;
  6746                        	.line	1153
  6747 07:9D73: 82 5F 00     	brl	L10111
  6748                        ;		case FX_LBUTTON_DOWN:
  6749                        	.line	1154
  6750                        L10136:
  6751                        ;			if(pMsg->type!=FX_PROCESS)
  Thu Dec  3 2020 22:25                                                Page 141


  6752                        	.line	1155
  6753                        ;			{
  6754 07:9D76: A0 08 00     	ldy	#$8
  6755 07:9D79: B7 41        	lda	[<L96+pMsg_0],Y
  6756 07:9D7B: C9 00 FF     	cmp	#<$ff00
  6757 07:9D7E: D0 03        	bne	L124
  6758 07:9D80: 82 0A 00     	brl	L10137
  6759                        L124:
  6760                        	.line	1156
  6761                        ;				//k_debug_integer("conso
                    leWindowProc::ProcessId:",p->procId);
  6762                        ;				k_debug_string("textboxW
                    indowProc::FX_LBUTTON_DOWN\r\n");
  6763                        	.line	1158
  6764 07:9D83: F4 xx xx     	pea	#^L95+375
  6765 07:9D86: F4 xx xx     	pea	#<L95+375
  6766 07:9D89: 22 xx xx xx  	jsl	~~k_debug_string
  6767                        ;			}
  6768                        	.line	1159
  6769                        ;
  6770                        ;			break;
  6771                        L10137:
  6772                        	.line	1161
  6773 07:9D8D: 82 45 00     	brl	L10111
  6774                        ;		default:
  6775                        	.line	1162
  6776                        L10138:
  6777                        ;			return DefWindowProc(pMsg);
  6778                        	.line	1163
  6779 07:9D90: D4 43        	pei	<L96+pMsg_0+2
  6780 07:9D92: D4 41        	pei	<L96+pMsg_0
  6781 07:9D94: 22 xx xx xx  	jsl	~~DefWindowProc
  6782 07:9D98: E2 20        	sep	#$20
  6783                        	longa	off
  6784 07:9D9A: 85 01        	sta	<R0
  6785 07:9D9C: C2 20        	rep	#$20
  6786                        	longa	on
  6787 07:9D9E: A5 01        	lda	<R0
  6788 07:9DA0: 29 FF 00     	and	#$ff
  6789                        L125:
  6790 07:9DA3: A8           	tay
  6791 07:9DA4: A5 3F        	lda	<L96+2
  6792 07:9DA6: 85 43        	sta	<L96+2+4
  6793 07:9DA8: A5 3E        	lda	<L96+1
  6794 07:9DAA: 85 42        	sta	<L96+1+4
  6795 07:9DAC: 2B           	pld
  6796 07:9DAD: 3B           	tsc
  6797 07:9DAE: 18           	clc
  6798 07:9DAF: 69 41 00     	adc	#L96+4
  6799 07:9DB2: 1B           	tcs
  6800 07:9DB3: 98           	tya
  6801 07:9DB4: 6B           	rtl
  6802                        ;			break;
  6803                        	.line	1164
  6804                        ;		}
  6805                        	.line	1165
  6806                        L10110:
  6807                        	xref	~~~swt
  Thu Dec  3 2020 22:25                                                Page 142


  6808 07:9DB5: 22 xx xx xx  	jsl	~~~swt
  6809 07:9DB9: 06 00        	dw	6
  6810 07:9DBB: 04 0F        	dw	3844
  6811 07:9DBD: 75 9D        	dw	L10136-1
  6812 07:9DBF: 10 0F        	dw	3856
  6813 07:9DC1: BF 9B        	dw	L10124-1
  6814 07:9DC3: 12 0F        	dw	3858
  6815 07:9DC5: 7E 9B        	dw	L10122-1
  6816 07:9DC7: 00 FB        	dw	64256
  6817 07:9DC9: AF 99        	dw	L10114-1
  6818 07:9DCB: 03 FF        	dw	65283
  6819 07:9DCD: 0E 99        	dw	L10112-1
  6820 07:9DCF: F1 FF        	dw	65521
  6821 07:9DD1: 94 9A        	dw	L10117-1
  6822 07:9DD3: 8F 9D        	dw	L10138-1
  6823                        L10111:
  6824                        ;	}
  6825                        	.line	1166
  6826                        ;
  6827                        ;	return TRUE;
  6828                        L10109:
  6829                        	.line	1168
  6830 07:9DD5: A9 01 00     	lda	#$1
  6831 07:9DD8: 82 C8 FF     	brl	L125
  6832                        ;
  6833                        ;}
  6834                        	.line	1170
  6835                        	.endblock	1170
  6836             0000003D   L96	equ	61
  6837             00000009   L97	equ	9
  6838 07:9DDB:              	ends
  6839                        	efunc
  6840                        	.endfunc	1170,9,61
  6841                        	.line	1170
  6842                        	data
  6843                        L95:
  6844 00:09EB: 74 65 78 74  	db	$74,$65,$78,$74,$62,$6F,$78,$57,$69,$6E,
                    $64,$6F,$77,$50,$72
       00:09EF: 62 6F 78 57 
       00:09F3: 69 6E 64 6F 
       00:09F7: 77 50 72 
  6845 00:09FA: 6F 63 3A 3A  	db	$6F,$63,$3A,$3A,$46,$58,$5F,$43,$52,$45,
                    $41,$54,$45,$5F,$57
       00:09FE: 46 58 5F 43 
       00:0A02: 52 45 41 54 
       00:0A06: 45 5F 57 
  6846 00:0A09: 49 4E 44 4F  	db	$49,$4E,$44,$4F,$57,$3A,$00,$54,$6F,$73,
                    $68,$69,$62,$61,$4C
       00:0A0D: 57 3A 00 54 
       00:0A11: 6F 73 68 69 
       00:0A15: 62 61 4C 
  6847 00:0A18: 43 44 38 78  	db	$43,$44,$38,$78,$38,$00,$74,$65,$78,$74,
                    $62,$6F,$78,$57,$69
       00:0A1C: 38 00 74 65 
       00:0A20: 78 74 62 6F 
       00:0A24: 78 57 69 
  6848 00:0A27: 6E 64 6F 77  	db	$6E,$64,$6F,$77,$50,$72,$6F,$63,$3A,$3A,
                    $46,$58,$5F,$44,$52
  Thu Dec  3 2020 22:25                                                Page 143


       00:0A2B: 50 72 6F 63 
       00:0A2F: 3A 3A 46 58 
       00:0A33: 5F 44 52 
  6849 00:0A36: 41 57 5F 57  	db	$41,$57,$5F,$57,$49,$4E,$44,$4F,$57,$0D,
                    $0A,$00,$74,$65,$78
       00:0A3A: 49 4E 44 4F 
       00:0A3E: 57 0D 0A 00 
       00:0A42: 74 65 78 
  6850 00:0A45: 74 62 6F 78  	db	$74,$62,$6F,$78,$57,$69,$6E,$64,$6F,$77,
                    $50,$72,$6F,$63,$3A
       00:0A49: 57 69 6E 64 
       00:0A4D: 6F 77 50 72 
       00:0A51: 6F 63 3A 
  6851 00:0A54: 78 3A 00 74  	db	$78,$3A,$00,$74,$65,$78,$74,$62,$6F,$78,
                    $57,$69,$6E,$64,$6F
       00:0A58: 65 78 74 62 
       00:0A5C: 6F 78 57 69 
       00:0A60: 6E 64 6F 
  6852 00:0A63: 77 43 6C 61  	db	$77,$43,$6C,$61,$73,$73,$00,$FFFFFFAF,$0
                    0,$46,$58,$4F,$53,$38,$78
       00:0A67: 73 73 00 AF 
       00:0A6B: 00 46 58 4F 
       00:0A6F: 53 38 78 
  6853 00:0A72: 38 00 AE 00  	db	$38,$00,$FFFFFFAE,$00,$46,$58,$4F,$53,$3
                    8,$78,$38,$00,$74,$65,$78
       00:0A76: 46 58 4F 53 
       00:0A7A: 38 78 38 00 
       00:0A7E: 74 65 78 
  6854 00:0A81: 74 62 6F 78  	db	$74,$62,$6F,$78,$57,$69,$6E,$64,$6F,$77,
                    $50,$72,$6F,$63,$3A
       00:0A85: 57 69 6E 64 
       00:0A89: 6F 77 50 72 
       00:0A8D: 6F 63 3A 
  6855 00:0A90: 3A 46 58 5F  	db	$3A,$46,$58,$5F,$4B,$45,$59,$5F,$44,$4F,
                    $57,$4E,$3A,$69,$73
       00:0A94: 4B 45 59 5F 
       00:0A98: 44 4F 57 4E 
       00:0A9C: 3A 69 73 
  6856 00:0A9F: 53 68 69 66  	db	$53,$68,$69,$66,$74,$65,$64,$00,$74,$65,
                    $78,$74,$62,$6F,$78
       00:0AA3: 74 65 64 00 
       00:0AA7: 74 65 78 74 
       00:0AAB: 62 6F 78 
  6857 00:0AAE: 57 69 6E 64  	db	$57,$69,$6E,$64,$6F,$77,$50,$72,$6F,$63,
                    $3A,$3A,$46,$58,$5F
       00:0AB2: 6F 77 50 72 
       00:0AB6: 6F 63 3A 3A 
       00:0ABA: 46 58 5F 
  6858 00:0ABD: 4B 45 59 5F  	db	$4B,$45,$59,$5F,$44,$4F,$57,$4E,$3A,$00,
                    $74,$65,$78,$74,$62
       00:0AC1: 44 4F 57 4E 
       00:0AC5: 3A 00 74 65 
       00:0AC9: 78 74 62 
  6859 00:0ACC: 6F 78 57 69  	db	$6F,$78,$57,$69,$6E,$64,$6F,$77,$50,$72,
                    $6F,$63,$3A,$3A,$46
       00:0AD0: 6E 64 6F 77 
       00:0AD4: 50 72 6F 63 
       00:0AD8: 3A 3A 46 
  Thu Dec  3 2020 22:25                                                Page 144


  6860 00:0ADB: 58 5F 4B 45  	db	$58,$5F,$4B,$45,$59,$5F,$44,$4F,$57,$4E,
                    $3A,$69,$73,$53,$68
       00:0ADF: 59 5F 44 4F 
       00:0AE3: 57 4E 3A 69 
       00:0AE7: 73 53 68 
  6861 00:0AEA: 69 66 74 65  	db	$69,$66,$74,$65,$64,$00,$74,$65,$78,$74,
                    $62,$6F,$78,$57,$69
       00:0AEE: 64 00 74 65 
       00:0AF2: 78 74 62 6F 
       00:0AF6: 78 57 69 
  6862 00:0AF9: 6E 64 6F 77  	db	$6E,$64,$6F,$77,$50,$72,$6F,$63,$3A,$3A,
                    $46,$58,$5F,$4B,$45
       00:0AFD: 50 72 6F 63 
       00:0B01: 3A 3A 46 58 
       00:0B05: 5F 4B 45 
  6863 00:0B08: 59 5F 44 4F  	db	$59,$5F,$44,$4F,$57,$4E,$3A,$42,$41,$43,
                    $4B,$53,$50,$41,$43
       00:0B0C: 57 4E 3A 42 
       00:0B10: 41 43 4B 53 
       00:0B14: 50 41 43 
  6864 00:0B17: 45 3A 00 74  	db	$45,$3A,$00,$74,$65,$78,$74,$62,$6F,$78,
                    $57,$69,$6E,$64,$6F
       00:0B1B: 65 78 74 62 
       00:0B1F: 6F 78 57 69 
       00:0B23: 6E 64 6F 
  6865 00:0B26: 77 50 72 6F  	db	$77,$50,$72,$6F,$63,$3A,$3A,$46,$58,$5F,
                    $4B,$45,$59,$5F,$44
       00:0B2A: 63 3A 3A 46 
       00:0B2E: 58 5F 4B 45 
       00:0B32: 59 5F 44 
  6866 00:0B35: 4F 57 4E 3A  	db	$4F,$57,$4E,$3A,$00,$74,$65,$78,$74,$62,
                    $6F,$78,$57,$69,$6E
       00:0B39: 00 74 65 78 
       00:0B3D: 74 62 6F 78 
       00:0B41: 57 69 6E 
  6867 00:0B44: 64 6F 77 50  	db	$64,$6F,$77,$50,$72,$6F,$63,$3A,$3A,$46,
                    $58,$5F,$4B,$45,$59
       00:0B48: 72 6F 63 3A 
       00:0B4C: 3A 46 58 5F 
       00:0B50: 4B 45 59 
  6868 00:0B53: 5F 44 4F 57  	db	$5F,$44,$4F,$57,$4E,$3A,$4B,$45,$59,$43,
                    $4F,$44,$45,$3A,$00
       00:0B57: 4E 3A 4B 45 
       00:0B5B: 59 43 4F 44 
       00:0B5F: 45 3A 00 
  6869 00:0B62: 74 65 78 74  	db	$74,$65,$78,$74,$62,$6F,$78,$57,$69,$6E,
                    $64,$6F,$77,$50,$72
       00:0B66: 62 6F 78 57 
       00:0B6A: 69 6E 64 6F 
       00:0B6E: 77 50 72 
  6870 00:0B71: 6F 63 3A 3A  	db	$6F,$63,$3A,$3A,$46,$58,$5F,$4C,$42,$55,
                    $54,$54,$4F,$4E,$5F
       00:0B75: 46 58 5F 4C 
       00:0B79: 42 55 54 54 
       00:0B7D: 4F 4E 5F 
  6871 00:0B80: 44 4F 57 4E  	db	$44,$4F,$57,$4E,$0D,$0A,$00
       00:0B84: 0D 0A 00 
  6872 00:0B87:              	ends
  Thu Dec  3 2020 22:25                                                Page 145


  6873                        ;
  6874                        ;
  6875                        ;
  6876                        ;
  6877                        ;BOOL preferencesWindowProc(PFXOSMESSAGE pMsg)
  6878                        ;{
  6879                        	.line	1175
  6880                        	.line	1176
  6881                        	DTOP
  6882                        	xdef	~~preferencesWindowProc
  6883                        	func
  6884                        	.function	1176
  6885                        ~~preferencesWindowProc:
  6886                        	longa	on
  6887                        	longi	on
  6888 07:9DDB: 3B           	tsc
  6889 07:9DDC: 38           	sec
  6890 07:9DDD: E9 30 00     	sbc	#L127
  6891 07:9DE0: 1B           	tcs
  6892 07:9DE1: 0B           	phd
  6893 07:9DE2: 5B           	tcd
  6894             00000004   pMsg_0	set	4
  6895                        	.block	1176
  6896                        ;	PFXPROCESS p = NULL;
  6897                        ;	PPOINT ppoint;
  6898                        ;	PWINDOW pWin = NULL;
  6899                        ;	RECT r;
  6900                        ;	UCHAR buffer[16];
  6901                        ;
  6902                        ;	if(pMsg!=NULL)
  6903             00000000   p_1	set	0
  6904             00000004   ppoint_1	set	4
  6905             00000008   pWin_1	set	8
  6906             0000000C   r_1	set	12
  6907             00000014   buffer_1	set	20
  6908                        	.sym	p,0,138,1,32,17
  6909                        	.sym	ppoint,4,138,1,32,21
  6910                        	.sym	pWin,8,138,1,32,27
  6911                        	.sym	r,12,10,1,64,22
  6912                        	.sym	buffer,20,110,1,0,16
  6913                        	.sym	pMsg,4,138,6,32,13
  6914 07:9DE3: 64 0D        	stz	<L128+p_1
  6915 07:9DE5: 64 0F        	stz	<L128+p_1+2
  6916 07:9DE7: 64 15        	stz	<L128+pWin_1
  6917 07:9DE9: 64 17        	stz	<L128+pWin_1+2
  6918                        	.line	1183
  6919                        ;	{
  6920 07:9DEB: A5 34        	lda	<L127+pMsg_0
  6921 07:9DED: 05 36        	ora	<L127+pMsg_0+2
  6922 07:9DEF: D0 03        	bne	L130
  6923 07:9DF1: 82 3E 02     	brl	L10139
  6924                        L130:
  6925                        	.line	1184
  6926                        ;		p = k_exec_get_current_process();
  6927                        	.line	1185
  6928 07:9DF4: 22 xx xx xx  	jsl	~~k_exec_get_current_process
  6929 07:9DF8: 85 0D        	sta	<L128+p_1
  6930 07:9DFA: 86 0F        	stx	<L128+p_1+2
  Thu Dec  3 2020 22:25                                                Page 146


  6931                        ;		pWin =  k_getWindowFromHandle(pMsg->hwnd
                    );
  6932                        	.line	1186
  6933 07:9DFC: A0 0C 00     	ldy	#$c
  6934 07:9DFF: B7 34        	lda	[<L127+pMsg_0],Y
  6935 07:9E01: 48           	pha
  6936 07:9E02: A0 0A 00     	ldy	#$a
  6937 07:9E05: B7 34        	lda	[<L127+pMsg_0],Y
  6938 07:9E07: 48           	pha
  6939 07:9E08: 22 xx xx xx  	jsl	~~k_getWindowFromHandle
  6940 07:9E0C: 85 15        	sta	<L128+pWin_1
  6941 07:9E0E: 86 17        	stx	<L128+pWin_1+2
  6942                        ;		//k_debug_long("consoleWindowProc::Proce
                    ssId:",p->procId);
  6943                        ;
  6944                        ;		switch(pMsg->type)
  6945                        	.line	1189
  6946 07:9E10: A0 08 00     	ldy	#$8
  6947 07:9E13: B7 34        	lda	[<L127+pMsg_0],Y
  6948 07:9E15: 82 F2 01     	brl	L10140
  6949                        ;		{
  6950                        	.line	1190
  6951                        ;		case FX_CREATE_WINDOW:
  6952                        	.line	1191
  6953                        L10142:
  6954                        ;			if(p)
  6955                        	.line	1192
  6956                        ;			{
  6957 07:9E18: A5 0D        	lda	<L128+p_1
  6958 07:9E1A: 05 0F        	ora	<L128+p_1+2
  6959 07:9E1C: D0 03        	bne	L131
  6960 07:9E1E: 82 27 00     	brl	L10143
  6961                        L131:
  6962                        	.line	1193
  6963                        ;				k_debug_long("preference
                    sWindowProc::FX_CREATE_WINDOW:",p->procId);
  6964                        	.line	1194
  6965 07:9E21: A0 04 00     	ldy	#$4
  6966 07:9E24: B7 0D        	lda	[<L128+p_1],Y
  6967 07:9E26: 48           	pha
  6968 07:9E27: A0 02 00     	ldy	#$2
  6969 07:9E2A: B7 0D        	lda	[<L128+p_1],Y
  6970 07:9E2C: 48           	pha
  6971 07:9E2D: F4 xx xx     	pea	#^L126
  6972 07:9E30: F4 xx xx     	pea	#<L126
  6973 07:9E33: 22 xx xx xx  	jsl	~~k_debug_long
  6974                        ;				//k_user_SetWindowData(p
                    Msg->hwnd,0,k_user_CreateButton(pMsg->hwnd,"Test",0x8801,10,
                    10,20,10));
  6975                        ;				//k_debug_integer("testW
                    indowProc::MessageId:",pMsg->type);
  6976                        ;
  6977                        ;
  6978                        ;				//k_user_CreateHorizonta
                    lScrollbar(pWin,"",1);
  6979                        ;				k_user_CreateVerticalScr
                    ollBar(pWin,"",1);
  6980                        	.line	1200
  Thu Dec  3 2020 22:25                                                Page 147


  6981 07:9E37: F4 01 00     	pea	#<$1
  6982 07:9E3A: F4 xx xx     	pea	#^L126+41
  6983 07:9E3D: F4 xx xx     	pea	#<L126+41
  6984 07:9E40: D4 17        	pei	<L128+pWin_1+2
  6985 07:9E42: D4 15        	pei	<L128+pWin_1
  6986 07:9E44: 22 xx xx xx  	jsl	~~k_user_CreateVerticalScrollBar
  6987                        ;
  6988                        ;			}
  6989                        	.line	1202
  6990                        ;			break;
  6991                        L10143:
  6992                        	.line	1203
  6993 07:9E48: 82 E7 01     	brl	L10141
  6994                        ;
  6995                        ;		case FX_PROCESS_TIMER:
  6996                        	.line	1205
  6997                        L10144:
  6998                        ;			//k_debug_string("preferencesWin
                    dowProc::FX_PROCESS_TIMER\r\n");
  6999                        ;
  7000                        ;			/*
  7001                        ;			p->desktopCtl->cursorState=!p->d
                    esktopCtl->cursorState;
  7002                        ;
  7003                        ;			r.x = 0;
  7004                        ;			r.y = 20;
  7005                        ;
  7006                        ;			if(p->desktopCtl->cursorState)
  7007                        ;				k_user_DrawWindowTextToP
                    ointWithFont(k_getHandleFromWindow(k_user_getFocusWindow()),
                    "\xAF",k_getUIBackgroundColor(),&r,(LPCSTR)k_user_getFontCla
                    ss("FXOS8x8"));
  7008                        ;			else
  7009                        ;				k_user_DrawWindowTextToP
                    ointWithFont(k_getHandleFromWindow(k_user_getFocusWindow()),
                    "\xAE",k_getUIMenuColor(),&r,(LPCSTR)k_user_getFontClass("FX
                    OS8x8"));
  7010                        ;
  7011                        ;			*/
  7012                        ;
  7013                        ;
  7014                        ;			break;
  7015                        	.line	1222
  7016 07:9E4B: 82 E4 01     	brl	L10141
  7017                        ;		case FX_DRAW_WINDOW:
  7018                        	.line	1223
  7019                        L10145:
  7020                        ;			k_debug_string("preferencesWindo
                    wProc::FX_DRAW_WINDOW\r\n");
  7021                        	.line	1224
  7022 07:9E4E: F4 xx xx     	pea	#^L126+42
  7023 07:9E51: F4 xx xx     	pea	#<L126+42
  7024 07:9E54: 22 xx xx xx  	jsl	~~k_debug_string
  7025                        ;
  7026                        ;			ppoint = ((PEACHCHILD_MSG)pMsg)-
                    >msgData;
  7027                        	.line	1226
  7028 07:9E58: A0 02 00     	ldy	#$2
  Thu Dec  3 2020 22:25                                                Page 148


  7029 07:9E5B: B7 34        	lda	[<L127+pMsg_0],Y
  7030 07:9E5D: 85 11        	sta	<L128+ppoint_1
  7031 07:9E5F: A0 04 00     	ldy	#$4
  7032 07:9E62: B7 34        	lda	[<L127+pMsg_0],Y
  7033 07:9E64: 85 13        	sta	<L128+ppoint_1+2
  7034                        ;
  7035                        ;			/*
  7036                        ;			k_vdma_fill_rect(pWin->clientRec
                    t.x + ppoint->x,
  7037                        ;							
                     pWin->clientRect.y + ppoint->y,
  7038                        ;							
                     pWin->win_width,pWin->win_height,
  7039                        ;							
                     128);
  7040                        ;			*/
  7041                        ;			//k_user_FillClientRect(pMsg->hw
                    nd,128);
  7042                        ;
  7043                        ;			ppoint = (PPOINT)k_mem_allocate_
                    heap(sizeof(POINT));
  7044                        	.line	1236
  7045 07:9E66: F4 04 00     	pea	#<$4
  7046 07:9E69: 22 xx xx xx  	jsl	~~k_mem_allocate_heap
  7047 07:9E6D: 85 11        	sta	<L128+ppoint_1
  7048 07:9E6F: 86 13        	stx	<L128+ppoint_1+2
  7049                        ;			ppoint->x = pWin->win_x + ppoint
                    ->x;
  7050                        	.line	1237
  7051 07:9E71: 18           	clc
  7052 07:9E72: A0 08 00     	ldy	#$8
  7053 07:9E75: B7 15        	lda	[<L128+pWin_1],Y
  7054 07:9E77: 67 11        	adc	[<L128+ppoint_1]
  7055 07:9E79: 87 11        	sta	[<L128+ppoint_1]
  7056                        ;			ppoint->y = pWin->win_y + ppoint
                    ->y;
  7057                        	.line	1238
  7058 07:9E7B: 18           	clc
  7059 07:9E7C: A0 0A 00     	ldy	#$a
  7060 07:9E7F: B7 15        	lda	[<L128+pWin_1],Y
  7061 07:9E81: A0 02 00     	ldy	#$2
  7062 07:9E84: 77 11        	adc	[<L128+ppoint_1],Y
  7063 07:9E86: A0 02 00     	ldy	#$2
  7064 07:9E89: 97 11        	sta	[<L128+ppoint_1],Y
  7065                        ;
  7066                        ;
  7067                        ;			_k_user_send_child_message(pMsg-
                    >hwnd,FX_DRAW_WINDOW,ppoint,sizeof(POINT));
  7068                        	.line	1241
  7069 07:9E8B: F4 04 00     	pea	#<$4
  7070 07:9E8E: D4 13        	pei	<L128+ppoint_1+2
  7071 07:9E90: D4 11        	pei	<L128+ppoint_1
  7072 07:9E92: F4 00 FB     	pea	#<$fb00
  7073 07:9E95: A0 0C 00     	ldy	#$c
  7074 07:9E98: B7 34        	lda	[<L127+pMsg_0],Y
  7075 07:9E9A: 48           	pha
  7076 07:9E9B: A0 0A 00     	ldy	#$a
  7077 07:9E9E: B7 34        	lda	[<L127+pMsg_0],Y
  Thu Dec  3 2020 22:25                                                Page 149


  7078 07:9EA0: 48           	pha
  7079 07:9EA1: 22 xx xx xx  	jsl	~~_k_user_send_child_message
  7080                        ;			break;
  7081                        	.line	1242
  7082 07:9EA5: 82 8A 01     	brl	L10141
  7083                        ;		case FX_MBUTTON_DOWN:
  7084                        	.line	1243
  7085                        L10146:
  7086                        ;			if(pMsg->type!=FX_PROCESS)
  7087                        	.line	1244
  7088                        ;			{
  7089 07:9EA8: A0 08 00     	ldy	#$8
  7090 07:9EAB: B7 34        	lda	[<L127+pMsg_0],Y
  7091 07:9EAD: C9 00 FF     	cmp	#<$ff00
  7092 07:9EB0: D0 03        	bne	L132
  7093 07:9EB2: 82 0A 00     	brl	L10147
  7094                        L132:
  7095                        	.line	1245
  7096                        ;				//k_debug_integer("conso
                    leWindowProc::ProcessId:",p->procId);
  7097                        ;				k_debug_string("preferen
                    cesWindowProc::FX_MBUTTON_DOWN\r\n");
  7098                        	.line	1247
  7099 07:9EB5: F4 xx xx     	pea	#^L126+82
  7100 07:9EB8: F4 xx xx     	pea	#<L126+82
  7101 07:9EBB: 22 xx xx xx  	jsl	~~k_debug_string
  7102                        ;			}
  7103                        	.line	1248
  7104                        ;			break;
  7105                        L10147:
  7106                        	.line	1249
  7107 07:9EBF: 82 70 01     	brl	L10141
  7108                        ;		case FX_LBUTTON_DOWN:
  7109                        	.line	1250
  7110                        L10148:
  7111                        ;			if(pMsg->type!=FX_PROCESS)
  7112                        	.line	1251
  7113                        ;			{
  7114 07:9EC2: A0 08 00     	ldy	#$8
  7115 07:9EC5: B7 34        	lda	[<L127+pMsg_0],Y
  7116 07:9EC7: C9 00 FF     	cmp	#<$ff00
  7117 07:9ECA: D0 03        	bne	L133
  7118 07:9ECC: 82 0A 00     	brl	L10149
  7119                        L133:
  7120                        	.line	1252
  7121                        ;				//k_debug_integer("conso
                    leWindowProc::ProcessId:",p->procId);
  7122                        ;				k_debug_string("preferen
                    cesWindowProc::FX_LBUTTON_DOWN\r\n");
  7123                        	.line	1254
  7124 07:9ECF: F4 xx xx     	pea	#^L126+123
  7125 07:9ED2: F4 xx xx     	pea	#<L126+123
  7126 07:9ED5: 22 xx xx xx  	jsl	~~k_debug_string
  7127                        ;			}
  7128                        	.line	1255
  7129                        ;
  7130                        ;			break;
  7131                        L10149:
  Thu Dec  3 2020 22:25                                                Page 150


  7132                        	.line	1257
  7133 07:9ED9: 82 56 01     	brl	L10141
  7134                        ;		case FX_MOUSE_ENTER:
  7135                        	.line	1258
  7136                        L10150:
  7137                        ;			k_debug_strings("preferencesWind
                    owProc::FX_MOUSE_ENTER:",pWin->win_title);
  7138                        	.line	1259
  7139 07:9EDC: 18           	clc
  7140 07:9EDD: A9 D4 00     	lda	#$d4
  7141 07:9EE0: 65 15        	adc	<L128+pWin_1
  7142 07:9EE2: 85 01        	sta	<R0
  7143 07:9EE4: A9 00 00     	lda	#$0
  7144 07:9EE7: 65 17        	adc	<L128+pWin_1+2
  7145 07:9EE9: 85 03        	sta	<R0+2
  7146 07:9EEB: D4 03        	pei	<R0+2
  7147 07:9EED: D4 01        	pei	<R0
  7148 07:9EEF: F4 xx xx     	pea	#^L126+164
  7149 07:9EF2: F4 xx xx     	pea	#<L126+164
  7150 07:9EF5: 22 xx xx xx  	jsl	~~k_debug_strings
  7151                        ;			break;
  7152                        	.line	1260
  7153 07:9EF9: 82 36 01     	brl	L10141
  7154                        ;		case FX_MOUSE_EXIT:
  7155                        	.line	1261
  7156                        L10151:
  7157                        ;			k_debug_strings("preferencesWind
                    owProc::FX_MOUSE_EXIT:",pWin->win_title);
  7158                        	.line	1262
  7159 07:9EFC: 18           	clc
  7160 07:9EFD: A9 D4 00     	lda	#$d4
  7161 07:9F00: 65 15        	adc	<L128+pWin_1
  7162 07:9F02: 85 01        	sta	<R0
  7163 07:9F04: A9 00 00     	lda	#$0
  7164 07:9F07: 65 17        	adc	<L128+pWin_1+2
  7165 07:9F09: 85 03        	sta	<R0+2
  7166 07:9F0B: D4 03        	pei	<R0+2
  7167 07:9F0D: D4 01        	pei	<R0
  7168 07:9F0F: F4 xx xx     	pea	#^L126+203
  7169 07:9F12: F4 xx xx     	pea	#<L126+203
  7170 07:9F15: 22 xx xx xx  	jsl	~~k_debug_strings
  7171                        ;			break;
  7172                        	.line	1263
  7173 07:9F19: 82 16 01     	brl	L10141
  7174                        ;		case FX_SCROLLBAR_COMMAND:
  7175                        	.line	1264
  7176                        L10152:
  7177                        ;			k_debug_integer("preferencesWind
                    owProc::FX_SCROLLBAR_COMMAND:", ((PFXCMDMESSAGE)pMsg)->cmdCI
                    d );
  7178                        	.line	1265
  7179 07:9F1C: A0 16 00     	ldy	#$16
  7180 07:9F1F: B7 34        	lda	[<L127+pMsg_0],Y
  7181 07:9F21: 48           	pha
  7182 07:9F22: F4 xx xx     	pea	#^L126+241
  7183 07:9F25: F4 xx xx     	pea	#<L126+241
  7184 07:9F28: 22 xx xx xx  	jsl	~~k_debug_integer
  7185                        ;			if(((PFXCMDMESSAGE)pMsg)->cmdCId
  Thu Dec  3 2020 22:25                                                Page 151


                     == CTL_HORZ_SCROLL )
  7186                        	.line	1266
  7187                        ;			{
  7188 07:9F2C: A0 16 00     	ldy	#$16
  7189 07:9F2F: B7 34        	lda	[<L127+pMsg_0],Y
  7190 07:9F31: C9 02 00     	cmp	#<$2
  7191 07:9F34: F0 03        	beq	L134
  7192 07:9F36: 82 A9 00     	brl	L10153
  7193                        L134:
  7194                        	.line	1267
  7195                        ;				k_debug_integer("prefere
                    ncesWindowProc::FX_SCROLLBAR_COMMAND:LOCATION:", ((PFXCMDMES
                    SAGE)pMsg)->cmdMId );
  7196                        	.line	1268
  7197 07:9F39: A0 18 00     	ldy	#$18
  7198 07:9F3C: B7 34        	lda	[<L127+pMsg_0],Y
  7199 07:9F3E: 48           	pha
  7200 07:9F3F: F4 xx xx     	pea	#^L126+286
  7201 07:9F42: F4 xx xx     	pea	#<L126+286
  7202 07:9F45: 22 xx xx xx  	jsl	~~k_debug_integer
  7203                        ;				k_debug_integer("prefere
                    ncesWindowProc::FX_SCROLLBAR_COMMAND:VALUE:", ((PFXCMDMESSAG
                    E)pMsg)->parameter1);
  7204                        	.line	1269
  7205 07:9F49: A0 1A 00     	ldy	#$1a
  7206 07:9F4C: B7 34        	lda	[<L127+pMsg_0],Y
  7207 07:9F4E: 48           	pha
  7208 07:9F4F: F4 xx xx     	pea	#^L126+340
  7209 07:9F52: F4 xx xx     	pea	#<L126+340
  7210 07:9F55: 22 xx xx xx  	jsl	~~k_debug_integer
  7211                        ;
  7212                        ;				r.x = 0;
  7213                        	.line	1271
  7214 07:9F59: 64 19        	stz	<L128+r_1
  7215                        ;				r.y = 0;
  7216                        	.line	1272
  7217 07:9F5B: 64 1B        	stz	<L128+r_1+2
  7218                        ;
  7219                        ;				k_user_DrawWindowTextToP
                    ointWithFont(k_getHandleFromWindow(pWin),
  7220                        	.line	1274
  7221                        ;							
                    						 "\xDB\xDB\xDB\x
                    DB\xDB\xDB\xDB\xDB\xDB\xDB",
  7222                        ;						        
                                         k_getUIBackgroundColor(),
  7223                        ;							
                    						 &r,
  7224                        ;							
                    						 (LPCSTR)k_user_
                    getFontClass("TINYTYPE8x8"));
  7225 07:9F5D: F4 xx xx     	pea	#^L126+402
  7226 07:9F60: F4 xx xx     	pea	#<L126+402
  7227 07:9F63: 22 xx xx xx  	jsl	~~k_user_getFontClass
  7228 07:9F67: 85 01        	sta	<R0
  7229 07:9F69: 86 03        	stx	<R0+2
  7230 07:9F6B: DA           	phx
  7231 07:9F6C: 48           	pha
  Thu Dec  3 2020 22:25                                                Page 152


  7232 07:9F6D: F4 00 00     	pea	#0
  7233 07:9F70: 18           	clc
  7234 07:9F71: 7B           	tdc
  7235 07:9F72: 69 19 00     	adc	#<L128+r_1
  7236 07:9F75: 48           	pha
  7237 07:9F76: 22 xx xx xx  	jsl	~~k_getUIBackgroundColor
  7238 07:9F7A: 48           	pha
  7239 07:9F7B: F4 xx xx     	pea	#^L126+391
  7240 07:9F7E: F4 xx xx     	pea	#<L126+391
  7241 07:9F81: D4 17        	pei	<L128+pWin_1+2
  7242 07:9F83: D4 15        	pei	<L128+pWin_1
  7243 07:9F85: 22 xx xx xx  	jsl	~~k_getHandleFromWindow
  7244 07:9F89: 85 05        	sta	<R1
  7245 07:9F8B: 86 07        	stx	<R1+2
  7246 07:9F8D: DA           	phx
  7247 07:9F8E: 48           	pha
  7248 07:9F8F: 22 xx xx xx  	jsl	~~k_user_DrawWindowTextToPointWithFont
  7249                        ;
  7250                        ;				k_user_DrawWindowTextToP
                    ointWithFont(k_getHandleFromWindow(pWin),
  7251                        	.line	1280
  7252                        ;							
                    						 k_longtodec(((P
                    FXCMDMESSAGE)pMsg)->parameter1,buffer),
  7253                        ;						        
                                         k_getUIMenuColor(),
  7254                        ;							
                    						 &r,
  7255                        ;							
                    						 (LPCSTR)k_user_
                    getFontClass("TINYTYPE8x8"));
  7256 07:9F93: F4 xx xx     	pea	#^L126+414
  7257 07:9F96: F4 xx xx     	pea	#<L126+414
  7258 07:9F99: 22 xx xx xx  	jsl	~~k_user_getFontClass
  7259 07:9F9D: 85 01        	sta	<R0
  7260 07:9F9F: 86 03        	stx	<R0+2
  7261 07:9FA1: DA           	phx
  7262 07:9FA2: 48           	pha
  7263 07:9FA3: F4 00 00     	pea	#0
  7264 07:9FA6: 18           	clc
  7265 07:9FA7: 7B           	tdc
  7266 07:9FA8: 69 19 00     	adc	#<L128+r_1
  7267 07:9FAB: 48           	pha
  7268 07:9FAC: 22 xx xx xx  	jsl	~~k_getUIMenuColor
  7269 07:9FB0: 48           	pha
  7270 07:9FB1: F4 00 00     	pea	#0
  7271 07:9FB4: 18           	clc
  7272 07:9FB5: 7B           	tdc
  7273 07:9FB6: 69 21 00     	adc	#<L128+buffer_1
  7274 07:9FB9: 48           	pha
  7275 07:9FBA: A0 1C 00     	ldy	#$1c
  7276 07:9FBD: B7 34        	lda	[<L127+pMsg_0],Y
  7277 07:9FBF: 48           	pha
  7278 07:9FC0: A0 1A 00     	ldy	#$1a
  7279 07:9FC3: B7 34        	lda	[<L127+pMsg_0],Y
  7280 07:9FC5: 48           	pha
  7281 07:9FC6: 22 xx xx xx  	jsl	~~k_longtodec
  7282 07:9FCA: 85 05        	sta	<R1
  Thu Dec  3 2020 22:25                                                Page 153


  7283 07:9FCC: 86 07        	stx	<R1+2
  7284 07:9FCE: DA           	phx
  7285 07:9FCF: 48           	pha
  7286 07:9FD0: D4 17        	pei	<L128+pWin_1+2
  7287 07:9FD2: D4 15        	pei	<L128+pWin_1
  7288 07:9FD4: 22 xx xx xx  	jsl	~~k_getHandleFromWindow
  7289 07:9FD8: 85 09        	sta	<R2
  7290 07:9FDA: 86 0B        	stx	<R2+2
  7291 07:9FDC: DA           	phx
  7292 07:9FDD: 48           	pha
  7293 07:9FDE: 22 xx xx xx  	jsl	~~k_user_DrawWindowTextToPointWithFont
  7294                        ;
  7295                        ;			}
  7296                        	.line	1286
  7297                        ;			break;
  7298                        L10153:
  7299                        	.line	1287
  7300 07:9FE2: 82 4D 00     	brl	L10141
  7301                        ;
  7302                        ;		default:
  7303                        	.line	1289
  7304                        L10154:
  7305                        ;			return DefWindowProc(pMsg);
  7306                        	.line	1290
  7307 07:9FE5: D4 36        	pei	<L127+pMsg_0+2
  7308 07:9FE7: D4 34        	pei	<L127+pMsg_0
  7309 07:9FE9: 22 xx xx xx  	jsl	~~DefWindowProc
  7310 07:9FED: E2 20        	sep	#$20
  7311                        	longa	off
  7312 07:9FEF: 85 01        	sta	<R0
  7313 07:9FF1: C2 20        	rep	#$20
  7314                        	longa	on
  7315 07:9FF3: A5 01        	lda	<R0
  7316 07:9FF5: 29 FF 00     	and	#$ff
  7317                        L135:
  7318 07:9FF8: A8           	tay
  7319 07:9FF9: A5 32        	lda	<L127+2
  7320 07:9FFB: 85 36        	sta	<L127+2+4
  7321 07:9FFD: A5 31        	lda	<L127+1
  7322 07:9FFF: 85 35        	sta	<L127+1+4
  7323 07:A001: 2B           	pld
  7324 07:A002: 3B           	tsc
  7325 07:A003: 18           	clc
  7326 07:A004: 69 34 00     	adc	#L127+4
  7327 07:A007: 1B           	tcs
  7328 07:A008: 98           	tya
  7329 07:A009: 6B           	rtl
  7330                        ;			break;
  7331                        	.line	1291
  7332                        ;		}
  7333                        	.line	1292
  7334                        L10140:
  7335                        	xref	~~~swt
  7336 07:A00A: 22 xx xx xx  	jsl	~~~swt
  7337 07:A00E: 08 00        	dw	8
  7338 07:A010: 01 0F        	dw	3841
  7339 07:A012: DB 9E        	dw	L10150-1
  7340 07:A014: 02 0F        	dw	3842
  Thu Dec  3 2020 22:25                                                Page 154


  7341 07:A016: FB 9E        	dw	L10151-1
  7342 07:A018: 04 0F        	dw	3844
  7343 07:A01A: C1 9E        	dw	L10148-1
  7344 07:A01C: 0C 0F        	dw	3852
  7345 07:A01E: A7 9E        	dw	L10146-1
  7346 07:A020: 02 FA        	dw	64002
  7347 07:A022: 1B 9F        	dw	L10152-1
  7348 07:A024: 00 FB        	dw	64256
  7349 07:A026: 4D 9E        	dw	L10145-1
  7350 07:A028: 03 FF        	dw	65283
  7351 07:A02A: 17 9E        	dw	L10142-1
  7352 07:A02C: F1 FF        	dw	65521
  7353 07:A02E: 4A 9E        	dw	L10144-1
  7354 07:A030: E4 9F        	dw	L10154-1
  7355                        L10141:
  7356                        ;	}
  7357                        	.line	1293
  7358                        ;
  7359                        ;	return TRUE;
  7360                        L10139:
  7361                        	.line	1295
  7362 07:A032: A9 01 00     	lda	#$1
  7363 07:A035: 82 C0 FF     	brl	L135
  7364                        ;}
  7365                        	.line	1296
  7366                        	.endblock	1296
  7367             00000030   L127	equ	48
  7368             0000000D   L128	equ	13
  7369 07:A038:              	ends
  7370                        	efunc
  7371                        	.endfunc	1296,13,48
  7372                        	.line	1296
  7373                        	data
  7374                        L126:
  7375 00:0B87: 70 72 65 66  	db	$70,$72,$65,$66,$65,$72,$65,$6E,$63,$65,
                    $73,$57,$69,$6E,$64
       00:0B8B: 65 72 65 6E 
       00:0B8F: 63 65 73 57 
       00:0B93: 69 6E 64 
  7376 00:0B96: 6F 77 50 72  	db	$6F,$77,$50,$72,$6F,$63,$3A,$3A,$46,$58,
                    $5F,$43,$52,$45,$41
       00:0B9A: 6F 63 3A 3A 
       00:0B9E: 46 58 5F 43 
       00:0BA2: 52 45 41 
  7377 00:0BA5: 54 45 5F 57  	db	$54,$45,$5F,$57,$49,$4E,$44,$4F,$57,$3A,
                    $00,$00,$70,$72,$65
       00:0BA9: 49 4E 44 4F 
       00:0BAD: 57 3A 00 00 
       00:0BB1: 70 72 65 
  7378 00:0BB4: 66 65 72 65  	db	$66,$65,$72,$65,$6E,$63,$65,$73,$57,$69,
                    $6E,$64,$6F,$77,$50
       00:0BB8: 6E 63 65 73 
       00:0BBC: 57 69 6E 64 
       00:0BC0: 6F 77 50 
  7379 00:0BC3: 72 6F 63 3A  	db	$72,$6F,$63,$3A,$3A,$46,$58,$5F,$44,$52,
                    $41,$57,$5F,$57,$49
       00:0BC7: 3A 46 58 5F 
       00:0BCB: 44 52 41 57 
  Thu Dec  3 2020 22:25                                                Page 155


       00:0BCF: 5F 57 49 
  7380 00:0BD2: 4E 44 4F 57  	db	$4E,$44,$4F,$57,$0D,$0A,$00,$70,$72,$65,
                    $66,$65,$72,$65,$6E
       00:0BD6: 0D 0A 00 70 
       00:0BDA: 72 65 66 65 
       00:0BDE: 72 65 6E 
  7381 00:0BE1: 63 65 73 57  	db	$63,$65,$73,$57,$69,$6E,$64,$6F,$77,$50,
                    $72,$6F,$63,$3A,$3A
       00:0BE5: 69 6E 64 6F 
       00:0BE9: 77 50 72 6F 
       00:0BED: 63 3A 3A 
  7382 00:0BF0: 46 58 5F 4D  	db	$46,$58,$5F,$4D,$42,$55,$54,$54,$4F,$4E,
                    $5F,$44,$4F,$57,$4E
       00:0BF4: 42 55 54 54 
       00:0BF8: 4F 4E 5F 44 
       00:0BFC: 4F 57 4E 
  7383 00:0BFF: 0D 0A 00 70  	db	$0D,$0A,$00,$70,$72,$65,$66,$65,$72,$65,
                    $6E,$63,$65,$73,$57
       00:0C03: 72 65 66 65 
       00:0C07: 72 65 6E 63 
       00:0C0B: 65 73 57 
  7384 00:0C0E: 69 6E 64 6F  	db	$69,$6E,$64,$6F,$77,$50,$72,$6F,$63,$3A,
                    $3A,$46,$58,$5F,$4C
       00:0C12: 77 50 72 6F 
       00:0C16: 63 3A 3A 46 
       00:0C1A: 58 5F 4C 
  7385 00:0C1D: 42 55 54 54  	db	$42,$55,$54,$54,$4F,$4E,$5F,$44,$4F,$57,
                    $4E,$0D,$0A,$00,$70
       00:0C21: 4F 4E 5F 44 
       00:0C25: 4F 57 4E 0D 
       00:0C29: 0A 00 70 
  7386 00:0C2C: 72 65 66 65  	db	$72,$65,$66,$65,$72,$65,$6E,$63,$65,$73,
                    $57,$69,$6E,$64,$6F
       00:0C30: 72 65 6E 63 
       00:0C34: 65 73 57 69 
       00:0C38: 6E 64 6F 
  7387 00:0C3B: 77 50 72 6F  	db	$77,$50,$72,$6F,$63,$3A,$3A,$46,$58,$5F,
                    $4D,$4F,$55,$53,$45
       00:0C3F: 63 3A 3A 46 
       00:0C43: 58 5F 4D 4F 
       00:0C47: 55 53 45 
  7388 00:0C4A: 5F 45 4E 54  	db	$5F,$45,$4E,$54,$45,$52,$3A,$00,$70,$72,
                    $65,$66,$65,$72,$65
       00:0C4E: 45 52 3A 00 
       00:0C52: 70 72 65 66 
       00:0C56: 65 72 65 
  7389 00:0C59: 6E 63 65 73  	db	$6E,$63,$65,$73,$57,$69,$6E,$64,$6F,$77,
                    $50,$72,$6F,$63,$3A
       00:0C5D: 57 69 6E 64 
       00:0C61: 6F 77 50 72 
       00:0C65: 6F 63 3A 
  7390 00:0C68: 3A 46 58 5F  	db	$3A,$46,$58,$5F,$4D,$4F,$55,$53,$45,$5F,
                    $45,$58,$49,$54,$3A
       00:0C6C: 4D 4F 55 53 
       00:0C70: 45 5F 45 58 
       00:0C74: 49 54 3A 
  7391 00:0C77: 00 70 72 65  	db	$00,$70,$72,$65,$66,$65,$72,$65,$6E,$63,
                    $65,$73,$57,$69,$6E
  Thu Dec  3 2020 22:25                                                Page 156


       00:0C7B: 66 65 72 65 
       00:0C7F: 6E 63 65 73 
       00:0C83: 57 69 6E 
  7392 00:0C86: 64 6F 77 50  	db	$64,$6F,$77,$50,$72,$6F,$63,$3A,$3A,$46,
                    $58,$5F,$53,$43,$52
       00:0C8A: 72 6F 63 3A 
       00:0C8E: 3A 46 58 5F 
       00:0C92: 53 43 52 
  7393 00:0C95: 4F 4C 4C 42  	db	$4F,$4C,$4C,$42,$41,$52,$5F,$43,$4F,$4D,
                    $4D,$41,$4E,$44,$3A
       00:0C99: 41 52 5F 43 
       00:0C9D: 4F 4D 4D 41 
       00:0CA1: 4E 44 3A 
  7394 00:0CA4: 00 70 72 65  	db	$00,$70,$72,$65,$66,$65,$72,$65,$6E,$63,
                    $65,$73,$57,$69,$6E
       00:0CA8: 66 65 72 65 
       00:0CAC: 6E 63 65 73 
       00:0CB0: 57 69 6E 
  7395 00:0CB3: 64 6F 77 50  	db	$64,$6F,$77,$50,$72,$6F,$63,$3A,$3A,$46,
                    $58,$5F,$53,$43,$52
       00:0CB7: 72 6F 63 3A 
       00:0CBB: 3A 46 58 5F 
       00:0CBF: 53 43 52 
  7396 00:0CC2: 4F 4C 4C 42  	db	$4F,$4C,$4C,$42,$41,$52,$5F,$43,$4F,$4D,
                    $4D,$41,$4E,$44,$3A
       00:0CC6: 41 52 5F 43 
       00:0CCA: 4F 4D 4D 41 
       00:0CCE: 4E 44 3A 
  7397 00:0CD1: 4C 4F 43 41  	db	$4C,$4F,$43,$41,$54,$49,$4F,$4E,$3A,$00,
                    $70,$72,$65,$66,$65
       00:0CD5: 54 49 4F 4E 
       00:0CD9: 3A 00 70 72 
       00:0CDD: 65 66 65 
  7398 00:0CE0: 72 65 6E 63  	db	$72,$65,$6E,$63,$65,$73,$57,$69,$6E,$64,
                    $6F,$77,$50,$72,$6F
       00:0CE4: 65 73 57 69 
       00:0CE8: 6E 64 6F 77 
       00:0CEC: 50 72 6F 
  7399 00:0CEF: 63 3A 3A 46  	db	$63,$3A,$3A,$46,$58,$5F,$53,$43,$52,$4F,
                    $4C,$4C,$42,$41,$52
       00:0CF3: 58 5F 53 43 
       00:0CF7: 52 4F 4C 4C 
       00:0CFB: 42 41 52 
  7400 00:0CFE: 5F 43 4F 4D  	db	$5F,$43,$4F,$4D,$4D,$41,$4E,$44,$3A,$56,
                    $41,$4C,$55,$45,$3A
       00:0D02: 4D 41 4E 44 
       00:0D06: 3A 56 41 4C 
       00:0D0A: 55 45 3A 
  7401 00:0D0D: 00 DB DB DB  	db	$00,$FFFFFFDB,$FFFFFFDB,$FFFFFFDB,$FFFFF
                    FDB,$FFFFFFDB,$FFFFFFDB,$FFFFFFDB,$FFFFFFDB,$FFFFFFDB,$FFFFF
                    FDB,$00,$54,$49,$4E
       00:0D11: DB DB DB DB 
       00:0D15: DB DB DB 00 
       00:0D19: 54 49 4E 
  7402 00:0D1C: 59 54 59 50  	db	$59,$54,$59,$50,$45,$38,$78,$38,$00,$54,
                    $49,$4E,$59,$54,$59
       00:0D20: 45 38 78 38 
       00:0D24: 00 54 49 4E 
  Thu Dec  3 2020 22:25                                                Page 157


       00:0D28: 59 54 59 
  7403 00:0D2B: 50 45 38 78  	db	$50,$45,$38,$78,$38,$00
       00:0D2F: 38 00 
  7404 00:0D31:              	ends
  7405                        ;
  7406                        ;void drawImage(int color)
  7407                        ;{
  7408                        	.line	1298
  7409                        	.line	1299
  7410                        	DTOP
  7411                        	xdef	~~drawImage
  7412                        	func
  7413                        	.function	1299
  7414                        ~~drawImage:
  7415                        	longa	on
  7416                        	longi	on
  7417 07:A038: 3B           	tsc
  7418 07:A039: 38           	sec
  7419 07:A03A: E9 24 00     	sbc	#L137
  7420 07:A03D: 1B           	tcs
  7421 07:A03E: 0B           	phd
  7422 07:A03F: 5B           	tcd
  7423             00000004   color_0	set	4
  7424                        	.block	1299
  7425                        ;	int px,py,i,j,k,x,y;
  7426                        ;	float newx = 0.0;
  7427                        ;	UINT seed;
  7428                        ;
  7429                        ;	x = 0;
  7430             00000000   px_1	set	0
  7431             00000002   py_1	set	2
  7432             00000004   i_1	set	4
  7433             00000006   j_1	set	6
  7434             00000008   k_1	set	8
  7435             0000000A   x_1	set	10
  7436             0000000C   y_1	set	12
  7437             0000000E   newx_1	set	14
  7438             00000012   seed_1	set	18
  7439                        	.sym	px,0,5,1,16
  7440                        	.sym	py,2,5,1,16
  7441                        	.sym	i,4,5,1,16
  7442                        	.sym	j,6,5,1,16
  7443                        	.sym	k,8,5,1,16
  7444                        	.sym	x,10,5,1,16
  7445                        	.sym	y,12,5,1,16
  7446                        	.sym	newx,14,8,1,32
  7447                        	.sym	seed,18,16,1,16
  7448                        	.sym	color,4,5,6,16
  7449 07:A040: A9 00 00     	lda	#$0
  7450 07:A043: 85 1F        	sta	<L138+newx_1
  7451 07:A045: A9 00 00     	lda	#$0
  7452 07:A048: 85 21        	sta	<L138+newx_1+2
  7453                        	.line	1304
  7454 07:A04A: 64 1B        	stz	<L138+x_1
  7455                        ;	y = 0;
  7456                        	.line	1305
  7457 07:A04C: 64 1D        	stz	<L138+y_1
  7458                        ;
  Thu Dec  3 2020 22:25                                                Page 158


  7459                        ;	seed = k_get_rtc_second();
  7460                        	.line	1307
  7461 07:A04E: 22 xx xx xx  	jsl	~~k_get_rtc_second
  7462 07:A052: 85 23        	sta	<L138+seed_1
  7463                        ;	srand(seed);
  7464                        	.line	1308
  7465 07:A054: D4 23        	pei	<L138+seed_1
  7466 07:A056: 22 xx xx xx  	jsl	~~srand
  7467                        ;
  7468                        ;	k_debug_integer("drawImage::seed:", seed );
  7469                        	.line	1310
  7470 07:A05A: D4 23        	pei	<L138+seed_1
  7471 07:A05C: F4 xx xx     	pea	#^L136
  7472 07:A05F: F4 xx xx     	pea	#<L136
  7473 07:A062: 22 xx xx xx  	jsl	~~k_debug_integer
  7474                        ;
  7475                        ;	for(i=1;i<30000;i++)
  7476                        	.line	1312
  7477 07:A066: A9 01 00     	lda	#$1
  7478 07:A069: 85 15        	sta	<L138+i_1
  7479                        L10157:
  7480                        ;	{
  7481                        	.line	1313
  7482                        ;		j = rand();
  7483                        	.line	1314
  7484 07:A06B: 22 xx xx xx  	jsl	~~rand
  7485 07:A06F: 85 17        	sta	<L138+j_1
  7486                        ;		k = (j<p[0]) ? 0 : ( (j<p[1]) ? 1 : ((j<
                    p[2]) ? 2 : 3));
  7487                        	.line	1315
  7488 07:A071: 38           	sec
  7489 07:A072: A5 17        	lda	<L138+j_1
  7490 07:A074: ED xx xx     	sbc	|~~p
  7491 07:A077: 70 03        	bvs	L141
  7492 07:A079: 49 00 80     	eor	#$8000
  7493                        L141:
  7494 07:A07C: 10 03        	bpl	L142
  7495 07:A07E: 82 05 00     	brl	L140
  7496                        L142:
  7497 07:A081: A9 00 00     	lda	#$0
  7498 07:A084: 80 2D        	bra	L143
  7499                        L140:
  7500 07:A086: 38           	sec
  7501 07:A087: A5 17        	lda	<L138+j_1
  7502 07:A089: ED xx xx     	sbc	|~~p+2
  7503 07:A08C: 70 03        	bvs	L145
  7504 07:A08E: 49 00 80     	eor	#$8000
  7505                        L145:
  7506 07:A091: 10 03        	bpl	L146
  7507 07:A093: 82 05 00     	brl	L144
  7508                        L146:
  7509 07:A096: A9 01 00     	lda	#$1
  7510 07:A099: 80 18        	bra	L147
  7511                        L144:
  7512 07:A09B: 38           	sec
  7513 07:A09C: A5 17        	lda	<L138+j_1
  7514 07:A09E: ED xx xx     	sbc	|~~p+4
  7515 07:A0A1: 70 03        	bvs	L149
  Thu Dec  3 2020 22:25                                                Page 159


  7516 07:A0A3: 49 00 80     	eor	#$8000
  7517                        L149:
  7518 07:A0A6: 10 03        	bpl	L150
  7519 07:A0A8: 82 05 00     	brl	L148
  7520                        L150:
  7521 07:A0AB: A9 02 00     	lda	#$2
  7522 07:A0AE: 80 03        	bra	L151
  7523                        L148:
  7524 07:A0B0: A9 03 00     	lda	#$3
  7525                        L151:
  7526                        L147:
  7527                        L143:
  7528 07:A0B3: 85 19        	sta	<L138+k_1
  7529                        ;
  7530                        ;		newx = (a[k] * x + b[k] * y + e[k]);
  7531                        	.line	1317
  7532 07:A0B5: A5 19        	lda	<L138+k_1
  7533 07:A0B7: 0A           	asl	A
  7534 07:A0B8: 0A           	asl	A
  7535 07:A0B9: 85 01        	sta	<R0
  7536 07:A0BB: 18           	clc
  7537 07:A0BC: A9 xx xx     	lda	#<~~e
  7538 07:A0BF: 65 01        	adc	<R0
  7539 07:A0C1: 85 05        	sta	<R1
  7540 07:A0C3: A0 02 00     	ldy	#$2
  7541 07:A0C6: B1 05        	lda	(<R1),Y
  7542 07:A0C8: 48           	pha
  7543 07:A0C9: B2 05        	lda	(<R1)
  7544 07:A0CB: 48           	pha
  7545 07:A0CC: A0 00 00     	ldy	#$0
  7546 07:A0CF: A5 1D        	lda	<L138+y_1
  7547 07:A0D1: 10 01        	bpl	L152
  7548 07:A0D3: 88           	dey
  7549                        L152:
  7550 07:A0D4: 5A           	phy
  7551 07:A0D5: 48           	pha
  7552                        	xref	~~~fflt
  7553 07:A0D6: 22 xx xx xx  	jsl	~~~fflt
  7554 07:A0DA: A5 19        	lda	<L138+k_1
  7555 07:A0DC: 0A           	asl	A
  7556 07:A0DD: 0A           	asl	A
  7557 07:A0DE: 85 01        	sta	<R0
  7558 07:A0E0: 18           	clc
  7559 07:A0E1: A9 xx xx     	lda	#<~~b
  7560 07:A0E4: 65 01        	adc	<R0
  7561 07:A0E6: 85 09        	sta	<R2
  7562 07:A0E8: A0 02 00     	ldy	#$2
  7563 07:A0EB: B1 09        	lda	(<R2),Y
  7564 07:A0ED: 48           	pha
  7565 07:A0EE: B2 09        	lda	(<R2)
  7566 07:A0F0: 48           	pha
  7567                        	xref	~~~fmul
  7568 07:A0F1: 22 xx xx xx  	jsl	~~~fmul
  7569 07:A0F5: A0 00 00     	ldy	#$0
  7570 07:A0F8: A5 1B        	lda	<L138+x_1
  7571 07:A0FA: 10 01        	bpl	L153
  7572 07:A0FC: 88           	dey
  7573                        L153:
  Thu Dec  3 2020 22:25                                                Page 160


  7574 07:A0FD: 5A           	phy
  7575 07:A0FE: 48           	pha
  7576                        	xref	~~~fflt
  7577 07:A0FF: 22 xx xx xx  	jsl	~~~fflt
  7578 07:A103: A5 19        	lda	<L138+k_1
  7579 07:A105: 0A           	asl	A
  7580 07:A106: 0A           	asl	A
  7581 07:A107: 85 01        	sta	<R0
  7582 07:A109: 18           	clc
  7583 07:A10A: A9 xx xx     	lda	#<~~a
  7584 07:A10D: 65 01        	adc	<R0
  7585 07:A10F: 85 0D        	sta	<R3
  7586 07:A111: A0 02 00     	ldy	#$2
  7587 07:A114: B1 0D        	lda	(<R3),Y
  7588 07:A116: 48           	pha
  7589 07:A117: B2 0D        	lda	(<R3)
  7590 07:A119: 48           	pha
  7591                        	xref	~~~fmul
  7592 07:A11A: 22 xx xx xx  	jsl	~~~fmul
  7593                        	xref	~~~fadc
  7594 07:A11E: 22 xx xx xx  	jsl	~~~fadc
  7595                        	xref	~~~fadc
  7596 07:A122: 22 xx xx xx  	jsl	~~~fadc
  7597 07:A126: 68           	pla
  7598 07:A127: 85 1F        	sta	<L138+newx_1
  7599 07:A129: 68           	pla
  7600 07:A12A: 85 21        	sta	<L138+newx_1+2
  7601                        ;		y    = (c[k] * x + d[k] * y + f[k]);
  7602                        	.line	1318
  7603 07:A12C: A5 19        	lda	<L138+k_1
  7604 07:A12E: 0A           	asl	A
  7605 07:A12F: 0A           	asl	A
  7606 07:A130: 85 01        	sta	<R0
  7607 07:A132: 18           	clc
  7608 07:A133: A9 xx xx     	lda	#<~~f
  7609 07:A136: 65 01        	adc	<R0
  7610 07:A138: 85 05        	sta	<R1
  7611 07:A13A: A0 02 00     	ldy	#$2
  7612 07:A13D: B1 05        	lda	(<R1),Y
  7613 07:A13F: 48           	pha
  7614 07:A140: B2 05        	lda	(<R1)
  7615 07:A142: 48           	pha
  7616 07:A143: A0 00 00     	ldy	#$0
  7617 07:A146: A5 1D        	lda	<L138+y_1
  7618 07:A148: 10 01        	bpl	L154
  7619 07:A14A: 88           	dey
  7620                        L154:
  7621 07:A14B: 5A           	phy
  7622 07:A14C: 48           	pha
  7623                        	xref	~~~fflt
  7624 07:A14D: 22 xx xx xx  	jsl	~~~fflt
  7625 07:A151: A5 19        	lda	<L138+k_1
  7626 07:A153: 0A           	asl	A
  7627 07:A154: 0A           	asl	A
  7628 07:A155: 85 01        	sta	<R0
  7629 07:A157: 18           	clc
  7630 07:A158: A9 xx xx     	lda	#<~~d
  7631 07:A15B: 65 01        	adc	<R0
  Thu Dec  3 2020 22:25                                                Page 161


  7632 07:A15D: 85 09        	sta	<R2
  7633 07:A15F: A0 02 00     	ldy	#$2
  7634 07:A162: B1 09        	lda	(<R2),Y
  7635 07:A164: 48           	pha
  7636 07:A165: B2 09        	lda	(<R2)
  7637 07:A167: 48           	pha
  7638                        	xref	~~~fmul
  7639 07:A168: 22 xx xx xx  	jsl	~~~fmul
  7640 07:A16C: A0 00 00     	ldy	#$0
  7641 07:A16F: A5 1B        	lda	<L138+x_1
  7642 07:A171: 10 01        	bpl	L155
  7643 07:A173: 88           	dey
  7644                        L155:
  7645 07:A174: 5A           	phy
  7646 07:A175: 48           	pha
  7647                        	xref	~~~fflt
  7648 07:A176: 22 xx xx xx  	jsl	~~~fflt
  7649 07:A17A: A5 19        	lda	<L138+k_1
  7650 07:A17C: 0A           	asl	A
  7651 07:A17D: 0A           	asl	A
  7652 07:A17E: 85 01        	sta	<R0
  7653 07:A180: 18           	clc
  7654 07:A181: A9 xx xx     	lda	#<~~c
  7655 07:A184: 65 01        	adc	<R0
  7656 07:A186: 85 0D        	sta	<R3
  7657 07:A188: A0 02 00     	ldy	#$2
  7658 07:A18B: B1 0D        	lda	(<R3),Y
  7659 07:A18D: 48           	pha
  7660 07:A18E: B2 0D        	lda	(<R3)
  7661 07:A190: 48           	pha
  7662                        	xref	~~~fmul
  7663 07:A191: 22 xx xx xx  	jsl	~~~fmul
  7664                        	xref	~~~fadc
  7665 07:A195: 22 xx xx xx  	jsl	~~~fadc
  7666                        	xref	~~~fadc
  7667 07:A199: 22 xx xx xx  	jsl	~~~fadc
  7668                        	xref	~~~ffix
  7669 07:A19D: 22 xx xx xx  	jsl	~~~ffix
  7670 07:A1A1: 68           	pla
  7671 07:A1A2: 85 01        	sta	<R0
  7672 07:A1A4: 68           	pla
  7673 07:A1A5: 85 03        	sta	<R0+2
  7674 07:A1A7: A5 01        	lda	<R0
  7675 07:A1A9: 85 1D        	sta	<L138+y_1
  7676                        ;		x    = (int)newx;
  7677                        	.line	1319
  7678 07:A1AB: D4 21        	pei	<L138+newx_1+2
  7679 07:A1AD: D4 1F        	pei	<L138+newx_1
  7680                        	xref	~~~ffix
  7681 07:A1AF: 22 xx xx xx  	jsl	~~~ffix
  7682 07:A1B3: 68           	pla
  7683 07:A1B4: 85 01        	sta	<R0
  7684 07:A1B6: 68           	pla
  7685 07:A1B7: 85 03        	sta	<R0+2
  7686 07:A1B9: A5 01        	lda	<R0
  7687 07:A1BB: 85 1B        	sta	<L138+x_1
  7688                        ;		px   = x*xscale + xoffset;
  7689                        	.line	1320
  Thu Dec  3 2020 22:25                                                Page 162


  7690 07:A1BD: A5 1B        	lda	<L138+x_1
  7691 07:A1BF: AE xx xx     	ldx	|~~xscale
  7692                        	xref	~~~mul
  7693 07:A1C2: 22 xx xx xx  	jsl	~~~mul
  7694 07:A1C6: 85 01        	sta	<R0
  7695 07:A1C8: 18           	clc
  7696 07:A1C9: A5 01        	lda	<R0
  7697 07:A1CB: 6D xx xx     	adc	|~~xoffset
  7698 07:A1CE: 85 11        	sta	<L138+px_1
  7699                        ;		//py   = (350 - y*yscale + yoffset);
  7700                        ;		py   = (350 - y*yscale + yoffset);
  7701                        	.line	1322
  7702 07:A1D0: A5 1D        	lda	<L138+y_1
  7703 07:A1D2: AE xx xx     	ldx	|~~yscale
  7704                        	xref	~~~mul
  7705 07:A1D5: 22 xx xx xx  	jsl	~~~mul
  7706 07:A1D9: 85 01        	sta	<R0
  7707 07:A1DB: 38           	sec
  7708 07:A1DC: A9 5E 01     	lda	#$15e
  7709 07:A1DF: E5 01        	sbc	<R0
  7710 07:A1E1: 85 05        	sta	<R1
  7711 07:A1E3: 18           	clc
  7712 07:A1E4: A5 05        	lda	<R1
  7713 07:A1E6: 6D xx xx     	adc	|~~yoffset
  7714 07:A1E9: 85 13        	sta	<L138+py_1
  7715                        ;
  7716                        ;		//k_debug_integer("drawImage::px:", px )
                    ;
  7717                        ;		//k_debug_integer("drawImage::py:", py )
                    ;
  7718                        ;
  7719                        ;		if((px>=0) && (px<640) && (py>=0) && (py
                    <480))
  7720                        	.line	1327
  7721                        ;		{
  7722 07:A1EB: A5 11        	lda	<L138+px_1
  7723 07:A1ED: 10 03        	bpl	L156
  7724 07:A1EF: 82 4D 00     	brl	L10158
  7725                        L156:
  7726 07:A1F2: 38           	sec
  7727 07:A1F3: A5 11        	lda	<L138+px_1
  7728 07:A1F5: E9 80 02     	sbc	#<$280
  7729 07:A1F8: 70 03        	bvs	L157
  7730 07:A1FA: 49 00 80     	eor	#$8000
  7731                        L157:
  7732 07:A1FD: 10 03        	bpl	L158
  7733 07:A1FF: 82 3D 00     	brl	L10158
  7734                        L158:
  7735 07:A202: A5 13        	lda	<L138+py_1
  7736 07:A204: 10 03        	bpl	L159
  7737 07:A206: 82 36 00     	brl	L10158
  7738                        L159:
  7739 07:A209: 38           	sec
  7740 07:A20A: A5 13        	lda	<L138+py_1
  7741 07:A20C: E9 E0 01     	sbc	#<$1e0
  7742 07:A20F: 70 03        	bvs	L160
  7743 07:A211: 49 00 80     	eor	#$8000
  7744                        L160:
  Thu Dec  3 2020 22:25                                                Page 163


  7745 07:A214: 10 03        	bpl	L161
  7746 07:A216: 82 26 00     	brl	L10158
  7747                        L161:
  7748                        	.line	1328
  7749                        ;			//k_debug_integer("drawImage::px
                    :", px );
  7750                        ;			//k_debug_integer("drawImage::py
                    :", py );
  7751                        ;			k_draw_pixel(px,py,color);
  7752                        	.line	1331
  7753 07:A219: D4 28        	pei	<L137+color_0
  7754 07:A21B: A0 00 00     	ldy	#$0
  7755 07:A21E: A5 13        	lda	<L138+py_1
  7756 07:A220: 10 01        	bpl	L162
  7757 07:A222: 88           	dey
  7758                        L162:
  7759 07:A223: 85 01        	sta	<R0
  7760 07:A225: 84 03        	sty	<R0+2
  7761 07:A227: D4 03        	pei	<R0+2
  7762 07:A229: D4 01        	pei	<R0
  7763 07:A22B: A0 00 00     	ldy	#$0
  7764 07:A22E: A5 11        	lda	<L138+px_1
  7765 07:A230: 10 01        	bpl	L163
  7766 07:A232: 88           	dey
  7767                        L163:
  7768 07:A233: 85 05        	sta	<R1
  7769 07:A235: 84 07        	sty	<R1+2
  7770 07:A237: D4 07        	pei	<R1+2
  7771 07:A239: D4 05        	pei	<R1
  7772 07:A23B: 22 xx xx xx  	jsl	~~k_draw_pixel
  7773                        ;		}
  7774                        	.line	1332
  7775                        ;	}
  7776                        L10158:
  7777                        	.line	1333
  7778                        L10155:
  7779 07:A23F: E6 15        	inc	<L138+i_1
  7780 07:A241: 38           	sec
  7781 07:A242: A5 15        	lda	<L138+i_1
  7782 07:A244: E9 30 75     	sbc	#<$7530
  7783 07:A247: 70 03        	bvs	L164
  7784 07:A249: 49 00 80     	eor	#$8000
  7785                        L164:
  7786 07:A24C: 30 03        	bmi	L165
  7787 07:A24E: 82 1A FE     	brl	L10157
  7788                        L165:
  7789                        L10156:
  7790                        ;}
  7791                        	.line	1334
  7792                        L166:
  7793 07:A251: A5 26        	lda	<L137+2
  7794 07:A253: 85 28        	sta	<L137+2+2
  7795 07:A255: A5 25        	lda	<L137+1
  7796 07:A257: 85 27        	sta	<L137+1+2
  7797 07:A259: 2B           	pld
  7798 07:A25A: 3B           	tsc
  7799 07:A25B: 18           	clc
  7800 07:A25C: 69 26 00     	adc	#L137+2
  Thu Dec  3 2020 22:25                                                Page 164


  7801 07:A25F: 1B           	tcs
  7802 07:A260: 6B           	rtl
  7803                        	.endblock	1334
  7804             00000024   L137	equ	36
  7805             00000011   L138	equ	17
  7806 07:A261:              	ends
  7807                        	efunc
  7808                        	.endfunc	1334,17,36
  7809                        	.line	1334
  7810                        	data
  7811                        L136:
  7812 00:0D31: 64 72 61 77  	db	$64,$72,$61,$77,$49,$6D,$61,$67,$65,$3A,
                    $3A,$73,$65,$65,$64
       00:0D35: 49 6D 61 67 
       00:0D39: 65 3A 3A 73 
       00:0D3D: 65 65 64 
  7813 00:0D40: 3A 00        	db	$3A,$00
  7814 00:0D42:              	ends
  7815                        ;
  7816                        ;void drawMandelbrot(void)
  7817                        ;{
  7818                        	.line	1336
  7819                        	.line	1337
  7820                        	DTOP
  7821                        	xdef	~~drawMandelbrot
  7822                        	func
  7823                        	.function	1337
  7824                        ~~drawMandelbrot:
  7825                        	longa	on
  7826                        	longi	on
  7827 07:A261: 3B           	tsc
  7828 07:A262: 38           	sec
  7829 07:A263: E9 00 00     	sbc	#L168
  7830 07:A266: 1B           	tcs
  7831 07:A267: 0B           	phd
  7832 07:A268: 5B           	tcd
  7833                        	.block	1337
  7834                        ;
  7835                        ;	// fern
  7836                        ;	/*
  7837                        ;	a[0]=0    ;a[1]=.20 ;a[2]=-.15;a[3]=.85;
  7838                        ;	b[0]=0    ;b[1]=-.26;b[2]=.28 ;b[3]=.04;
  7839                        ;	c[0]=0    ;c[1]=.23 ;c[2]=.26 ;c[3]=-.04;
  7840                        ;	d[0]=1.6  ;d[1]=.22 ;d[2]=.24 ;d[3]=.85;
  7841                        ;	e[0]=0    ;e[1]=0   ;e[2]=0   ;e[3]=0;
  7842                        ;	f[0]=0    ;f[1]=1.60;f[2]=.44 ;f[3]=1.6;
  7843                        ;	p[0]=328  ;p[1]=2621;p[2]=4915;p[3]=32767;
  7844                        ;	*/
  7845                        ;
  7846                        ;	// triangle
  7847                        ;	a[0]=0.5    ;a[1]=0.5 ;a[2]=0.5;a[3]=0;
  7848                        	.line	1351
  7849 07:A269: A9 00 00     	lda	#$0
  7850 07:A26C: 8D xx xx     	sta	|~~a
  7851 07:A26F: A9 00 3F     	lda	#$3f00
  7852 07:A272: 8D xx xx     	sta	|~~a+2
  7853                        	.line	1351
  7854 07:A275: A9 00 00     	lda	#$0
  Thu Dec  3 2020 22:25                                                Page 165


  7855 07:A278: 8D xx xx     	sta	|~~a+4
  7856 07:A27B: A9 00 3F     	lda	#$3f00
  7857 07:A27E: 8D xx xx     	sta	|~~a+4+2
  7858                        	.line	1351
  7859 07:A281: A9 00 00     	lda	#$0
  7860 07:A284: 8D xx xx     	sta	|~~a+8
  7861 07:A287: A9 00 3F     	lda	#$3f00
  7862 07:A28A: 8D xx xx     	sta	|~~a+8+2
  7863                        	.line	1351
  7864 07:A28D: A9 00 00     	lda	#$0
  7865 07:A290: 8D xx xx     	sta	|~~a+12
  7866 07:A293: A9 00 00     	lda	#$0
  7867 07:A296: 8D xx xx     	sta	|~~a+12+2
  7868                        ;	b[0]=0    ;b[1]=0;b[2]=0;b[3]=0;
  7869                        	.line	1352
  7870 07:A299: A9 00 00     	lda	#$0
  7871 07:A29C: 8D xx xx     	sta	|~~b
  7872 07:A29F: A9 00 00     	lda	#$0
  7873 07:A2A2: 8D xx xx     	sta	|~~b+2
  7874                        	.line	1352
  7875 07:A2A5: A9 00 00     	lda	#$0
  7876 07:A2A8: 8D xx xx     	sta	|~~b+4
  7877 07:A2AB: A9 00 00     	lda	#$0
  7878 07:A2AE: 8D xx xx     	sta	|~~b+4+2
  7879                        	.line	1352
  7880 07:A2B1: A9 00 00     	lda	#$0
  7881 07:A2B4: 8D xx xx     	sta	|~~b+8
  7882 07:A2B7: A9 00 00     	lda	#$0
  7883 07:A2BA: 8D xx xx     	sta	|~~b+8+2
  7884                        	.line	1352
  7885 07:A2BD: A9 00 00     	lda	#$0
  7886 07:A2C0: 8D xx xx     	sta	|~~b+12
  7887 07:A2C3: A9 00 00     	lda	#$0
  7888 07:A2C6: 8D xx xx     	sta	|~~b+12+2
  7889                        ;	c[0]=0    ;c[1]=0 ;c[2]=0 ;c[3]=0;
  7890                        	.line	1353
  7891 07:A2C9: A9 00 00     	lda	#$0
  7892 07:A2CC: 8D xx xx     	sta	|~~c
  7893 07:A2CF: A9 00 00     	lda	#$0
  7894 07:A2D2: 8D xx xx     	sta	|~~c+2
  7895                        	.line	1353
  7896 07:A2D5: A9 00 00     	lda	#$0
  7897 07:A2D8: 8D xx xx     	sta	|~~c+4
  7898 07:A2DB: A9 00 00     	lda	#$0
  7899 07:A2DE: 8D xx xx     	sta	|~~c+4+2
  7900                        	.line	1353
  7901 07:A2E1: A9 00 00     	lda	#$0
  7902 07:A2E4: 8D xx xx     	sta	|~~c+8
  7903 07:A2E7: A9 00 00     	lda	#$0
  7904 07:A2EA: 8D xx xx     	sta	|~~c+8+2
  7905                        	.line	1353
  7906 07:A2ED: A9 00 00     	lda	#$0
  7907 07:A2F0: 8D xx xx     	sta	|~~c+12
  7908 07:A2F3: A9 00 00     	lda	#$0
  7909 07:A2F6: 8D xx xx     	sta	|~~c+12+2
  7910                        ;	d[0]=0.5  ;d[1]=0.5 ;d[2]=0.5 ;d[3]=0;
  7911                        	.line	1354
  7912 07:A2F9: A9 00 00     	lda	#$0
  Thu Dec  3 2020 22:25                                                Page 166


  7913 07:A2FC: 8D xx xx     	sta	|~~d
  7914 07:A2FF: A9 00 3F     	lda	#$3f00
  7915 07:A302: 8D xx xx     	sta	|~~d+2
  7916                        	.line	1354
  7917 07:A305: A9 00 00     	lda	#$0
  7918 07:A308: 8D xx xx     	sta	|~~d+4
  7919 07:A30B: A9 00 3F     	lda	#$3f00
  7920 07:A30E: 8D xx xx     	sta	|~~d+4+2
  7921                        	.line	1354
  7922 07:A311: A9 00 00     	lda	#$0
  7923 07:A314: 8D xx xx     	sta	|~~d+8
  7924 07:A317: A9 00 3F     	lda	#$3f00
  7925 07:A31A: 8D xx xx     	sta	|~~d+8+2
  7926                        	.line	1354
  7927 07:A31D: A9 00 00     	lda	#$0
  7928 07:A320: 8D xx xx     	sta	|~~d+12
  7929 07:A323: A9 00 00     	lda	#$0
  7930 07:A326: 8D xx xx     	sta	|~~d+12+2
  7931                        ;	e[0]=0    ;e[1]=1.0   ;e[2]=0.5   ;e[3]=0;
  7932                        	.line	1355
  7933 07:A329: A9 00 00     	lda	#$0
  7934 07:A32C: 8D xx xx     	sta	|~~e
  7935 07:A32F: A9 00 00     	lda	#$0
  7936 07:A332: 8D xx xx     	sta	|~~e+2
  7937                        	.line	1355
  7938 07:A335: A9 00 00     	lda	#$0
  7939 07:A338: 8D xx xx     	sta	|~~e+4
  7940 07:A33B: A9 80 3F     	lda	#$3f80
  7941 07:A33E: 8D xx xx     	sta	|~~e+4+2
  7942                        	.line	1355
  7943 07:A341: A9 00 00     	lda	#$0
  7944 07:A344: 8D xx xx     	sta	|~~e+8
  7945 07:A347: A9 00 3F     	lda	#$3f00
  7946 07:A34A: 8D xx xx     	sta	|~~e+8+2
  7947                        	.line	1355
  7948 07:A34D: A9 00 00     	lda	#$0
  7949 07:A350: 8D xx xx     	sta	|~~e+12
  7950 07:A353: A9 00 00     	lda	#$0
  7951 07:A356: 8D xx xx     	sta	|~~e+12+2
  7952                        ;	f[0]=0    ;f[1]=0;f[2]=0.5 ;f[3]=0;
  7953                        	.line	1356
  7954 07:A359: A9 00 00     	lda	#$0
  7955 07:A35C: 8D xx xx     	sta	|~~f
  7956 07:A35F: A9 00 00     	lda	#$0
  7957 07:A362: 8D xx xx     	sta	|~~f+2
  7958                        	.line	1356
  7959 07:A365: A9 00 00     	lda	#$0
  7960 07:A368: 8D xx xx     	sta	|~~f+4
  7961 07:A36B: A9 00 00     	lda	#$0
  7962 07:A36E: 8D xx xx     	sta	|~~f+4+2
  7963                        	.line	1356
  7964 07:A371: A9 00 00     	lda	#$0
  7965 07:A374: 8D xx xx     	sta	|~~f+8
  7966 07:A377: A9 00 3F     	lda	#$3f00
  7967 07:A37A: 8D xx xx     	sta	|~~f+8+2
  7968                        	.line	1356
  7969 07:A37D: A9 00 00     	lda	#$0
  7970 07:A380: 8D xx xx     	sta	|~~f+12
  Thu Dec  3 2020 22:25                                                Page 167


  7971 07:A383: A9 00 00     	lda	#$0
  7972 07:A386: 8D xx xx     	sta	|~~f+12+2
  7973                        ;	p[0]=10813  ;p[1]=21626;p[2]=32767;p[3]=32767;
  7974                        	.line	1357
  7975 07:A389: A9 3D 2A     	lda	#$2a3d
  7976 07:A38C: 8D xx xx     	sta	|~~p
  7977                        	.line	1357
  7978 07:A38F: A9 7A 54     	lda	#$547a
  7979 07:A392: 8D xx xx     	sta	|~~p+2
  7980                        	.line	1357
  7981 07:A395: A9 FF 7F     	lda	#$7fff
  7982 07:A398: 8D xx xx     	sta	|~~p+4
  7983                        	.line	1357
  7984 07:A39B: A9 FF 7F     	lda	#$7fff
  7985 07:A39E: 8D xx xx     	sta	|~~p+6
  7986                        ;
  7987                        ;
  7988                        ;	xscale  = 10;
  7989                        	.line	1360
  7990 07:A3A1: A9 0A 00     	lda	#$a
  7991 07:A3A4: 8D xx xx     	sta	|~~xscale
  7992                        ;	yscale  = 10;
  7993                        	.line	1361
  7994 07:A3A7: A9 0A 00     	lda	#$a
  7995 07:A3AA: 8D xx xx     	sta	|~~yscale
  7996                        ;	xoffset = 320;
  7997                        	.line	1362
  7998 07:A3AD: A9 40 01     	lda	#$140
  7999 07:A3B0: 8D xx xx     	sta	|~~xoffset
  8000                        ;	yoffset = 0;
  8001                        	.line	1363
  8002 07:A3B3: 9C xx xx     	stz	|~~yoffset
  8003                        ;
  8004                        ;	k_debug_integer("drawMandelbrot:", xoffset );
  8005                        	.line	1365
  8006 07:A3B6: AD xx xx     	lda	|~~xoffset
  8007 07:A3B9: 48           	pha
  8008 07:A3BA: F4 xx xx     	pea	#^L167
  8009 07:A3BD: F4 xx xx     	pea	#<L167
  8010 07:A3C0: 22 xx xx xx  	jsl	~~k_debug_integer
  8011                        ;
  8012                        ;	drawImage(15);
  8013                        	.line	1367
  8014 07:A3C4: F4 0F 00     	pea	#<$f
  8015 07:A3C7: 22 38 A0 07  	jsl	~~drawImage
  8016                        ;
  8017                        ;}
  8018                        	.line	1369
  8019                        L171:
  8020 07:A3CB: 2B           	pld
  8021 07:A3CC: 3B           	tsc
  8022 07:A3CD: 18           	clc
  8023 07:A3CE: 69 00 00     	adc	#L168
  8024 07:A3D1: 1B           	tcs
  8025 07:A3D2: 6B           	rtl
  8026                        	.endblock	1369
  8027             00000000   L168	equ	0
  8028             00000001   L169	equ	1
  Thu Dec  3 2020 22:25                                                Page 168


  8029 07:A3D3:              	ends
  8030                        	efunc
  8031                        	.endfunc	1369,1,0
  8032                        	.line	1369
  8033                        	data
  8034                        L167:
  8035 00:0D42: 64 72 61 77  	db	$64,$72,$61,$77,$4D,$61,$6E,$64,$65,$6C,
                    $62,$72,$6F,$74,$3A
       00:0D46: 4D 61 6E 64 
       00:0D4A: 65 6C 62 72 
       00:0D4E: 6F 74 3A 
  8036 00:0D51: 00           	db	$00
  8037 00:0D52:              	ends
  8038                        ;
  8039                        	.line	1369
  8040                        	.file	"G:\devprojects\c256Foenix\fxos\FXOSWork
                    space\FXOSv1\src\fxos_desktop_proc.c",1336
  8041                        	xref	~~k_init_desktop
  8042                        	xref	~~k_send_window_message
  8043                        	xref	~~k_getKeyboardChar
  8044                        	xref	~~debug_clickable_node
  8045                        	xref	~~_k_user_send_child_message
  8046                        	xref	~~k_switch_window_page
  8047                        	xref	~~listboxWindowProc
  8048                        	xref	~~DefWindowProc
  8049                        	xref	~~k_user_DrawWindowTextToPointWithFont
  8050                        	xref	~~k_user_getFocusWindow
  8051                        	xref	~~k_user_CreateVerticalScrollBar
  8052                        	xref	~~k_user_SetMenuState
  8053                        	xref	~~k_user_AddMenuItem
  8054                        	xref	~~k_user_CreateMenuResource
  8055                        	xref	~~k_user_CreateMenu
  8056                        	xref	~~k_user_setMousePointer
  8057                        	xref	~~k_user_getFontClass
  8058                        	xref	~~k_user_CreateWindow
  8059                        	xref	~~k_user_CreateWindowClass
  8060                        	xref	~~k_user_getSystemMetric
  8061                        	xref	~~k_user_findWindow
  8062                        	xref	~~k_user_getDesktopWindow
  8063                        	xref	~~k_getHandleFromWindow
  8064                        	xref	~~k_getWindowFromHandle
  8065                        	xref	~~k_getWindowHitList
  8066                        	xref	~~k_gui_init_mousepointer
  8067                        	xref	~~k_font_getFontHeight
  8068                        	xref	~~k_create_ui_window_class
  8069                        	xref	~~k_add_window_hit_node
  8070                        	xref	~~k_vdma_fill_rect_ex
  8071                        	xref	~~k_vdma_fill_rect
  8072                        	xref	~~k_put_winicon_point
  8073                        	xref	~~k_draw_text_point
  8074                        	xref	~~k_draw_rect_slow
  8075                        	xref	~~k_draw_pixel
  8076                        	xref	~~k_getUIMenuColor
  8077                        	xref	~~k_getUIBackgroundColor
  8078                        	xref	~~k_mem_deallocate_heap
  8079                        	xref	~~k_mem_allocate_heap
  8080                        	xref	~~k_exec_enable_process_timer
  8081                        	xref	~~k_exec_get_current_process
  Thu Dec  3 2020 22:25                                                Page 169


  8082                        	xref	~~ObjectClicked
  8083                        	xref	~~k_get_rtc_second
  8084                        	xref	~~k_debug_nodelist_with_data
  8085                        	xref	~~k_debug_rect
  8086                        	xref	~~k_debug_strings
  8087                        	xref	~~k_debug_message
  8088                        	xref	~~k_debug_long
  8089                        	xref	~~k_debug_integer
  8090                        	xref	~~k_debug_pointer
  8091                        	xref	~~k_debug_char
  8092                        	xref	~~k_debug_string
  8093                        	xref	~~k_to_uppercase
  8094                        	xref	~~k_string_copy_string
  8095                        	xref	~~k_longtodec
  8096                        	xref	~~k_fxstring_removechar
  8097                        	xref	~~k_fxstring_addchar
  8098                        	xref	~~k_fxstring_new
  8099                        	xref	~~strlen
  8100                        	xref	~~strcmp
  8101                        	xref	~~memset
  8102                        	xref	~~srand
  8103                        	xref	~~rand
  8104                        	udata
  8105                        ~~f
  8106 00:0000:              	ds	16
  8107 00:0010:              	ends
  8108                        	udata
  8109                        ~~e
  8110 00:0010:              	ds	16
  8111 00:0020:              	ends
  8112                        	udata
  8113                        ~~d
  8114 00:0020:              	ds	16
  8115 00:0030:              	ends
  8116                        	udata
  8117                        ~~c
  8118 00:0030:              	ds	16
  8119 00:0040:              	ends
  8120                        	udata
  8121                        ~~b
  8122 00:0040:              	ds	16
  8123 00:0050:              	ends
  8124                        	udata
  8125                        ~~a
  8126 00:0050:              	ds	16
  8127 00:0060:              	ends
  8128                        	udata
  8129                        ~~p
  8130 00:0060:              	ds	8
  8131 00:0068:              	ends
  8132                        	udata
  8133                        ~~yoffset
  8134 00:0068:              	ds	2
  8135 00:006A:              	ends
  8136                        	udata
  8137                        ~~xoffset
  8138 00:006A:              	ds	2
  8139 00:006C:              	ends
  Thu Dec  3 2020 22:25                                                Page 170


  8140                        	udata
  8141                        ~~yscale
  8142 00:006C:              	ds	2
  8143 00:006E:              	ends
  8144                        	udata
  8145                        ~~xscale
  8146 00:006E:              	ds	2
  8147 00:0070:              	ends
  8148                        	.sym	~~k_init_desktop,~~k_init_desktop,69,18,
                    0
  8149                        	.sym	~~drawMandelbrot,~~drawMandelbrot,65,2,0
  8150                        	.sym	~~drawImage,~~drawImage,65,2,0
  8151                        	.sym	~~f,~~f,104,3,0,4
  8152                        	.sym	~~e,~~e,104,3,0,4
  8153                        	.sym	~~d,~~d,104,3,0,4
  8154                        	.sym	~~c,~~c,104,3,0,4
  8155                        	.sym	~~b,~~b,104,3,0,4
  8156                        	.sym	~~a,~~a,104,3,0,4
  8157                        	.sym	~~p,~~p,101,3,0,4
  8158                        	.sym	~~yoffset,~~yoffset,5,3,16
  8159                        	.sym	~~xoffset,~~xoffset,5,3,16
  8160                        	.sym	~~yscale,~~yscale,5,3,16
  8161                        	.sym	~~xscale,~~xscale,5,3,16
  8162                        	.sym	~~textData,~~textData,142,2,32
  8163                        	.sym	~~tempY,~~tempY,5,2,16
  8164                        	.sym	~~tempX,~~tempX,5,2,16
  8165                        	.sym	PFXDOSDEVICE,0,138,14,32,101
  8166                        	.sym	FXDOSDEVICE,0,10,14,5648,101
  8167                        	.sym	DOSINITDEVICE,0,641,14,32
  8168                        	.sym	DOSSECTORWRITER,0,654,14,32
  8169                        	.sym	DOSSECTORREADER,0,654,14,32
  8170                        	.sym	PIDENTIFY_DEVICE_DATA,0,138,14,32,100
  8171                        	.sym	IDENTIFY_DEVICE_DATA,0,10,14,4096,100
  8172                        	.sym	PIDSECTOR,0,138,14,32,77
  8173                        	.sym	IDSECTOR,0,10,14,2048,77
  8174                        	.sym	PLFN,0,138,14,32,76
  8175                        	.sym	LFN,0,10,14,256,76
  8176                        	.sym	PFAT16ENTRYLONG,0,138,14,32,75
  8177                        	.sym	FAT16ENTRYLONG,0,10,14,288,75
  8178                        	.sym	PFAT16ENTRY,0,138,14,32,74
  8179                        	.sym	FAT16ENTRY,0,10,14,256,74
  8180                        	.sym	Fat16BootSector,0,10,14,4096,73
  8181                        	.sym	PPARTITIONTABLE,0,138,14,32,72
  8182                        	.sym	PARTITIONTABLE,0,10,14,128,72
  8183                        	.sym	PFATBOOTSECTOR,0,138,14,32,71
  8184                        	.sym	FATBOOTSECTOR,0,10,14,928,71
  8185                        	.sym	fat_BS_t,0,10,14,688,70
  8186                        	.sym	fat_extBS_16_t,0,10,14,192,69
  8187                        	.sym	PFAT32EXT,0,138,14,32,68
  8188                        	.sym	fat_extBS_32_t,0,10,14,416,68
  8189                        	.sym	P_FX_FAT_DIR_INFO,0,138,14,32,67
  8190                        	.sym	FX_FAT_DIR_INFO,0,10,14,256,67
  8191                        	.sym	PFILEINFO,0,138,14,32,66
  8192                        	.sym	FILEINFO,0,10,14,136,66
  8193                        	.sym	PDISKINFO,0,138,14,32,65
  8194                        	.sym	DISKINFO,0,10,14,416,65
  8195                        	.sym	PDIRENTRY,0,138,14,32,64
  8196                        	.sym	DIRENTRY,0,10,14,256,64
  Thu Dec  3 2020 22:25                                                Page 171


  8197                        	.sym	~~textboxWindowProc,~~textboxWindowProc,
                    78,2,0
  8198                        	.sym	~~preferencesWindowProc,~~preferencesWin
                    dowProc,78,2,0
  8199                        	.sym	~~testWindowProc,~~testWindowProc,78,2,0
  8200                        	.sym	~~DesktopWindowProc,~~DesktopWindowProc,
                    78,2,0
  8201                        	.sym	~~DesktopEnvironmentProc,~~DesktopEnviro
                    nmentProc,65,2,0
  8202                        	.sym	~~k_send_window_message,~~k_send_window_
                    message,78,18,0
  8203                        	.sym	~~k_getKeyboardChar,~~k_getKeyboardChar,
                    78,18,0
  8204                        	.sym	PMOUSE_MSG_STATE,0,138,14,32,63
  8205                        	.sym	MOUSE_MSG_STATE,0,10,14,184,63
  8206                        	.sym	PFXEVENTPROCESS,0,138,14,32,62
  8207                        	.sym	FXEVENTPROCESS,0,10,14,64,62
  8208                        	.sym	FXEventProc,0,641,14,32
  8209                        	.sym	PMOUSEMSGDATA,0,138,14,32,61
  8210                        	.sym	MOUSEMSGDATA,0,10,14,64,61
  8211                        	.sym	MSGIRQ,0,5,14,16
  8212                        	.sym	MAINLOOPARGS,0,10,14,16,60
  8213                        	.sym	~~debug_clickable_node,~~debug_clickable
                    _node,65,18,0
  8214                        	.sym	~~_k_user_send_child_message,~~_k_user_s
                    end_child_message,78,18,0
  8215                        	.sym	PEACHCHILD_MSG,0,138,14,32,59
  8216                        	.sym	EACHCHILD_MSG,0,10,14,64,59
  8217                        	.sym	~~k_switch_window_page,~~k_switch_window
                    _page,65,18,0
  8218                        	.sym	~~listboxWindowProc,~~listboxWindowProc,
                    78,18,0
  8219                        	.sym	~~DefWindowProc,~~DefWindowProc,78,18,0
  8220                        	.sym	~~k_user_DrawWindowTextToPointWithFont,~
                    ~k_user_DrawWindowTextToPointWithFont,80,18,0
  8221                        	.sym	~~k_user_getFocusWindow,~~k_user_getFocu
                    sWindow,1089,18,32
  8222                        	.sym	~~k_user_CreateVerticalScrollBar,~~k_use
                    r_CreateVerticalScrollBar,1098,18,32,27
  8223                        	.sym	~~k_user_SetMenuState,~~k_user_SetMenuSt
                    ate,78,18,0
  8224                        	.sym	~~k_user_AddMenuItem,~~k_user_AddMenuIte
                    m,1089,18,32
  8225                        	.sym	~~k_user_CreateMenuResource,~~k_user_Cre
                    ateMenuResource,1089,18,32
  8226                        	.sym	~~k_user_CreateMenu,~~k_user_CreateMenu,
                    1098,18,32,27
  8227                        	.sym	~~k_user_setMousePointer,~~k_user_setMou
                    sePointer,1089,18,32
  8228                        	.sym	~~k_user_getFontClass,~~k_user_getFontCl
                    ass,1089,18,32
  8229                        	.sym	~~k_user_CreateWindow,~~k_user_CreateWin
                    dow,1098,18,32,27
  8230                        	.sym	~~k_user_CreateWindowClass,~~k_user_Crea
                    teWindowClass,1098,18,32,23
  8231                        	.sym	~~k_user_getSystemMetric,~~k_user_getSys
                    temMetric,69,18,0
  8232                        	.sym	~~k_user_findWindow,~~k_user_findWindow,
  Thu Dec  3 2020 22:25                                                Page 172


                    1089,18,32
  8233                        	.sym	~~k_user_getDesktopWindow,~~k_user_getDe
                    sktopWindow,1089,18,32
  8234                        	.sym	~~k_getHandleFromWindow,~~k_getHandleFro
                    mWindow,1089,18,32
  8235                        	.sym	~~k_getWindowFromHandle,~~k_getWindowFro
                    mHandle,1098,18,32,27
  8236                        	.sym	~~k_getWindowHitList,~~k_getWindowHitLis
                    t,1098,18,32,2
  8237                        	.sym	~~k_gui_init_mousepointer,~~k_gui_init_m
                    ousepointer,65,18,0
  8238                        	.sym	~~k_font_getFontHeight,~~k_font_getFontH
                    eight,80,18,0
  8239                        	.sym	~~k_create_ui_window_class,~~k_create_ui
                    _window_class,1098,18,32,27
  8240                        	.sym	~~k_add_window_hit_node,~~k_add_window_h
                    it_node,65,18,0
  8241                        	.sym	~~k_vdma_fill_rect_ex,~~k_vdma_fill_rect
                    _ex,65,18,0
  8242                        	.sym	~~k_vdma_fill_rect,~~k_vdma_fill_rect,65
                    ,18,0
  8243                        	.sym	~~k_put_winicon_point,~~k_put_winicon_po
                    int,69,18,0
  8244                        	.sym	~~k_draw_text_point,~~k_draw_text_point,
                    69,18,0
  8245                        	.sym	~~k_draw_rect_slow,~~k_draw_rect_slow,65
                    ,18,0
  8246                        	.sym	~~k_draw_pixel,~~k_draw_pixel,65,18,0
  8247                        	.sym	~~k_getUIMenuColor,~~k_getUIMenuColor,69
                    ,18,0
  8248                        	.sym	~~k_getUIBackgroundColor,~~k_getUIBackgr
                    oundColor,69,18,0
  8249                        	.sym	PCUR_PALETTE_MAP,0,138,14,32,58
  8250                        	.sym	CUR_PALETTE_MAP,0,10,14,400,58
  8251                        	.sym	PCLICKDETECTED,0,138,14,32,57
  8252                        	.sym	CLICKDETECTED,0,10,14,64,57
  8253                        	.sym	OBJECTCLICKED,0,641,14,32
  8254                        	.sym	~~k_mem_deallocate_heap,~~k_mem_dealloca
                    te_heap,65,18,0
  8255                        	.sym	~~k_mem_allocate_heap,~~k_mem_allocate_h
                    eap,1089,18,32
  8256                        	.sym	MemoryCallback,0,641,14,32
  8257                        	.sym	PFXMEMORYMAP,0,138,14,32,56
  8258                        	.sym	FXMEMORYMAP,0,10,14,2072,56
  8259                        	.sym	UMM_HEAP_INFO,0,10,14,256,55
  8260                        	.sym	~~k_exec_enable_process_timer,~~k_exec_e
                    nable_process_timer,82,18,0
  8261                        	.sym	~~k_exec_get_current_process,~~k_exec_ge
                    t_current_process,1098,18,32,17
  8262                        	.sym	~~ObjectClicked,~~ObjectClicked,65,18,0
  8263                        	.sym	PCOMMANDARGS,0,138,14,32,54
  8264                        	.sym	COMMANDARGS,0,10,14,64,54
  8265                        	.sym	PTOKENIZESTATE,0,133,14,32
  8266                        	.sym	TOKENIZESTATE,0,5,14,16
  8267                        	.sym	PTOKEN,0,138,14,32,53
  8268                        	.sym	TOKEN,0,10,14,64,53
  8269                        	.sym	PTOKENTYPE,0,133,14,32
  8270                        	.sym	TOKENTYPE,0,5,14,16
  Thu Dec  3 2020 22:25                                                Page 173


  8271                        	.sym	FXCommandHandler,0,656,14,32
  8272                        	.sym	PCONSOLECTX,0,138,14,32,52
  8273                        	.sym	CONSOLECTX,0,10,14,1144,52
  8274                        	.sym	PSPINNERCTX,0,138,14,32,51
  8275                        	.sym	SPINNERCTX,0,10,14,48,51
  8276                        	.sym	DEVICEDRIVER_COMMAND,0,656,14,32
  8277                        	.sym	DEVICEDRIVER_UNLOAD,0,654,14,32
  8278                        	.sym	DEVICEDRIVER_WRITE,0,656,14,32
  8279                        	.sym	DEVICEDRIVER_READ,0,656,14,32
  8280                        	.sym	DEVICEDRIVER_LOAD,0,654,14,32
  8281                        	.sym	PFX_BLOCK_DEVICE_DRIVER,0,138,14,32,50
  8282                        	.sym	FX_BLOCK_DEVICE_DRIVER,0,10,14,1448,50
  8283                        	.sym	PFX_DEVICE_DRIVER,0,138,14,32,49
  8284                        	.sym	FX_DEVICE_DRIVER,0,10,14,1416,49
  8285                        	.sym	~~k_get_rtc_second,~~k_get_rtc_second,80
                    ,18,0
  8286                        	.sym	~~k_debug_nodelist_with_data,~~k_debug_n
                    odelist_with_data,65,18,0
  8287                        	.sym	~~k_debug_rect,~~k_debug_rect,65,18,0
  8288                        	.sym	~~k_debug_strings,~~k_debug_strings,65,1
                    8,0
  8289                        	.sym	~~k_debug_message,~~k_debug_message,65,1
                    8,0
  8290                        	.sym	~~k_debug_long,~~k_debug_long,65,18,0
  8291                        	.sym	~~k_debug_integer,~~k_debug_integer,65,1
                    8,0
  8292                        	.sym	~~k_debug_pointer,~~k_debug_pointer,65,1
                    8,0
  8293                        	.sym	~~k_debug_char,~~k_debug_char,65,18,0
  8294                        	.sym	~~k_debug_string,~~k_debug_string,65,18,
                    0
  8295                        	.sym	PDEBUGBYTEBITS,0,138,14,32,48
  8296                        	.sym	DEBUGBYTEBITS,0,10,14,8,48
  8297                        	.sym	PFXENVIRONMENT,0,138,14,32,47
  8298                        	.sym	FXENVIRONMENT,0,10,14,96,47
  8299                        	.sym	PFXZERPOPAGE,0,138,14,32,46
  8300                        	.sym	FXZERPOPAGE,0,10,14,448,46
  8301                        	.sym	KERNELTRAPCALL,0,641,14,32
  8302                        	.sym	FOREACHNODEUNTIL,0,654,14,32
  8303                        	.sym	FOREACHNODE,0,641,14,32
  8304                        	.sym	~~k_to_uppercase,~~k_to_uppercase,1102,1
                    8,32
  8305                        	.sym	~~k_string_copy_string,~~k_string_copy_s
                    tring,1102,18,32
  8306                        	.sym	~~k_longtodec,~~k_longtodec,1102,18,32
  8307                        	.sym	~~k_fxstring_removechar,~~k_fxstring_rem
                    ovechar,78,18,0
  8308                        	.sym	~~k_fxstring_addchar,~~k_fxstring_addcha
                    r,1102,18,32
  8309                        	.sym	~~k_fxstring_new,~~k_fxstring_new,1098,1
                    8,32,45
  8310                        	.sym	PFXSTRING,0,138,14,32,45
  8311                        	.sym	FXSTRING,0,10,14,64,45
  8312                        	.sym	~~strlen,~~strlen,80,18,0
  8313                        	.sym	~~strcmp,~~strcmp,69,18,0
  8314                        	.sym	~~memset,~~memset,1089,18,32
  8315                        	.sym	Boolean_T,0,5,14,16
  8316                        	.sym	~~srand,~~srand,65,18,0
  Thu Dec  3 2020 22:25                                                Page 174


  8317                        	.sym	~~rand,~~rand,69,18,0
  8318                        	.sym	ldiv_t,0,10,14,64,43
  8319                        	.sym	div_t,0,10,14,32,42
  8320                        	.sym	wctype_t,0,16,14,16
  8321                        	.sym	wint_t,0,16,14,16
  8322                        	.sym	wchar_t,0,14,14,8
  8323                        	.sym	ptrdiff_t,0,7,14,32
  8324                        	.sym	size_t,0,16,14,16
  8325                        	.sym	PFXCOMBUFFER,0,138,14,32,41
  8326                        	.sym	FXCOMBUFFER,0,10,14,2080,41
  8327                        	.sym	PSUBMENULIST,0,138,14,32,40
  8328                        	.sym	SUBMENULIST,0,10,14,40,40
  8329                        	.sym	HSUBMENU,0,7,14,32
  8330                        	.sym	PSUBMENU,0,138,14,32,39
  8331                        	.sym	SUBMENU,0,10,14,64,39
  8332                        	.sym	MenuAction,0,641,14,32
  8333                        	.sym	PMENUANCHOR,0,138,14,32,38
  8334                        	.sym	MENUANCHOR,0,10,14,144,38
  8335                        	.sym	PTEXTBOX,0,138,14,32,37
  8336                        	.sym	TEXTBOX,0,10,14,144,37
  8337                        	.sym	PLISTBOX,0,138,14,32,36
  8338                        	.sym	LISTBOX,0,10,14,240,36
  8339                        	.sym	PSCROLLBAR,0,138,14,32,35
  8340                        	.sym	SCROLLBAR,0,10,14,192,35
  8341                        	.sym	PBUTTON,0,138,14,32,34
  8342                        	.sym	BUTTON,0,10,14,80,34
  8343                        	.sym	PMENUDROPDOWNDATA,0,138,14,32,33
  8344                        	.sym	MENUDROPDOWNDATA,0,10,14,3568,33
  8345                        	.sym	PMENUTAG,0,138,14,32,32
  8346                        	.sym	MENUTAG,0,10,14,112,32
  8347                        	.sym	PMENU,0,138,14,32,31
  8348                        	.sym	MENU,0,10,14,248,31
  8349                        	.sym	HMENURESOURCE,0,129,14,32
  8350                        	.sym	HTEXTBOX,0,7,14,32
  8351                        	.sym	PTEXTBOXX,0,138,14,32,30
  8352                        	.sym	TEXTBOXX,0,10,14,112,30
  8353                        	.sym	FONTMETRIC,0,10,14,32,29
  8354                        	.sym	TITLE,0,142,14,32
  8355                        	.sym	PHANDLE,0,1153,14,32
  8356                        	.sym	HANDLE,0,129,14,32
  8357                        	.sym	PWINDOWEX,0,138,14,32,28
  8358                        	.sym	WINDOWEX,0,10,14,2704,28
  8359                        	.sym	PWINDOW,0,138,14,32,27
  8360                        	.sym	WINDOW,0,10,14,2808,27
  8361                        	.sym	PDRAGDATA,0,138,14,32,26
  8362                        	.sym	DRAGDATA,0,10,14,136,26
  8363                        	.sym	PNCCLICKABLE,0,138,14,32,25
  8364                        	.sym	NCCLICKABLE,0,10,14,88,25
  8365                        	.sym	HCLICKABLE,0,7,14,32
  8366                        	.sym	PCLICKABLE,0,138,14,32,24
  8367                        	.sym	CLICKABLE,0,10,14,88,24
  8368                        	.sym	PWNDCLASS,0,138,14,32,23
  8369                        	.sym	WNDCLASS,0,10,14,256,23
  8370                        	.sym	HBRUSH,0,129,14,32
  8371                        	.sym	HCURSOR,0,129,14,32
  8372                        	.sym	HICON,0,129,14,32
  8373                        	.sym	HINSTANCE,0,129,14,32
  8374                        	.sym	FXWndProc,0,654,14,32
  Thu Dec  3 2020 22:25                                                Page 175


  8375                        	.sym	PRECT,0,138,14,32,22
  8376                        	.sym	RECT,0,10,14,64,22
  8377                        	.sym	PPOINT,0,138,14,32,21
  8378                        	.sym	POINT,0,10,14,32,21
  8379                        	.sym	PFXPROPERTY,0,138,14,32,19
  8380                        	.sym	FXPROPERTY,0,10,14,384,19
  8381                        	.sym	SCANCODE,0,14,14,8
  8382                        	.sym	KEYCODE,0,14,14,8
  8383                        	.sym	PFXPROCESSMESSAGE,0,138,14,32,18
  8384                        	.sym	FXPROCESSMESSAGE,0,10,14,112,18
  8385                        	.sym	PFXPROCESS,0,138,14,32,17
  8386                        	.sym	FXPROCESS,0,10,14,800,17
  8387                        	.sym	PDESKTOP_CONTROL,0,138,14,32,16
  8388                        	.sym	DESKTOP_CONTROL,0,10,14,392,16
  8389                        	.sym	PCONSOLE_CONTROL,0,138,14,32,15
  8390                        	.sym	CONSOLE_CONTROL,0,10,14,448,15
  8391                        	.sym	FXProcessProc,0,641,14,32
  8392                        	.sym	PFXCMDMESSAGE,0,138,14,32,14
  8393                        	.sym	FXCMDMESSAGE,0,10,14,304,14
  8394                        	.sym	PFXOSMESSAGE,0,138,14,32,13
  8395                        	.sym	FXOSMESSAGE,0,10,14,304,13
  8396                        	.sym	PINT_REGS,0,138,14,32,12
  8397                        	.sym	INT_REGS,0,10,14,104,12
  8398                        	.sym	TASK_STACK,0,10,14,32,11
  8399                        	.sym	TASK,0,10,14,48,10
  8400                        	.sym	PIRQDATA,0,138,14,32,9
  8401                        	.sym	IRQDATA,0,10,14,48,9
  8402                        	.sym	HMENU,0,129,14,32
  8403                        	.sym	HWND,0,129,14,32
  8404                        	.sym	MSGDATA,0,14,14,8
  8405                        	.sym	MSGDEST,0,18,14,32
  8406                        	.sym	MSGSRC,0,18,14,32
  8407                        	.sym	MSGTYPE,0,16,14,16
  8408                        	.sym	PROCESS_RESOURCE_LIST,0,138,14,32,3
  8409                        	.sym	PROCESS_TLS_LIST,0,138,14,32,3
  8410                        	.sym	SEMAPHORE_LIST,0,138,14,32,3
  8411                        	.sym	FILE_BLOCK_LIST,0,138,14,32,3
  8412                        	.sym	FILE_PATH_LIST,0,138,14,32,3
  8413                        	.sym	PROCEDURE_LIST,0,138,14,32,3
  8414                        	.sym	FILE_HANDLE,0,138,14,32,8
  8415                        	.sym	FILE_BLOCK,0,10,14,552,8
  8416                        	.sym	SEMAPHORE,0,10,14,16,7
  8417                        	.sym	PPROCESS_SIGNAL,0,138,14,32,6
  8418                        	.sym	PROCESS_SIGNAL,0,10,14,16,6
  8419                        	.sym	KRESULT,0,18,14,32
  8420                        	.sym	PKERNEL_ERROR,0,138,14,32,5
  8421                        	.sym	KERNEL_ERROR,0,10,14,32,5
  8422                        	.sym	PROCESS_STATUS,0,16,14,16
  8423                        	.sym	FILE_PATH_NAME,0,142,14,32
  8424                        	.sym	PROCESS_RESOURCE,0,129,14,32
  8425                        	.sym	PROCESS_TLS,0,129,14,32
  8426                        	.sym	PROCESS_CTX,0,129,14,32
  8427                        	.sym	USERID,0,16,14,16
  8428                        	.sym	PROCESS_ID,0,18,14,32
  8429                        	.sym	PROCESS_BANK,0,14,14,8
  8430                        	.sym	PFXQUEUE,0,138,14,32,4
  8431                        	.sym	FXQUEUE,0,10,14,80,4
  8432                        	.sym	PFXNODELIST,0,138,14,32,3
  Thu Dec  3 2020 22:25                                                Page 176


  8433                        	.sym	FXNODELIST,0,10,14,96,3
  8434                        	.sym	NodeListDeallocator,0,641,14,32
  8435                        	.sym	PFXNODE,0,138,14,32,2
  8436                        	.sym	FXNODE,0,10,14,384,2
  8437                        	.sym	PBYTEBITS,0,138,14,32,1
  8438                        	.sym	BYTEBITS,0,10,14,8,1
  8439                        	.sym	HCOLOR,0,129,14,32
  8440                        	.sym	HFONT,0,129,14,32
  8441                        	.sym	HDC,0,129,14,32
  8442                        	.sym	HPOINTER,0,129,14,32
  8443                        	.sym	uint32_t,0,18,14,32
  8444                        	.sym	uint8_t,0,14,14,8
  8445                        	.sym	PFAR,0,142,14,32
  8446                        	.sym	LPBOOL,0,142,14,32
  8447                        	.sym	BOOL,0,14,14,8
  8448                        	.sym	DWORD,0,18,14,32
  8449                        	.sym	ULONG,0,18,14,32
  8450                        	.sym	LPLONG,0,135,14,32
  8451                        	.sym	LONG,0,7,14,32
  8452                        	.sym	PUINT,0,144,14,32
  8453                        	.sym	USHORT,0,16,14,16
  8454                        	.sym	UINT,0,16,14,16
  8455                        	.sym	INT,0,5,14,16
  8456                        	.sym	WORD,0,5,14,16
  8457                        	.sym	PBYTE,0,142,14,32
  8458                        	.sym	BYTE,0,14,14,8
  8459                        	.sym	UCHAR,0,14,14,8
  8460                        	.sym	LPWCSTR,0,142,14,32
  8461                        	.sym	LPCSTR,0,142,14,32
  8462                        	.sym	LPSTR,0,142,14,32
  8463                        	.sym	LPCHAR,0,142,14,32
  8464                        	.sym	CHAR,0,14,14,8
  8465                        	.sym	LPVOID,0,129,14,32
  8466                        	.sym	VOID,0,1,14,32
  8467                        	end


      Lines assembled: 8467
      Errors: 0
