  Thu Dec  3 2020 22:25                                                Page 1


                     ***************************************
                     **      WDC 65C816 Macro Assembler   **
                     **                                   **
                     **     Version 3.49.1- Feb  6 2006    **
                     ***************************************

     1                        ;:ts=8
     2             00000001   R0	equ	1
     3             00000005   R1	equ	5
     4             00000009   R2	equ	9
     5             0000000D   R3	equ	13
     6                        	.file	"G:\devprojects\c256Foenix\fxos\FXOSWork
                    space\FXOSv1\src\OMF_Dump.c",0
     7                        ;/************************************************
                    ************************/
     8                        ;/*                                               
                                           */
     9                        ;/*  OMF_Dump.c : Module pour le dump en format Te
                    xt des fichiers OMF.   */
    10                        ;/*                                               
                                           */
    11                        ;/************************************************
                    ************************/
    12                        ;/*  Auteur : Olivier ZARDINI  *  Brutal Deluxe So
                    ftware  *  Avril 2013  */
    13                        ;/************************************************
                    ************************/
    14                        ;#include "fxtypes.h"
    15                        	.file	"G:\devprojects\c256Foenix\fxos\FXOSWork
                    space\FXOSv1\src\fxtypes.h",0
    16                        	.stag	_fx_bytebits,8,1
    17                        	.member	b7,0,14,17,1
    18                        	.member	b6,1,14,17,1
    19                        	.member	b5,2,14,17,1
    20                        	.member	b4,3,14,17,1
    21                        	.member	b3,4,14,17,1
    22                        	.member	b2,5,14,17,1
    23                        	.member	b1,6,14,17,1
    24                        	.member	b0,7,14,17,1
    25                        	.eos
    26                        	.stag	_fx_node,384,2
    27                        	.member	type,0,14,8,8
    28                        	.member	Reserved0,8,14,8,8
    29                        	.member	data,16,129,8,32
    30                        	.member	last,48,138,8,32,2
    31                        	.member	next,80,138,8,32,2
    32                        	.member	name,112,110,8,0,32
    33                        	.member	Reserved1,368,16,8,16
    34                        	.eos
    35                        	.stag	_fx_nodelist,96,3
    36                        	.member	listhead,0,138,8,32,2
    37                        	.member	listData,32,129,8,32
    38                        	.member	deallocator,64,641,8,32
    39                        	.eos
    40                        	.stag	_fx_queue,80,4
    41                        	.member	count,0,5,8,16
    42                        	.member	front,16,138,8,32,2
    43                        	.member	rear,48,138,8,32,2
  Thu Dec  3 2020 22:25                                                Page 2


    44                        	.eos
    45                        	.stag	fake5_,32,5
    46                        	.member	subsystem,0,14,8,8
    47                        	.member	level,8,14,8,8
    48                        	.member	error,16,16,8,16
    49                        	.eos
    50                        	.stag	_fx_process_signal,16,6
    51                        	.member	cbSize,0,16,8,16
    52                        	.eos
    53                        	.stag	_fx_semaphore,16,7
    54                        	.member	reserved,0,5,8,16
    55                        	.eos
    56                        	.stag	_fx_fileBlock,552,8
    57                        	.member	openCount,0,16,8,16
    58                        	.member	lockCount,16,16,8,16
    59                        	.member	dirty,32,14,8,8
    60                        	.member	fileBuffer,40,110,8,0,64
    61                        	.eos
    62                        	.stag	_fx_irq_data,48,9
    63                        	.member	line,0,5,8,16
    64                        	.member	keycode,16,142,8,32
    65                        	.eos
    66                        	.stag	_task,48,10
    67                        	.member	SPL,0,14,8,8
    68                        	.member	SPH,8,14,8,8
    69                        	.member	pstack,16,142,8,32
    70                        	.eos
    71                        	.stag	_task_stack,32,11
    72                        	.member	SS,0,142,8,32
    73                        	.eos
    74                        	.stag	int_regs,104,12
    75                        	.member	PB,0,14,8,8
    76                        	.member	PH,8,14,8,8
    77                        	.member	PL,16,14,8,8
    78                        	.member	PP,24,14,8,8
    79                        	.member	DB,32,14,8,8
    80                        	.member	DH,40,14,8,8
    81                        	.member	DL,48,14,8,8
    82                        	.member	AH,56,14,8,8
    83                        	.member	AL,64,14,8,8
    84                        	.member	XH,72,14,8,8
    85                        	.member	XL,80,14,8,8
    86                        	.member	YH,88,14,8,8
    87                        	.member	YL,96,14,8,8
    88                        	.eos
    89                        	.stag	_fx_eventMessage,304,13
    90                        	.member	src,0,18,8,32
    91                        	.member	dest,32,18,8,32
    92                        	.member	type,64,16,8,16
    93                        	.member	hwnd,80,129,8,32
    94                        	.member	pheap,112,129,8,32
    95                        	.member	msgTime,144,18,8,32
    96                        	.member	data,176,110,8,0,16
    97                        	.eos
    98                        	.stag	_fx_cmdMessage,304,14
    99                        	.member	src,0,18,8,32
   100                        	.member	dest,32,18,8,32
   101                        	.member	type,64,16,8,16
  Thu Dec  3 2020 22:25                                                Page 3


   102                        	.member	hwnd,80,129,8,32
   103                        	.member	pheap,112,129,8,32
   104                        	.member	msgTime,144,18,8,32
   105                        	.member	cmdCId,176,16,8,16
   106                        	.member	cmdMId,192,16,8,16
   107                        	.member	parameter1,208,18,8,32
   108                        	.member	parameter2,240,18,8,32
   109                        	.member	parameter3,272,18,8,32
   110                        	.eos
   111                        	.stag	_fx_console_ctl,448,15
   112                        	.member	maxCols,0,5,8,16
   113                        	.member	maxRows,16,5,8,16
   114                        	.member	curX,32,5,8,16
   115                        	.member	curY,48,5,8,16
   116                        	.member	fgColor,64,5,8,16
   117                        	.member	bgColor,80,5,8,16
   118                        	.member	mode,96,14,8,8
   119                        	.member	kbBuffer,104,101,8,0,16
   120                        	.member	screenBuffer,360,142,8,32
   121                        	.member	desktopMode,392,14,8,8
   122                        	.member	lastMouseButton,400,5,8,16
   123                        	.member	lastMouseX,416,5,8,16
   124                        	.member	lastMouseY,432,5,8,16
   125                        	.eos
   126                        	.stag	_fx_desktop_ctl,392,16
   127                        	.member	desktopMode,0,14,8,8
   128                        	.member	cursorCtl,8,5,8,16
   129                        	.member	cursorState,24,5,8,16
   130                        	.member	backgroundColor,40,5,8,16
   131                        	.member	foregroundColor,56,5,8,16
   132                        	.member	menuMode,72,5,8,16
   133                        	.member	lastMouseButton,88,5,8,16
   134                        	.member	lastMouseX,104,5,8,16
   135                        	.member	lastMouseY,120,5,8,16
   136                        	.member	currentDiskName,136,142,8,32
   137                        	.member	diskNodes,168,129,8,32
   138                        	.member	titleNodes,200,129,8,32
   139                        	.member	menuNodes,232,129,8,32
   140                        	.member	iconNodes,264,129,8,32
   141                        	.member	windowNodes,296,129,8,32
   142                        	.member	fontNodes,328,129,8,32
   143                        	.member	wndProc,360,138,8,32,3
   144                        	.eos
   145                        	.stag	_fx_process,800,17
   146                        	.member	cbSize,0,5,8,16
   147                        	.member	procId,16,18,8,32
   148                        	.member	parentId,48,18,8,32
   149                        	.member	ctx,80,129,8,32
   150                        	.member	userId,112,16,8,16
   151                        	.member	status,128,16,8,16
   152                        	.member	foregroundActive,144,14,8,8
   153                        	.member	tls,152,1121,8,32,8
   154                        	.member	commandLine,408,142,8,32
   155                        	.member	semaphores,440,138,8,32,3
   156                        	.member	fileHandles,472,138,8,32,3
   157                        	.member	pathList,504,138,8,32,3
   158                        	.member	resources,536,138,8,32,3
   159                        	.member	timerAware,568,14,8,8
  Thu Dec  3 2020 22:25                                                Page 4


   160                        	.member	timerTicks,576,112,8,0,2
   161                        	.member	timerTickCount,608,112,8,0,2
   162                        	.member	kernelError,640,10,8,32,5
   163                        	.member	consoleCtl,672,138,8,32,15
   164                        	.member	desktopCtl,704,138,8,32,16
   165                        	.member	execProc,736,641,8,32
   166                        	.member	startupArgs,768,129,8,32
   167                        	.eos
   168                        	.stag	_fxProcessMessage,112,18
   169                        	.member	src,0,18,8,32
   170                        	.member	dest,32,18,8,32
   171                        	.member	type,64,16,8,16
   172                        	.member	processInfo,80,138,8,32,17
   173                        	.eos
   174                        	.stag	_fx_property,384,19
   175                        	.member	name,0,110,8,0,16
   176                        	.member	value,128,110,8,0,32
   177                        	.eos
   178                        	.utag	_24bitPointer,32,20
   179                        	.member	address,0,142,11,32
   180                        	.member	bytes,0,110,11,0,4
   181                        	.eos
   182                        	.stag	_PointStruct,32,21
   183                        	.member	x,0,5,8,16
   184                        	.member	y,16,5,8,16
   185                        	.eos
   186                        	.stag	_RectStruct,64,22
   187                        	.member	x,0,5,8,16
   188                        	.member	y,16,5,8,16
   189                        	.member	width,32,5,8,16
   190                        	.member	height,48,5,8,16
   191                        	.eos
   192                        	.stag	_k_WindowClass,256,23
   193                        	.member	cbSize,0,16,8,16
   194                        	.member	style,16,16,8,16
   195                        	.member	pWndProc,32,654,8,32
   196                        	.member	hInstance,64,129,8,32
   197                        	.member	hIcon,96,129,8,32
   198                        	.member	hCursor,128,129,8,32
   199                        	.member	hbrBackground,160,129,8,32
   200                        	.member	lpszMenuName,192,142,8,32
   201                        	.member	lpszClassName,224,142,8,32
   202                        	.eos
   203                        	.stag	_ClickableRect,88,24
   204                        	.member	area,0,10,8,64,22
   205                        	.member	z,64,5,8,16
   206                        	.member	enabled,80,14,8,8
   207                        	.eos
   208                        	.stag	_NCClickableRect,88,25
   209                        	.member	area,0,10,8,64,22
   210                        	.member	msgType,64,16,8,16
   211                        	.member	enabled,80,14,8,8
   212                        	.eos
   213                        	.stag	_DragData,136,26
   214                        	.member	area,0,10,8,64,22
   215                        	.member	xoffset,64,5,8,16
   216                        	.member	yoffset,80,5,8,16
   217                        	.member	msgType,96,16,8,16
  Thu Dec  3 2020 22:25                                                Page 5


   218                        	.member	isDrag,112,14,8,8
   219                        	.member	canDrag,120,14,8,8
   220                        	.member	canDrop,128,14,8,8
   221                        	.eos
   222                        	.stag	_k_WindowStruct,2808,27
   223                        	.member	cbSize,0,16,8,16
   224                        	.member	style,16,18,8,32
   225                        	.member	win_id,48,5,8,16
   226                        	.member	win_x,64,5,8,16
   227                        	.member	win_y,80,5,8,16
   228                        	.member	win_width,96,5,8,16
   229                        	.member	win_height,112,5,8,16
   230                        	.member	wndRect,128,10,8,64,22
   231                        	.member	clientRect,192,10,8,64,22
   232                        	.member	nonclientGadgets,256,106,8,0,25,16
   233                        	.member	clickable,1664,129,8,32
   234                        	.member	win_title,1696,110,8,0,32
   235                        	.member	Reserved0,1952,16,8,16
   236                        	.member	win_class,1968,110,8,0,16
   237                        	.member	win_class_name,2096,110,8,0,32
   238                        	.member	nBitmapLayer,2352,16,8,16
   239                        	.member	procid,2368,18,8,32
   240                        	.member	pWndClass,2400,138,8,32,23
   241                        	.member	pParentWindow,2432,129,8,32
   242                        	.member	hMenu,2464,129,8,32
   243                        	.member	pChildWindows,2496,138,8,32,3
   244                        	.member	pChildHitList,2528,138,8,32,3
   245                        	.member	isVisible,2560,14,8,8
   246                        	.member	windowData,2568,129,8,32
   247                        	.member	clientData,2600,1121,8,32,6
   248                        	.member	isClosed,2792,14,8,8
   249                        	.member	isClosing,2800,14,8,8
   250                        	.eos
   251                        	.stag	_k_WindowStructEx,2704,28
   252                        	.member	cbSize,0,16,8,16
   253                        	.member	style,16,18,8,32
   254                        	.member	win_id,48,5,8,16
   255                        	.member	win_x,64,5,8,16
   256                        	.member	win_y,80,5,8,16
   257                        	.member	win_width,96,5,8,16
   258                        	.member	win_height,112,5,8,16
   259                        	.member	wndRect,128,10,8,64,22
   260                        	.member	clientRect,192,10,8,64,22
   261                        	.member	nonclientGadgets,256,106,8,0,25,16
   262                        	.member	clickable,1664,129,8,32
   263                        	.member	win_title,1696,110,8,0,32
   264                        	.member	Reserved0,1952,16,8,16
   265                        	.member	win_class,1968,110,8,0,16
   266                        	.member	nBitmapLayer,2096,16,8,16
   267                        	.member	procid,2112,18,8,32
   268                        	.member	pWndClass,2144,138,8,32,23
   269                        	.member	pParentWindow,2176,129,8,32
   270                        	.member	hMenu,2208,129,8,32
   271                        	.member	pChildWindows,2240,138,8,32,3
   272                        	.member	pChildHitList,2272,138,8,32,3
   273                        	.member	isVisible,2304,14,8,8
   274                        	.member	windowData,2312,129,8,32
   275                        	.member	clientData,2344,1121,8,32,4
  Thu Dec  3 2020 22:25                                                Page 6


   276                        	.member	isClosed,2472,14,8,8
   277                        	.member	hWnd,2480,129,8,32
   278                        	.member	localRect,2512,10,8,64,22
   279                        	.member	globalRect,2576,10,8,64,22
   280                        	.member	clientOffsetRect,2640,10,8,64,22
   281                        	.eos
   282                        	.stag	_FontMetric,32,29
   283                        	.member	width,0,5,8,16
   284                        	.member	height,16,5,8,16
   285                        	.eos
   286                        	.stag	_ctl_Textbox,112,30
   287                        	.member	win_id,0,5,8,16
   288                        	.member	win_x,16,5,8,16
   289                        	.member	win_y,32,5,8,16
   290                        	.member	win_width,48,5,8,16
   291                        	.member	win_height,64,5,8,16
   292                        	.member	content,80,1166,8,32
   293                        	.eos
   294                        	.stag	_MenuStruct,248,31
   295                        	.member	cx,0,5,8,16
   296                        	.member	cy,16,5,8,16
   297                        	.member	width,32,5,8,16
   298                        	.member	height,48,5,8,16
   299                        	.member	fcolor,64,14,8,8
   300                        	.member	bcolor,72,14,8,8
   301                        	.member	chromeLeft,80,14,8,8
   302                        	.member	chromeRight1,88,14,8,8
   303                        	.member	chromeRight2,96,14,8,8
   304                        	.member	itemId,104,16,8,16
   305                        	.member	pCaption,120,142,8,32
   306                        	.member	subMenus,152,138,8,32,3
   307                        	.member	pBackground,184,129,8,32
   308                        	.member	hWndOwner,216,129,8,32
   309                        	.eos
   310                        	.stag	fake32_,112,32
   311                        	.member	menuId,0,16,8,16
   312                        	.member	caption,16,142,8,32
   313                        	.member	rect,48,10,8,64,22
   314                        	.eos
   315                        	.stag	fake33_,3568,33
   316                        	.member	pParent,0,138,8,32,27
   317                        	.member	rect,32,10,8,64,22
   318                        	.member	captions,96,1134,8,32,24
   319                        	.member	chrome,864,110,8,0,24
   320                        	.member	ids,1056,112,8,0,24
   321                        	.member	clickable,1440,106,8,0,24,24
   322                        	.member	selected,3552,16,8,16
   323                        	.eos
   324                        	.stag	_fx_button_t,80,34
   325                        	.member	pCaption,0,142,8,32
   326                        	.member	data,32,129,8,32
   327                        	.member	captionPixelWidth,64,16,8,16
   328                        	.eos
   329                        	.stag	_fx_scrollbar_t,192,35
   330                        	.member	min,0,16,8,16
   331                        	.member	max,16,16,8,16
   332                        	.member	increment,32,16,8,16
   333                        	.member	stopsize,48,16,8,16
  Thu Dec  3 2020 22:25                                                Page 7


   334                        	.member	location,64,5,8,16
   335                        	.member	state,80,5,8,16
   336                        	.member	rectThumb,96,10,8,64,22
   337                        	.member	data,160,129,8,32
   338                        	.eos
   339                        	.stag	_fx_listbox_t,240,36
   340                        	.member	pos,0,5,8,16
   341                        	.member	selected,16,16,8,16
   342                        	.member	offsetX,32,5,8,16
   343                        	.member	offsetY,48,5,8,16
   344                        	.member	inc,64,5,8,16
   345                        	.member	direction,80,5,8,16
   346                        	.member	top,96,5,8,16
   347                        	.member	bottom,112,5,8,16
   348                        	.member	indexTop,128,5,8,16
   349                        	.member	indexBottom,144,5,8,16
   350                        	.member	maxItems,160,16,8,16
   351                        	.member	fontSet,176,142,8,32
   352                        	.member	data,208,129,8,32
   353                        	.eos
   354                        	.stag	_fx_textbox_t,144,37
   355                        	.member	pos,0,5,8,16
   356                        	.member	selected,16,16,8,16
   357                        	.member	offsetX,32,5,8,16
   358                        	.member	offsetY,48,5,8,16
   359                        	.member	isShifted,64,14,8,8
   360                        	.member	cursorState,72,14,8,8
   361                        	.member	fontSet,80,142,8,32
   362                        	.member	data,112,129,8,32
   363                        	.eos
   364                        	.stag	_fx_menuAnchor_t,144,38
   365                        	.member	pCaption,0,142,8,32
   366                        	.member	renderLayoutX,32,16,8,16
   367                        	.member	renderLayoutY,48,16,8,16
   368                        	.member	captionPixelWidth,64,16,8,16
   369                        	.member	data,80,129,8,32
   370                        	.member	droppedWindow,112,138,8,32,27
   371                        	.eos
   372                        	.stag	_SubMenuStruct,64,39
   373                        	.member	caption,0,142,8,32
   374                        	.member	action,32,641,8,32
   375                        	.eos
   376                        	.stag	_SubMenuListStruct,40,40
   377                        	.member	cMenus,0,14,8,8
   378                        	.member	psubmenus,8,9354,8,32,39
   379                        	.eos
   380                        	.stag	_fx_ComBuffer,2080,41
   381                        	.member	cbSize,0,16,8,16
   382                        	.member	cbBuffer,16,16,8,16
   383                        	.member	buffer,32,110,8,0,256
   384                        	.eos
   385                        	.line	708
   386                        	.file	"G:\devprojects\c256Foenix\fxos\FXOSWork
                    space\FXOSv1\src\OMF_Dump.c",8
   387                        ;#include "fxmemorymanager.h"
   388                        	.file	"G:\devprojects\c256Foenix\fxos\FXOSWork
                    space\FXOSv1\src\fxmemorymanager.h",0
   389                        	.file	"G:\devprojects\c256Foenix\fxos\FXOSWork
  Thu Dec  3 2020 22:25                                                Page 8


                    space\FXOSv1\src\fxos.h",0
   390                        	.file	"G:\devtools\WDCTools\wdc\Tools\include\
                    stdlib.h",0
   391                        	.file	"G:\devtools\WDCTools\wdc\Tools\include\
                    stddef.h",0
   392                        	.line	88
   393                        	.file	"G:\devtools\WDCTools\wdc\Tools\include\
                    stdlib.h",43
   394                        	.stag	fake42_,32,42
   395                        	.member	quot,0,5,8,16
   396                        	.member	rem,16,5,8,16
   397                        	.eos
   398                        	.stag	fake43_,64,43
   399                        	.member	quot,0,7,8,32
   400                        	.member	rem,32,7,8,32
   401                        	.eos
   402                        	.stag	int_sqrt,32,44
   403                        	.member	sqrt,0,16,8,16
   404                        	.member	frac,16,16,8,16
   405                        	.eos
   406                        	.line	205
   407                        	.file	"G:\devprojects\c256Foenix\fxos\FXOSWork
                    space\FXOSv1\src\fxos.h",4
   408                        	.file	"G:\devtools\WDCTools\wdc\Tools\include\
                    string.h",0
   409                        	.line	134
   410                        	.file	"G:\devprojects\c256Foenix\fxos\FXOSWork
                    space\FXOSv1\src\fxos.h",5
   411                        	.file	"G:\devtools\WDCTools\wdc\Tools\include\
                    ctype.h",0
   412                        	.line	103
   413                        	.file	"G:\devprojects\c256Foenix\fxos\FXOSWork
                    space\FXOSv1\src\fxos.h",6
   414                        	.file	"G:\devprojects\c256Foenix\fxos\FXOSWork
                    space\FXOSv1\src\fxtypes.h",0
   415                        	.line	708
   416                        	.file	"G:\devprojects\c256Foenix\fxos\FXOSWork
                    space\FXOSv1\src\fxos.h",8
   417                        	.file	"G:\devprojects\c256Foenix\fxos\FXOSWork
                    space\FXOSv1\src\fxstringtable.h",0
   418                        	.line	89
   419                        	.file	"G:\devprojects\c256Foenix\fxos\FXOSWork
                    space\FXOSv1\src\fxos.h",9
   420                        	.file	"G:\devprojects\c256Foenix\fxos\FXOSWork
                    space\FXOSv1\src\fxc256fmx.h",0
   421                        	.file	"G:\devprojects\c256Foenix\fxos\FXOSWork
                    space\FXOSv1\src\fxtypes.h",0
   422                        	.line	708
   423                        	.file	"G:\devprojects\c256Foenix\fxos\FXOSWork
                    space\FXOSv1\src\fxc256fmx.h",5
   424                        	.file	"G:\devprojects\c256Foenix\fxos\FXOSWork
                    space\FXOSv1\src\fmx_vicky.h",0
   425                        	.file	"G:\devprojects\c256Foenix\fxos\FXOSWork
                    space\FXOSv1\src\fxtypes.h",0
   426                        	.line	708
   427                        	.file	"G:\devprojects\c256Foenix\fxos\FXOSWork
                    space\FXOSv1\src\fmx_vicky.h",11
   428                        	.line	72
  Thu Dec  3 2020 22:25                                                Page 9


   429                        	.file	"G:\devprojects\c256Foenix\fxos\FXOSWork
                    space\FXOSv1\src\fxc256fmx.h",6
   430                        	.line	1325
   431                        	.file	"G:\devprojects\c256Foenix\fxos\FXOSWork
                    space\FXOSv1\src\fxos.h",13
   432                        	.file	"G:\devprojects\c256Foenix\fxos\FXOSWork
                    space\FXOSv1\src\fxkernel.h",0
   433                        	.file	"G:\devprojects\c256Foenix\fxos\FXOSWork
                    space\FXOSv1\src\fxos.h",0
   434                        	.line	25
   435                        	.file	"G:\devprojects\c256Foenix\fxos\FXOSWork
                    space\FXOSv1\src\fxkernel.h",5
   436                        	.file	"G:\devprojects\c256Foenix\fxos\FXOSWork
                    space\FXOSv1\src\fxnode.h",0
   437                        	.file	"G:\devprojects\c256Foenix\fxos\FXOSWork
                    space\FXOSv1\src\fxtypes.h",0
   438                        	.line	708
   439                        	.file	"G:\devprojects\c256Foenix\fxos\FXOSWork
                    space\FXOSv1\src\fxnode.h",5
   440                        	.line	61
   441                        	.file	"G:\devprojects\c256Foenix\fxos\FXOSWork
                    space\FXOSv1\src\fxkernel.h",6
   442                        	.stag	_fx_zero_page,448,45
   443                        	.member	fxos_mouse_byte_0,0,14,8,8
   444                        	.member	fxos_mouse_byte_1,8,14,8,8
   445                        	.member	fxos_mouse_byte_2,16,14,8,8
   446                        	.member	fxos_mouse_byte_t,24,14,8,8
   447                        	.member	fxos_mouse_byte_x_l,32,14,8,8
   448                        	.member	fxos_mouse_byte_x_h,40,14,8,8
   449                        	.member	fxos_mouse_byte_y_l,48,14,8,8
   450                        	.member	fxos_mouse_byte_y_h,56,14,8,8
   451                        	.member	fxos_key_byte_0,64,14,8,8
   452                        	.member	fxos_key_byte_1,72,14,8,8
   453                        	.member	fxos_key_byte_2,80,14,8,8
   454                        	.member	fxos_mouse_ctl,88,14,8,8
   455                        	.member	fxos_mouse_index,96,14,8,8
   456                        	.member	fxos_mouse_status,104,14,8,8
   457                        	.member	VersionMajor,112,16,8,16
   458                        	.member	VersionMinor,128,16,8,16
   459                        	.member	VersionRelease,144,16,8,16
   460                        	.member	topMemory,160,18,8,32
   461                        	.member	bottomMemory,192,18,8,32
   462                        	.member	availableMemory,224,18,8,32
   463                        	.member	availableMemoryK,256,18,8,32
   464                        	.member	availableHeapMemory,288,18,8,32
   465                        	.member	availableHeapMemoryK,320,18,8,32
   466                        	.member	kernelFunctionCallId,352,16,8,16
   467                        	.member	kernelFunctionCallBank,368,14,8,8
   468                        	.member	kernelFunctionCallReserved,376,14,8,8
   469                        	.member	kernelFunctionCallParameter,384,129,8,32
   470                        	.member	kernelFunctionCallReturn,416,129,8,32
   471                        	.eos
   472                        	.stag	_fx_environment,96,46
   473                        	.member	variables,0,142,8,32
   474                        	.member	reserved1,32,5,8,16
   475                        	.member	reserved2,48,5,8,16
   476                        	.member	reserved3,64,5,8,16
   477                        	.member	reserved4,80,5,8,16
  Thu Dec  3 2020 22:25                                                Page 10


   478                        	.eos
   479                        	.stag	_debug_byte_bits,8,47
   480                        	.member	bit7,0,14,17,1
   481                        	.member	bit6,1,14,17,1
   482                        	.member	bit5,2,14,17,1
   483                        	.member	bit4,3,14,17,1
   484                        	.member	bit3,4,14,17,1
   485                        	.member	bit2,5,14,17,1
   486                        	.member	bit1,6,14,17,1
   487                        	.member	bit0,7,14,17,1
   488                        	.eos
   489                        	.stag	_fx_device_driver,1416,48
   490                        	.member	name,0,110,8,0,64
   491                        	.member	version,512,110,8,0,64
   492                        	.member	hmajor,1024,110,8,0,16
   493                        	.member	hminor,1152,110,8,0,16
   494                        	.member	type,1280,14,8,8
   495                        	.member	f_driver_load,1288,129,8,32
   496                        	.member	f_driver_read,1320,129,8,32
   497                        	.member	f_driver_write,1352,129,8,32
   498                        	.member	f_driver_unload,1384,129,8,32
   499                        	.eos
   500                        	.stag	_fx_block_device_driver,1448,49
   501                        	.member	name,0,110,8,0,64
   502                        	.member	version,512,110,8,0,64
   503                        	.member	hmajor,1024,110,8,0,16
   504                        	.member	hminor,1152,110,8,0,16
   505                        	.member	type,1280,14,8,8
   506                        	.member	f_driver_load,1288,129,8,32
   507                        	.member	f_driver_read,1320,129,8,32
   508                        	.member	f_driver_write,1352,129,8,32
   509                        	.member	f_driver_unload,1384,129,8,32
   510                        	.member	f_driver_command,1416,129,8,32
   511                        	.eos
   512                        	.line	270
   513                        	.file	"G:\devprojects\c256Foenix\fxos\FXOSWork
                    space\FXOSv1\src\fxos.h",19
   514                        	.file	"G:\devprojects\c256Foenix\fxos\FXOSWork
                    space\FXOSv1\src\fxconsole.h",0
   515                        	.file	"G:\devtools\WDCTools\wdc\Tools\include\
                    string.h",0
   516                        	.line	134
   517                        	.file	"G:\devprojects\c256Foenix\fxos\FXOSWork
                    space\FXOSv1\src\fxconsole.h",5
   518                        	.file	"G:\devtools\WDCTools\wdc\Tools\include\
                    stdlib.h",0
   519                        	.line	205
   520                        	.file	"G:\devprojects\c256Foenix\fxos\FXOSWork
                    space\FXOSv1\src\fxconsole.h",6
   521                        	.file	"G:\devprojects\c256Foenix\fxos\FXOSWork
                    space\FXOSv1\src\fxtypes.h",0
   522                        	.line	708
   523                        	.file	"G:\devprojects\c256Foenix\fxos\FXOSWork
                    space\FXOSv1\src\fxconsole.h",7
   524                        	.file	"G:\devprojects\c256Foenix\fxos\FXOSWork
                    space\FXOSv1\src\fxc256fmx.h",0
   525                        	.line	1325
   526                        	.file	"G:\devprojects\c256Foenix\fxos\FXOSWork
  Thu Dec  3 2020 22:25                                                Page 11


                    space\FXOSv1\src\fxconsole.h",10
   527                        	.file	"G:\devprojects\c256Foenix\fxos\FXOSWork
                    space\FXOSv1\src\fxstring.h",0
   528                        	.file	"G:\devtools\WDCTools\wdc\Tools\include\
                    stdlib.h",0
   529                        	.line	205
   530                        	.file	"G:\devprojects\c256Foenix\fxos\FXOSWork
                    space\FXOSv1\src\fxstring.h",5
   531                        	.file	"G:\devtools\WDCTools\wdc\Tools\include\
                    string.h",0
   532                        	.line	134
   533                        	.file	"G:\devprojects\c256Foenix\fxos\FXOSWork
                    space\FXOSv1\src\fxstring.h",6
   534                        	.file	"G:\devprojects\c256Foenix\fxos\FXOSWork
                    space\FXOSv1\src\fxtypes.h",0
   535                        	.line	708
   536                        	.file	"G:\devprojects\c256Foenix\fxos\FXOSWork
                    space\FXOSv1\src\fxstring.h",7
   537                        	.stag	_fx_string,64,50
   538                        	.member	size,0,16,8,16
   539                        	.member	pos,16,5,8,16
   540                        	.member	buffer,32,142,8,32
   541                        	.eos
   542                        	.line	71
   543                        	.file	"G:\devprojects\c256Foenix\fxos\FXOSWork
                    space\FXOSv1\src\fxconsole.h",15
   544                        	.file	"G:\devprojects\c256Foenix\fxos\FXOSWork
                    space\FXOSv1\src\fxeventmanager.h",0
   545                        	.file	"G:\devprojects\c256Foenix\fxos\FXOSWork
                    space\FXOSv1\src\fxos.h",0
   546                        	.line	25
   547                        	.file	"G:\devprojects\c256Foenix\fxos\FXOSWork
                    space\FXOSv1\src\fxeventmanager.h",5
   548                        	.file	"G:\devprojects\c256Foenix\fxos\FXOSWork
                    space\FXOSv1\src\fxexec.h",0
   549                        	.file	"G:\devprojects\c256Foenix\fxos\FXOSWork
                    space\FXOSv1\src\fxtypes.h",0
   550                        	.line	708
   551                        	.file	"G:\devprojects\c256Foenix\fxos\FXOSWork
                    space\FXOSv1\src\fxexec.h",5
   552                        	.line	52
   553                        	.file	"G:\devprojects\c256Foenix\fxos\FXOSWork
                    space\FXOSv1\src\fxeventmanager.h",6
   554                        	.file	"G:\devprojects\c256Foenix\fxos\FXOSWork
                    space\FXOSv1\src\fxnode.h",0
   555                        	.line	61
   556                        	.file	"G:\devprojects\c256Foenix\fxos\FXOSWork
                    space\FXOSv1\src\fxeventmanager.h",7
   557                        	.file	"G:\devprojects\c256Foenix\fxos\FXOSWork
                    space\FXOSv1\src\fxconsole.h",0
   558                        	.line	171
   559                        	.file	"G:\devprojects\c256Foenix\fxos\FXOSWork
                    space\FXOSv1\src\fxeventmanager.h",8
   560                        	.file	"G:\devprojects\c256Foenix\fxos\FXOSWork
                    space\FXOSv1\src\fxwindowmanager.h",0
   561                        	.file	"G:\devprojects\c256Foenix\fxos\FXOSWork
                    space\FXOSv1\src\fxtypes.h",0
   562                        	.line	708
  Thu Dec  3 2020 22:25                                                Page 12


   563                        	.file	"G:\devprojects\c256Foenix\fxos\FXOSWork
                    space\FXOSv1\src\fxwindowmanager.h",5
   564                        	.file	"G:\devprojects\c256Foenix\fxos\FXOSWork
                    space\FXOSv1\src\fxos.h",0
   565                        	.line	25
   566                        	.file	"G:\devprojects\c256Foenix\fxos\FXOSWork
                    space\FXOSv1\src\fxwindowmanager.h",6
   567                        	.file	"G:\devprojects\c256Foenix\fxos\FXOSWork
                    space\FXOSv1\src\fxmemorymanager.h",0
   568                        	.line	39
   569                        	.file	"G:\devprojects\c256Foenix\fxos\FXOSWork
                    space\FXOSv1\src\fxwindowmanager.h",7
   570                        	.file	"G:\devprojects\c256Foenix\fxos\FXOSWork
                    space\FXOSv1\src\fxeventmanager.h",0
   571                        	.line	743
   572                        	.file	"G:\devprojects\c256Foenix\fxos\FXOSWork
                    space\FXOSv1\src\fxwindowmanager.h",8
   573                        	.file	"G:\devprojects\c256Foenix\fxos\FXOSWork
                    space\FXOSv1\src\fxgui.h",0
   574                        	.file	"G:\devprojects\c256Foenix\fxos\FXOSWork
                    space\FXOSv1\src\fxfont.h",0
   575                        	.file	"G:\devprojects\c256Foenix\fxos\FXOSWork
                    space\FXOSv1\src\fxtypes.h",0
   576                        	.line	708
   577                        	.file	"G:\devprojects\c256Foenix\fxos\FXOSWork
                    space\FXOSv1\src\fxfont.h",6
   578                        	.line	64
   579                        	.file	"G:\devprojects\c256Foenix\fxos\FXOSWork
                    space\FXOSv1\src\fxgui.h",4
   580                        	.stag	_click_detected,64,51
   581                        	.member	window,0,138,8,32,27
   582                        	.member	handler,32,641,8,32
   583                        	.eos
   584                        	.stag	_current_palette_map,400,52
   585                        	.member	CUR_DESKTOP,0,5,8,16
   586                        	.member	CUR_BACKGROUND,16,5,8,16
   587                        	.member	CUR_FONT,32,5,8,16
   588                        	.member	CUR_SELECTED_FONT,48,5,8,16
   589                        	.member	CUR_HIGHLIGHT_COLOR,64,5,8,16
   590                        	.member	CUR_WINDOWFRAME,80,5,8,16
   591                        	.member	CUR_WINDOWBORDER,96,5,8,16
   592                        	.member	CUR_WINDOWSHADOW,112,5,8,16
   593                        	.member	CUR_MENU,128,5,8,16
   594                        	.member	CUR_GADGET,144,5,8,16
   595                        	.member	CUR_COLOR,160,101,8,0,15
   596                        	.eos
   597                        	.line	264
   598                        	.file	"G:\devprojects\c256Foenix\fxos\FXOSWork
                    space\FXOSv1\src\fxwindowmanager.h",9
   599                        	.stag	_childMessage_t,64,53
   600                        	.member	msgType,0,16,8,16
   601                        	.member	msgData,16,129,8,32
   602                        	.member	dataSize,48,16,8,16
   603                        	.eos
   604                        	.line	362
   605                        	.file	"G:\devprojects\c256Foenix\fxos\FXOSWork
                    space\FXOSv1\src\fxeventmanager.h",9
   606                        	.stag	_fx_main_loopvars,16,54
  Thu Dec  3 2020 22:25                                                Page 13


   607                        	.member	dummy,0,5,8,16
   608                        	.eos
   609                        	.stag	_fxMouseMessageData,64,55
   610                        	.member	button1,0,14,8,8
   611                        	.member	button2,8,14,8,8
   612                        	.member	button3,16,14,8,8
   613                        	.member	button4,24,14,8,8
   614                        	.member	x,32,16,8,16
   615                        	.member	y,48,16,8,16
   616                        	.eos
   617                        	.stag	_fx_eventProcess,64,56
   618                        	.member	process,0,138,8,32,17
   619                        	.member	eventProc,32,641,8,32
   620                        	.eos
   621                        	.stag	_mouse_msg_state,184,57
   622                        	.member	lastEvent,0,18,8,32
   623                        	.member	buttonLeftDown,32,14,8,8
   624                        	.member	lastLeftDown,40,18,8,32
   625                        	.member	buttonRightDown,72,14,8,8
   626                        	.member	lastRightDown,80,18,8,32
   627                        	.member	buttonMiddleDown,112,14,8,8
   628                        	.member	lastMiddleDown,120,18,8,32
   629                        	.member	lastX,152,16,8,16
   630                        	.member	lastY,168,16,8,16
   631                        	.eos
   632                        	.line	743
   633                        	.file	"G:\devprojects\c256Foenix\fxos\FXOSWork
                    space\FXOSv1\src\fxconsole.h",16
   634                        	.stag	_fx_spinner_ctx,48,58
   635                        	.member	index,0,5,8,16
   636                        	.member	spinner,16,142,8,32
   637                        	.eos
   638                        	.stag	_fx_console_ctx,1144,59
   639                        	.member	lineBufferIndex,0,5,8,16
   640                        	.member	lineBuffer,16,110,8,0,128
   641                        	.member	isShifted,1040,14,8,8
   642                        	.member	userData,1048,129,8,32
   643                        	.member	screenBuffer,1080,129,8,32
   644                        	.member	Reserved1,1112,129,8,32
   645                        	.eos
   646                        	.stag	_token,64,60
   647                        	.member	type,0,5,8,16
   648                        	.member	depth,16,16,8,16
   649                        	.member	text,32,142,8,32
   650                        	.eos
   651                        	.stag	_command_args,64,61
   652                        	.member	proc,0,656,8,32
   653                        	.member	tokens,32,138,8,32,2
   654                        	.eos
   655                        	.line	171
   656                        	.file	"G:\devprojects\c256Foenix\fxos\FXOSWork
                    space\FXOSv1\src\fxos.h",20
   657                        	.file	"G:\devprojects\c256Foenix\fxos\FXOSWork
                    space\FXOSv1\src\fxstring.h",0
   658                        	.line	71
   659                        	.file	"G:\devprojects\c256Foenix\fxos\FXOSWork
                    space\FXOSv1\src\fxos.h",21
   660                        	.file	"G:\devprojects\c256Foenix\fxos\FXOSWork
  Thu Dec  3 2020 22:25                                                Page 14


                    space\FXOSv1\src\fxnode.h",0
   661                        	.line	61
   662                        	.file	"G:\devprojects\c256Foenix\fxos\FXOSWork
                    space\FXOSv1\src\fxos.h",22
   663                        	.line	25
   664                        	.file	"G:\devprojects\c256Foenix\fxos\FXOSWork
                    space\FXOSv1\src\fxmemorymanager.h",5
   665                        	.file	"G:\devprojects\c256Foenix\fxos\FXOSWork
                    space\FXOSv1\src\umm_malloc_cfg.h",0
   666                        	.file	"G:\devprojects\c256Foenix\fxos\FXOSWork
                    space\FXOSv1\src\fxos_build_parameters.h",0
   667                        	.line	32
   668                        	.file	"G:\devprojects\c256Foenix\fxos\FXOSWork
                    space\FXOSv1\src\umm_malloc_cfg.h",8
   669                        	.stag	UMM_HEAP_INFO_t,256,62
   670                        	.member	totalEntries,0,18,8,32
   671                        	.member	usedEntries,32,18,8,32
   672                        	.member	freeEntries,64,18,8,32
   673                        	.member	totalBlocks,96,18,8,32
   674                        	.member	usedBlocks,128,18,8,32
   675                        	.member	freeBlocks,160,18,8,32
   676                        	.member	maxFreeContiguousBlocks,192,18,8,32
   677                        	.member	blockSize,224,18,8,32
   678                        	.eos
   679                        	.line	199
   680                        	.file	"G:\devprojects\c256Foenix\fxos\FXOSWork
                    space\FXOSv1\src\fxmemorymanager.h",6
   681                        	.file	"G:\devprojects\c256Foenix\fxos\FXOSWork
                    space\FXOSv1\src\umm_malloc.h",0
   682                        	.file	"G:\devprojects\c256Foenix\fxos\FXOSWork
                    space\FXOSv1\src\fxtypes.h",0
   683                        	.line	708
   684                        	.file	"G:\devprojects\c256Foenix\fxos\FXOSWork
                    space\FXOSv1\src\umm_malloc.h",11
   685                        	.line	24
   686                        	.file	"G:\devprojects\c256Foenix\fxos\FXOSWork
                    space\FXOSv1\src\fxmemorymanager.h",7
   687                        	.stag	_fx_memory_map,2072,63
   688                        	.member	availableMemory,0,18,8,32
   689                        	.member	valid_segments,32,110,8,0,255
   690                        	.eos
   691                        	.line	39
   692                        	.file	"G:\devprojects\c256Foenix\fxos\FXOSWork
                    space\FXOSv1\src\OMF_Dump.c",9
   693                        ;
   694                        ;/*
   695                        ;#include <stdlib.h>
   696                        ;#include <string.h>
   697                        ;#include <ctype.h>
   698                        ;#include <setjmp.h>
   699                        ;#if defined(WIN32) || defined(WIN64)
   700                        ;#include <malloc.h>
   701                        ;#endif
   702                        ;*/
   703                        ;#include "OMF_Dc_Shared.h"
   704                        	.file	"G:\devprojects\c256Foenix\fxos\FXOSWork
                    space\FXOSv1\src\OMF_Dc_Shared.h",0
   705                        	.line	18
  Thu Dec  3 2020 22:25                                                Page 15


   706                        	.file	"G:\devprojects\c256Foenix\fxos\FXOSWork
                    space\FXOSv1\src\OMF_Dump.c",20
   707                        ;#include "OMF_Load.h"
   708                        	.file	"G:\devprojects\c256Foenix\fxos\FXOSWork
                    space\FXOSv1\src\OMF_Load.h",0
   709                        	.file	"G:\devprojects\c256Foenix\fxos\FXOSWork
                    space\FXOSv1\src\fxtypes.h",0
   710                        	.line	708
   711                        	.file	"G:\devprojects\c256Foenix\fxos\FXOSWork
                    space\FXOSv1\src\OMF_Load.h",9
   712                        	.stag	omf_segment_header,20984,64
   713                        	.member	FileOffset,0,18,8,32
   714                        	.member	SegmentOffset,32,18,8,32
   715                        	.member	BlockCnt,64,18,8,32
   716                        	.member	ByteCnt,96,18,8,32
   717                        	.member	ResSpc,128,18,8,32
   718                        	.member	Length,160,18,8,32
   719                        	.member	Type,192,14,8,8
   720                        	.member	undefine_1,200,14,8,8
   721                        	.member	LabLen,208,14,8,8
   722                        	.member	NumLen,216,14,8,8
   723                        	.member	Version,224,14,8,8
   724                        	.member	BankSize,232,18,8,32
   725                        	.member	Kind,264,5,8,16
   726                        	.member	undefine_2,280,14,8,8
   727                        	.member	undefine_3,288,14,8,8
   728                        	.member	Org,296,18,8,32
   729                        	.member	Align,328,18,8,32
   730                        	.member	NumSEx,360,14,8,8
   731                        	.member	LCBank,368,14,8,8
   732                        	.member	undefine_4,376,14,8,8
   733                        	.member	SegNum,384,5,8,16
   734                        	.member	EntryPointOffset,400,18,8,32
   735                        	.member	DispNameOffset,432,5,8,16
   736                        	.member	DispDataOffset,448,5,8,16
   737                        	.member	TempOrgLength,464,5,8,16
   738                        	.member	TempOrg,480,110,8,0,2048
   739                        	.member	LoadName,16864,110,8,0,256
   740                        	.member	SegName,18912,110,8,0,256
   741                        	.member	undefine_5,20960,14,8,8
   742                        	.member	undefine_6,20968,14,8,8
   743                        	.member	undefine_7,20976,14,8,8
   744                        	.eos
   745                        	.stag	omf_segment,21288,65
   746                        	.member	header,0,10,8,20984,64
   747                        	.member	nb_record,20984,5,8,16
   748                        	.member	first_record,21000,138,8,32,0
   749                        	.member	last_record,21032,138,8,32,0
   750                        	.member	data_offset,21064,5,8,16
   751                        	.member	data_length,21080,5,8,16
   752                        	.member	data,21096,142,8,32
   753                        	.member	reloc_offset,21128,5,8,16
   754                        	.member	reloc_length,21144,5,8,16
   755                        	.member	nb_reloc,21160,5,8,16
   756                        	.member	tab_reloc,21176,1162,8,32,0
   757                        	.member	nb_interseg,21208,5,8,16
   758                        	.member	tab_interseg,21224,1162,8,32,0
   759                        	.member	next,21256,138,8,32,65
  Thu Dec  3 2020 22:25                                                Page 16


   760                        	.eos
   761                        	.stag	omf_file,192,66
   762                        	.member	file_path,0,142,8,32
   763                        	.member	file_name,32,142,8,32
   764                        	.member	data_length,64,5,8,16
   765                        	.member	data,80,142,8,32
   766                        	.member	nb_segment,112,5,8,16
   767                        	.member	first_segment,128,138,8,32,65
   768                        	.member	last_segment,160,138,8,32,65
   769                        	.eos
   770                        	.line	113
   771                        	.file	"G:\devprojects\c256Foenix\fxos\FXOSWork
                    space\FXOSv1\src\OMF_Dump.c",21
   772                        ;#include "OMF_Dc_Memory.h"
   773                        	.file	"G:\devprojects\c256Foenix\fxos\FXOSWork
                    space\FXOSv1\src\OMF_Dc_Memory.h",0
   774                        	.line	24
   775                        	.file	"G:\devprojects\c256Foenix\fxos\FXOSWork
                    space\FXOSv1\src\OMF_Dump.c",22
   776                        ;#include "OMF_Record.h"
   777                        	.file	"G:\devprojects\c256Foenix\fxos\FXOSWork
                    space\FXOSv1\src\OMF_Record.h",0
   778                        	.file	"G:\devprojects\c256Foenix\fxos\FXOSWork
                    space\FXOSv1\src\fxtypes.h",0
   779                        	.line	708
   780                        	.file	"G:\devprojects\c256Foenix\fxos\FXOSWork
                    space\FXOSv1\src\OMF_Record.h",8
   781                        	.stag	omf_body_record,168,67
   782                        	.member	FileOffset,0,18,8,32
   783                        	.member	SegmentOffset,32,18,8,32
   784                        	.member	operation_code,64,14,8,8
   785                        	.member	length,72,5,8,16
   786                        	.member	record_data,88,129,8,32
   787                        	.member	processed,120,5,8,16
   788                        	.member	next,136,138,8,32,67
   789                        	.eos
   790                        	.stag	subrecord_SuperReloc2,16520,68
   791                        	.member	FileOffset,0,18,8,32
   792                        	.member	SegmentOffset,32,18,8,32
   793                        	.member	Count,64,14,8,8
   794                        	.member	ByteCnt,72,14,8,8
   795                        	.member	BitShiftCnt,80,14,8,8
   796                        	.member	nb_address,88,5,8,16
   797                        	.member	OffsetPatch,104,114,8,0,256
   798                        	.member	OffsetReference,8296,114,8,0,256
   799                        	.member	next,16488,138,8,32,68
   800                        	.eos
   801                        	.stag	subrecord_SuperReloc3,16520,69
   802                        	.member	FileOffset,0,18,8,32
   803                        	.member	SegmentOffset,32,18,8,32
   804                        	.member	Count,64,14,8,8
   805                        	.member	ByteCnt,72,14,8,8
   806                        	.member	BitShiftCnt,80,14,8,8
   807                        	.member	nb_address,88,5,8,16
   808                        	.member	OffsetPatch,104,114,8,0,256
   809                        	.member	OffsetReference,8296,114,8,0,256
   810                        	.member	next,16488,138,8,32,69
   811                        	.eos
  Thu Dec  3 2020 22:25                                                Page 17


   812                        	.stag	subrecord_SuperInterseg1,20632,70
   813                        	.member	FileOffset,0,18,8,32
   814                        	.member	SegmentOffset,32,18,8,32
   815                        	.member	Count,64,14,8,8
   816                        	.member	ByteCnt,72,14,8,8
   817                        	.member	BitShiftCnt,80,14,8,8
   818                        	.member	FileNum,88,5,8,16
   819                        	.member	nb_address,104,5,8,16
   820                        	.member	OffsetPatch,120,114,8,0,256
   821                        	.member	OffsetReference,8312,114,8,0,256
   822                        	.member	SegNum,16504,101,8,0,256
   823                        	.member	next,20600,138,8,32,70
   824                        	.eos
   825                        	.stag	subrecord_SuperInterseg212,20632,71
   826                        	.member	FileOffset,0,18,8,32
   827                        	.member	SegmentOffset,32,18,8,32
   828                        	.member	Count,64,14,8,8
   829                        	.member	ByteCnt,72,14,8,8
   830                        	.member	BitShiftCnt,80,14,8,8
   831                        	.member	FileNum,88,5,8,16
   832                        	.member	nb_address,104,5,8,16
   833                        	.member	OffsetPatch,120,114,8,0,256
   834                        	.member	OffsetReference,8312,114,8,0,256
   835                        	.member	SegNum,16504,101,8,0,256
   836                        	.member	next,20600,138,8,32,71
   837                        	.eos
   838                        	.stag	subrecord_SuperInterseg1324,16544,72
   839                        	.member	FileOffset,0,18,8,32
   840                        	.member	SegmentOffset,32,18,8,32
   841                        	.member	Count,64,14,8,8
   842                        	.member	ByteCnt,72,14,8,8
   843                        	.member	BitShiftCnt,80,14,8,8
   844                        	.member	SegNum,88,14,8,8
   845                        	.member	FileNum,96,5,8,16
   846                        	.member	nb_address,112,5,8,16
   847                        	.member	OffsetPatch,128,114,8,0,256
   848                        	.member	OffsetReference,8320,114,8,0,256
   849                        	.member	next,16512,138,8,32,72
   850                        	.eos
   851                        	.stag	subrecord_SuperInterseg2536,16544,73
   852                        	.member	FileOffset,0,18,8,32
   853                        	.member	SegmentOffset,32,18,8,32
   854                        	.member	Count,64,14,8,8
   855                        	.member	ByteCnt,72,14,8,8
   856                        	.member	BitShiftCnt,80,14,8,8
   857                        	.member	SegNum,88,14,8,8
   858                        	.member	FileNum,96,5,8,16
   859                        	.member	nb_address,112,5,8,16
   860                        	.member	OffsetPatch,128,114,8,0,256
   861                        	.member	OffsetReference,8320,114,8,0,256
   862                        	.member	next,16512,138,8,32,73
   863                        	.eos
   864                        	.stag	record_END,72,74
   865                        	.member	FileOffset,0,18,8,32
   866                        	.member	SegmentOffset,32,18,8,32
   867                        	.member	operation_code,64,14,8,8
   868                        	.eos
   869                        	.stag	record_CONST,112,75
  Thu Dec  3 2020 22:25                                                Page 18


   870                        	.member	FileOffset,0,18,8,32
   871                        	.member	SegmentOffset,32,18,8,32
   872                        	.member	operation_code,64,14,8,8
   873                        	.member	ByteCnt,72,14,8,8
   874                        	.member	data,80,142,8,32
   875                        	.eos
   876                        	.stag	record_ALIGN,72,76
   877                        	.member	FileOffset,0,18,8,32
   878                        	.member	SegmentOffset,32,18,8,32
   879                        	.member	operation_code,64,14,8,8
   880                        	.eos
   881                        	.stag	record_ORG,72,77
   882                        	.member	FileOffset,0,18,8,32
   883                        	.member	SegmentOffset,32,18,8,32
   884                        	.member	operation_code,64,14,8,8
   885                        	.eos
   886                        	.stag	record_RELOC,152,78
   887                        	.member	FileOffset,0,18,8,32
   888                        	.member	SegmentOffset,32,18,8,32
   889                        	.member	operation_code,64,14,8,8
   890                        	.member	ByteCnt,72,14,8,8
   891                        	.member	BitShiftCnt,80,14,8,8
   892                        	.member	OffsetPatch,88,18,8,32
   893                        	.member	OffsetReference,120,18,8,32
   894                        	.eos
   895                        	.stag	record_INTERSEG,184,79
   896                        	.member	FileOffset,0,18,8,32
   897                        	.member	SegmentOffset,32,18,8,32
   898                        	.member	operation_code,64,14,8,8
   899                        	.member	ByteCnt,72,14,8,8
   900                        	.member	BitShiftCnt,80,14,8,8
   901                        	.member	OffsetPatch,88,18,8,32
   902                        	.member	FileNum,120,5,8,16
   903                        	.member	SegNum,136,5,8,16
   904                        	.member	OffsetReference,152,18,8,32
   905                        	.eos
   906                        	.stag	record_USING,72,80
   907                        	.member	FileOffset,0,18,8,32
   908                        	.member	SegmentOffset,32,18,8,32
   909                        	.member	operation_code,64,14,8,8
   910                        	.eos
   911                        	.stag	record_STRONG,72,81
   912                        	.member	FileOffset,0,18,8,32
   913                        	.member	SegmentOffset,32,18,8,32
   914                        	.member	operation_code,64,14,8,8
   915                        	.eos
   916                        	.stag	record_GLOBAL,72,82
   917                        	.member	FileOffset,0,18,8,32
   918                        	.member	SegmentOffset,32,18,8,32
   919                        	.member	operation_code,64,14,8,8
   920                        	.eos
   921                        	.stag	record_GEQU,72,83
   922                        	.member	FileOffset,0,18,8,32
   923                        	.member	SegmentOffset,32,18,8,32
   924                        	.member	operation_code,64,14,8,8
   925                        	.eos
   926                        	.stag	record_MEM,72,84
   927                        	.member	FileOffset,0,18,8,32
  Thu Dec  3 2020 22:25                                                Page 19


   928                        	.member	SegmentOffset,32,18,8,32
   929                        	.member	operation_code,64,14,8,8
   930                        	.eos
   931                        	.stag	record_EXPR,72,85
   932                        	.member	FileOffset,0,18,8,32
   933                        	.member	SegmentOffset,32,18,8,32
   934                        	.member	operation_code,64,14,8,8
   935                        	.eos
   936                        	.stag	record_ZEXPR,72,86
   937                        	.member	FileOffset,0,18,8,32
   938                        	.member	SegmentOffset,32,18,8,32
   939                        	.member	operation_code,64,14,8,8
   940                        	.eos
   941                        	.stag	record_BEXPR,72,87
   942                        	.member	FileOffset,0,18,8,32
   943                        	.member	SegmentOffset,32,18,8,32
   944                        	.member	operation_code,64,14,8,8
   945                        	.eos
   946                        	.stag	record_RELEXPR,72,88
   947                        	.member	FileOffset,0,18,8,32
   948                        	.member	SegmentOffset,32,18,8,32
   949                        	.member	operation_code,64,14,8,8
   950                        	.eos
   951                        	.stag	record_LOCAL,72,89
   952                        	.member	FileOffset,0,18,8,32
   953                        	.member	SegmentOffset,32,18,8,32
   954                        	.member	operation_code,64,14,8,8
   955                        	.eos
   956                        	.stag	record_EQU,72,90
   957                        	.member	FileOffset,0,18,8,32
   958                        	.member	SegmentOffset,32,18,8,32
   959                        	.member	operation_code,64,14,8,8
   960                        	.eos
   961                        	.stag	record_DS,104,91
   962                        	.member	FileOffset,0,18,8,32
   963                        	.member	SegmentOffset,32,18,8,32
   964                        	.member	operation_code,64,14,8,8
   965                        	.member	nb_zero_byte,72,18,8,32
   966                        	.eos
   967                        	.stag	record_LCONST,136,92
   968                        	.member	FileOffset,0,18,8,32
   969                        	.member	SegmentOffset,32,18,8,32
   970                        	.member	operation_code,64,14,8,8
   971                        	.member	ByteCnt,72,18,8,32
   972                        	.member	data,104,142,8,32
   973                        	.eos
   974                        	.stag	record_LEXPR,72,93
   975                        	.member	FileOffset,0,18,8,32
   976                        	.member	SegmentOffset,32,18,8,32
   977                        	.member	operation_code,64,14,8,8
   978                        	.eos
   979                        	.stag	record_ENTRY,72,94
   980                        	.member	FileOffset,0,18,8,32
   981                        	.member	SegmentOffset,32,18,8,32
   982                        	.member	operation_code,64,14,8,8
   983                        	.eos
   984                        	.stag	record_cRELOC,152,95
   985                        	.member	FileOffset,0,18,8,32
  Thu Dec  3 2020 22:25                                                Page 20


   986                        	.member	SegmentOffset,32,18,8,32
   987                        	.member	operation_code,64,14,8,8
   988                        	.member	ByteCnt,72,14,8,8
   989                        	.member	BitShiftCnt,80,14,8,8
   990                        	.member	OffsetPatch,88,18,8,32
   991                        	.member	OffsetReference,120,18,8,32
   992                        	.eos
   993                        	.stag	record_cINTERSEG,176,96
   994                        	.member	FileOffset,0,18,8,32
   995                        	.member	SegmentOffset,32,18,8,32
   996                        	.member	operation_code,64,14,8,8
   997                        	.member	ByteCnt,72,14,8,8
   998                        	.member	BitShiftCnt,80,14,8,8
   999                        	.member	OffsetPatch,88,18,8,32
  1000                        	.member	FileNum,120,5,8,16
  1001                        	.member	SegNum,136,14,8,8
  1002                        	.member	OffsetReference,144,18,8,32
  1003                        	.eos
  1004                        	.stag	record_SUPER,592,97
  1005                        	.member	FileOffset,0,18,8,32
  1006                        	.member	SegmentOffset,32,18,8,32
  1007                        	.member	operation_code,64,14,8,8
  1008                        	.member	ByteCnt,72,18,8,32
  1009                        	.member	RecordType,104,14,8,8
  1010                        	.member	nb_SuperReloc2,112,5,8,16
  1011                        	.member	first_SuperReloc2,128,138,8,32,68
  1012                        	.member	last_SuperReloc2,160,138,8,32,68
  1013                        	.member	nb_SuperReloc3,192,5,8,16
  1014                        	.member	first_SuperReloc3,208,138,8,32,69
  1015                        	.member	last_SuperReloc3,240,138,8,32,69
  1016                        	.member	nb_SuperInterseg1,272,5,8,16
  1017                        	.member	first_SuperInterseg1,288,138,8,32,70
  1018                        	.member	last_SuperInterseg1,320,138,8,32,70
  1019                        	.member	nb_SuperInterseg212,352,5,8,16
  1020                        	.member	first_SuperInterseg212,368,138,8,32,71
  1021                        	.member	last_SuperInterseg212,400,138,8,32,71
  1022                        	.member	nb_SuperInterseg1324,432,5,8,16
  1023                        	.member	first_SuperInterseg1324,448,138,8,32,72
  1024                        	.member	last_SuperInterseg1324,480,138,8,32,72
  1025                        	.member	nb_SuperInterseg2536,512,5,8,16
  1026                        	.member	first_SuperInterseg2536,528,138,8,32,73
  1027                        	.member	last_SuperInterseg2536,560,138,8,32,73
  1028                        	.eos
  1029                        	.stag	record_General,72,98
  1030                        	.member	FileOffset,0,18,8,32
  1031                        	.member	SegmentOffset,32,18,8,32
  1032                        	.member	operation_code,64,14,8,8
  1033                        	.eos
  1034                        	.stag	record_Experimental,72,99
  1035                        	.member	FileOffset,0,18,8,32
  1036                        	.member	SegmentOffset,32,18,8,32
  1037                        	.member	operation_code,64,14,8,8
  1038                        	.eos
  1039                        	.stag	omf_reloc,128,100
  1040                        	.member	ByteCnt,0,14,8,8
  1041                        	.member	BitShiftCnt,8,14,8,8
  1042                        	.member	OffsetPatch,16,18,8,32
  1043                        	.member	OffsetReference,48,18,8,32
  Thu Dec  3 2020 22:25                                                Page 21


  1044                        	.member	origin,80,5,8,16
  1045                        	.member	next,96,138,8,32,100
  1046                        	.eos
  1047                        	.stag	omf_interseg,160,101
  1048                        	.member	ByteCnt,0,14,8,8
  1049                        	.member	BitShiftCnt,8,14,8,8
  1050                        	.member	OffsetPatch,16,18,8,32
  1051                        	.member	OffsetReference,48,18,8,32
  1052                        	.member	FileNum,80,5,8,16
  1053                        	.member	SegNum,96,5,8,16
  1054                        	.member	origin,112,5,8,16
  1055                        	.member	next,128,138,8,32,101
  1056                        	.eos
  1057                        	.line	458
  1058                        	.file	"G:\devprojects\c256Foenix\fxos\FXOSWork
                    space\FXOSv1\src\OMF_Dump.c",23
  1059                        ;#include "OMF_Dump.h"
  1060                        	.file	"G:\devprojects\c256Foenix\fxos\FXOSWork
                    space\FXOSv1\src\OMF_Dump.h",0
  1061                        	.line	11
  1062                        	.file	"G:\devprojects\c256Foenix\fxos\FXOSWork
                    space\FXOSv1\src\OMF_Dump.c",24
  1063                        ;#include "ff.h"
  1064                        	.file	"G:\devprojects\c256Foenix\fxos\FXOSWork
                    space\FXOSv1\src\ff.h",0
  1065                        	.file	"G:\devprojects\c256Foenix\fxos\FXOSWork
                    space\FXOSv1\src\ffconf.h",0
  1066                        	.line	298
  1067                        	.file	"G:\devprojects\c256Foenix\fxos\FXOSWork
                    space\FXOSv1\src\ff.h",29
  1068                        	.file	"G:\devprojects\c256Foenix\fxos\FXOSWork
                    space\FXOSv1\src\fxtypes.h",0
  1069                        	.line	708
  1070                        	.file	"G:\devprojects\c256Foenix\fxos\FXOSWork
                    space\FXOSv1\src\ff.h",30
  1071                        	.stag	fake102_,4472,102
  1072                        	.member	fs_type,0,14,8,8
  1073                        	.member	pdrv,8,14,8,8
  1074                        	.member	n_fats,16,14,8,8
  1075                        	.member	wflag,24,14,8,8
  1076                        	.member	fsi_flag,32,14,8,8
  1077                        	.member	id,40,5,8,16
  1078                        	.member	n_rootdir,56,5,8,16
  1079                        	.member	csize,72,5,8,16
  1080                        	.member	last_clst,88,18,8,32
  1081                        	.member	free_clst,120,18,8,32
  1082                        	.member	n_fatent,152,18,8,32
  1083                        	.member	fsize,184,18,8,32
  1084                        	.member	volbase,216,18,8,32
  1085                        	.member	fatbase,248,18,8,32
  1086                        	.member	dirbase,280,18,8,32
  1087                        	.member	database,312,18,8,32
  1088                        	.member	winsect,344,18,8,32
  1089                        	.member	win,376,110,8,0,512
  1090                        	.eos
  1091                        	.stag	fake103_,128,103
  1092                        	.member	fs,0,138,8,32,102
  1093                        	.member	id,32,5,8,16
  Thu Dec  3 2020 22:25                                                Page 22


  1094                        	.member	attr,48,14,8,8
  1095                        	.member	stat,56,14,8,8
  1096                        	.member	sclust,64,18,8,32
  1097                        	.member	objsize,96,18,8,32
  1098                        	.eos
  1099                        	.stag	fake104_,4400,104
  1100                        	.member	obj,0,10,8,128,103
  1101                        	.member	flag,128,14,8,8
  1102                        	.member	err,136,14,8,8
  1103                        	.member	fptr,144,18,8,32
  1104                        	.member	clust,176,18,8,32
  1105                        	.member	sect,208,18,8,32
  1106                        	.member	dir_sect,240,18,8,32
  1107                        	.member	dir_ptr,272,142,8,32
  1108                        	.member	buf,304,110,8,0,512
  1109                        	.eos
  1110                        	.stag	fake105_,352,105
  1111                        	.member	obj,0,10,8,128,103
  1112                        	.member	dptr,128,18,8,32
  1113                        	.member	clust,160,18,8,32
  1114                        	.member	sect,192,18,8,32
  1115                        	.member	dir,224,142,8,32
  1116                        	.member	fn,256,110,8,0,12
  1117                        	.eos
  1118                        	.stag	fake106_,176,106
  1119                        	.member	fsize,0,18,8,32
  1120                        	.member	fdate,32,5,8,16
  1121                        	.member	ftime,48,5,8,16
  1122                        	.member	fattrib,64,14,8,8
  1123                        	.member	fname,72,110,8,0,13
  1124                        	.eos
  1125                        	.stag	fake107_,80,107
  1126                        	.member	fmt,0,14,8,8
  1127                        	.member	n_fat,8,14,8,8
  1128                        	.member	align,16,16,8,16
  1129                        	.member	n_root,32,16,8,16
  1130                        	.member	au_size,48,18,8,32
  1131                        	.eos
  1132                        	.line	429
  1133                        	.file	"G:\devprojects\c256Foenix\fxos\FXOSWork
                    space\FXOSv1\src\OMF_Dump.c",25
  1134                        ;
  1135                        ;static void DumpExpressLoadData(struct omf_segmen
                    t *s,FIL *fd);
  1136                        ;static void DumpSegmentHeader(struct omf_segment_
                    header *s,FIL *fd);
  1137                        ;static char *GetSegmentType(BYTE b,int i);
  1138                        ;static char *GetSegmentKind(WORD w,int i);
  1139                        ;static char *GetSegmentAlign(DWORD dw);
  1140                        ;static char *GetRecordList(struct omf_segment *s)
                    ;
  1141                        ;static void DumpLCONSTRecord(struct omf_body_reco
                    rd *r,FIL *f,int i);
  1142                        ;static void DumpRELOCRecord(struct omf_body_recor
                    d *r,FIL *f,int i);
  1143                        ;static void DumpcRELOCRecord(struct omf_body_reco
                    rd *r,FIL *f,int i);
  1144                        ;static void DumpINTERSEGRecord(struct omf_body_re
  Thu Dec  3 2020 22:25                                                Page 23


                    cord *r,FIL *f,int i);
  1145                        ;static void DumpcINTERSEGRecord(struct omf_body_r
                    ecord *r,FIL *f,int i);
  1146                        ;static void DumpSUPERRecord(struct omf_body_recor
                    d *r,FIL *f,int i);
  1147                        ;
  1148                        ;
  1149                        ;#pragma section CODE=LOADER,offset $9:DA80
  1150                        LOADER	section	offset $9:DA80
  1151 09:DA80:              	ends
  1152                        ;
  1153                        ;static char bit_shift[256];
  1154                        ;static char *origin_tab[] = {"                   
                     ","RELOC               ","INTERSEG            ","cRELOC    
                              ","cINTERSEG           ","SUPER RELOC 2      ","SU
                    PER RELOC 3       ","SUPER INTERSEG 1    ","SUPER INTERSEG 2
                    -12 ","SUPER INTERSEG 13-24","SUPER INTERSEG 25-36"};
  1155                        	data
  1156                        ~~origin_tab:
  1157 00:0000: xx xx xx xx  	dl	L1+0
  1158 00:0004: xx xx xx xx  	dl	L1+21
  1159 00:0008: xx xx xx xx  	dl	L1+42
  1160 00:000C: xx xx xx xx  	dl	L1+63
  1161 00:0010: xx xx xx xx  	dl	L1+84
  1162 00:0014: xx xx xx xx  	dl	L1+105
  1163 00:0018: xx xx xx xx  	dl	L1+125
  1164 00:001C: xx xx xx xx  	dl	L1+146
  1165 00:0020: xx xx xx xx  	dl	L1+167
  1166 00:0024: xx xx xx xx  	dl	L1+188
  1167 00:0028: xx xx xx xx  	dl	L1+209
  1168 00:002C:              	ends
  1169                        	data
  1170                        L1:
  1171 00:002C: 20 20 20 20  	db	$20,$20,$20,$20,$20,$20,$20,$20,$20,$20,
                    $20,$20,$20,$20,$20
       00:0030: 20 20 20 20 
       00:0034: 20 20 20 20 
       00:0038: 20 20 20 
  1172 00:003B: 20 20 20 20  	db	$20,$20,$20,$20,$20,$00,$52,$45,$4C,$4F,
                    $43,$20,$20,$20,$20
       00:003F: 20 00 52 45 
       00:0043: 4C 4F 43 20 
       00:0047: 20 20 20 
  1173 00:004A: 20 20 20 20  	db	$20,$20,$20,$20,$20,$20,$20,$20,$20,$20,
                    $20,$00,$49,$4E,$54
       00:004E: 20 20 20 20 
       00:0052: 20 20 20 00 
       00:0056: 49 4E 54 
  1174 00:0059: 45 52 53 45  	db	$45,$52,$53,$45,$47,$20,$20,$20,$20,$20,
                    $20,$20,$20,$20,$20
       00:005D: 47 20 20 20 
       00:0061: 20 20 20 20 
       00:0065: 20 20 20 
  1175 00:0068: 20 20 00 63  	db	$20,$20,$00,$63,$52,$45,$4C,$4F,$43,$20,
                    $20,$20,$20,$20,$20
       00:006C: 52 45 4C 4F 
       00:0070: 43 20 20 20 
       00:0074: 20 20 20 
  Thu Dec  3 2020 22:25                                                Page 24


  1176 00:0077: 20 20 20 20  	db	$20,$20,$20,$20,$20,$20,$20,$20,$00,$63,
                    $49,$4E,$54,$45,$52
       00:007B: 20 20 20 20 
       00:007F: 00 63 49 4E 
       00:0083: 54 45 52 
  1177 00:0086: 53 45 47 20  	db	$53,$45,$47,$20,$20,$20,$20,$20,$20,$20,
                    $20,$20,$20,$20,$00
       00:008A: 20 20 20 20 
       00:008E: 20 20 20 20 
       00:0092: 20 20 00 
  1178 00:0095: 53 55 50 45  	db	$53,$55,$50,$45,$52,$20,$52,$45,$4C,$4F,
                    $43,$20,$32,$20,$20
       00:0099: 52 20 52 45 
       00:009D: 4C 4F 43 20 
       00:00A1: 32 20 20 
  1179 00:00A4: 20 20 20 20  	db	$20,$20,$20,$20,$00,$53,$55,$50,$45,$52,
                    $20,$52,$45,$4C,$4F
       00:00A8: 00 53 55 50 
       00:00AC: 45 52 20 52 
       00:00B0: 45 4C 4F 
  1180 00:00B3: 43 20 33 20  	db	$43,$20,$33,$20,$20,$20,$20,$20,$20,$20,
                    $00,$53,$55,$50,$45
       00:00B7: 20 20 20 20 
       00:00BB: 20 20 00 53 
       00:00BF: 55 50 45 
  1181 00:00C2: 52 20 49 4E  	db	$52,$20,$49,$4E,$54,$45,$52,$53,$45,$47,
                    $20,$31,$20,$20,$20
       00:00C6: 54 45 52 53 
       00:00CA: 45 47 20 31 
       00:00CE: 20 20 20 
  1182 00:00D1: 20 00 53 55  	db	$20,$00,$53,$55,$50,$45,$52,$20,$49,$4E,
                    $54,$45,$52,$53,$45
       00:00D5: 50 45 52 20 
       00:00D9: 49 4E 54 45 
       00:00DD: 52 53 45 
  1183 00:00E0: 47 20 32 2D  	db	$47,$20,$32,$2D,$31,$32,$20,$00,$53,$55,
                    $50,$45,$52,$20,$49
       00:00E4: 31 32 20 00 
       00:00E8: 53 55 50 45 
       00:00EC: 52 20 49 
  1184 00:00EF: 4E 54 45 52  	db	$4E,$54,$45,$52,$53,$45,$47,$20,$31,$33,
                    $2D,$32,$34,$00,$53
       00:00F3: 53 45 47 20 
       00:00F7: 31 33 2D 32 
       00:00FB: 34 00 53 
  1185 00:00FE: 55 50 45 52  	db	$55,$50,$45,$52,$20,$49,$4E,$54,$45,$52,
                    $53,$45,$47,$20,$32
       00:0102: 20 49 4E 54 
       00:0106: 45 52 53 45 
       00:010A: 47 20 32 
  1186 00:010D: 35 2D 33 36  	db	$35,$2D,$33,$36,$00
       00:0111: 00 
  1187 00:0112:              	ends
  1188                        ;
  1189                        ;
  1190                        ;/************************************************
                    ****************************/
  1191                        ;/*  CreateDumpFile() :  Cration du fichier DUMP 
  Thu Dec  3 2020 22:25                                                Page 25


                    pour un fichier objet OMF. */
  1192                        ;/************************************************
                    ****************************/
  1193                        ;int CreateDumpFile(struct omf_file *current_file,
                     char *file_path)
  1194                        ;{
  1195                        	.line	50
  1196                        	.line	51
  1197                        	LOADER
  1198                        	xdef	~~CreateDumpFile
  1199                        	func
  1200                        	.function	51
  1201                        ~~CreateDumpFile:
  1202                        	longa	on
  1203                        	longi	on
  1204 09:DA80: 3B           	tsc
  1205 09:DA81: 38           	sec
  1206 09:DA82: E9 3A 00     	sbc	#L3
  1207 09:DA85: 1B           	tcs
  1208 09:DA86: 0B           	phd
  1209 09:DA87: 5B           	tcd
  1210             00000004   current_file_0	set	4
  1211             00000008   file_path_0	set	8
  1212                        	.block	51
  1213                        ;  int i, j, nb_item;
  1214                        ;  FIL *fd;
  1215                        ;  struct omf_segment *current_segment;
  1216                        ;  LPSTR grl = NULL;
  1217                        ;  LPSTR buffer = k_mem_allocate_heap(2048);
  1218                        ;
  1219                        ;  fd = k_calloc(1,sizeof(FIL));
  1220             00000000   i_1	set	0
  1221             00000002   j_1	set	2
  1222             00000004   nb_item_1	set	4
  1223             00000006   fd_1	set	6
  1224             0000000A   current_segment_1	set	10
  1225             0000000E   grl_1	set	14
  1226             00000012   buffer_1	set	18
  1227                        	.sym	i,0,5,1,16
  1228                        	.sym	j,2,5,1,16
  1229                        	.sym	nb_item,4,5,1,16
  1230                        	.sym	fd,6,138,1,32,104
  1231                        	.sym	current_segment,10,138,1,32,65
  1232                        	.sym	grl,14,142,1,32
  1233                        	.sym	buffer,18,142,1,32
  1234                        	.sym	current_file,4,138,6,32,66
  1235                        	.sym	file_path,8,142,6,32
  1236 09:DA88: 64 33        	stz	<L4+grl_1
  1237 09:DA8A: 64 35        	stz	<L4+grl_1+2
  1238 09:DA8C: F4 00 08     	pea	#<$800
  1239 09:DA8F: 22 xx xx xx  	jsl	~~k_mem_allocate_heap
  1240 09:DA93: 85 37        	sta	<L4+buffer_1
  1241 09:DA95: 86 39        	stx	<L4+buffer_1+2
  1242                        	.line	58
  1243 09:DA97: F4 26 02     	pea	#<$226
  1244 09:DA9A: F4 01 00     	pea	#<$1
  1245 09:DA9D: 22 xx xx xx  	jsl	~~k_calloc
  1246 09:DAA1: 85 2B        	sta	<L4+fd_1
  Thu Dec  3 2020 22:25                                                Page 26


  1247 09:DAA3: 86 2D        	stx	<L4+fd_1+2
  1248                        ;
  1249                        ;  /* Cration du fichier */
  1250                        ;  f_open(fd,file_path,FA_WRITE);
  1251                        	.line	61
  1252 09:DAA5: F4 02 00     	pea	#<$2
  1253 09:DAA8: D4 44        	pei	<L3+file_path_0+2
  1254 09:DAAA: D4 42        	pei	<L3+file_path_0
  1255 09:DAAC: D4 2D        	pei	<L4+fd_1+2
  1256 09:DAAE: D4 2B        	pei	<L4+fd_1
  1257 09:DAB0: 22 xx xx xx  	jsl	~~f_open
  1258                        ;  if(fd == NULL)
  1259                        	.line	62
  1260                        ;    {
  1261 09:DAB4: A5 2B        	lda	<L4+fd_1
  1262 09:DAB6: 05 2D        	ora	<L4+fd_1+2
  1263 09:DAB8: F0 03        	beq	L6
  1264 09:DABA: 82 15 00     	brl	L10001
  1265                        L6:
  1266                        	.line	63
  1267                        ;      //printf("Error : Impossible to create outp
                    ut DUMP file '%s'.\n",file_path);
  1268                        ;      return(1);
  1269                        	.line	65
  1270 09:DABD: A9 01 00     	lda	#$1
  1271                        L7:
  1272 09:DAC0: A8           	tay
  1273 09:DAC1: A5 3C        	lda	<L3+2
  1274 09:DAC3: 85 44        	sta	<L3+2+8
  1275 09:DAC5: A5 3B        	lda	<L3+1
  1276 09:DAC7: 85 43        	sta	<L3+1+8
  1277 09:DAC9: 2B           	pld
  1278 09:DACA: 3B           	tsc
  1279 09:DACB: 18           	clc
  1280 09:DACC: 69 42 00     	adc	#L3+8
  1281 09:DACF: 1B           	tcs
  1282 09:DAD0: 98           	tya
  1283 09:DAD1: 6B           	rtl
  1284                        ;    }
  1285                        	.line	66
  1286                        ;
  1287                        ;  /* Information du fichier */
  1288                        ;  f_printf(fd,"***************************\n");
  1289                        L10001:
  1290                        	.line	69
  1291 09:DAD2: F4 xx xx     	pea	#^L2
  1292 09:DAD5: F4 xx xx     	pea	#<L2
  1293 09:DAD8: D4 2D        	pei	<L4+fd_1+2
  1294 09:DADA: D4 2B        	pei	<L4+fd_1
  1295 09:DADC: F4 0A 00     	pea	#10
  1296 09:DADF: 22 xx xx xx  	jsl	~~f_printf
  1297                        ;  f_printf(fd,"**   File Information    **\n");
  1298                        	.line	70
  1299 09:DAE3: F4 xx xx     	pea	#^L2+29
  1300 09:DAE6: F4 xx xx     	pea	#<L2+29
  1301 09:DAE9: D4 2D        	pei	<L4+fd_1+2
  1302 09:DAEB: D4 2B        	pei	<L4+fd_1
  1303 09:DAED: F4 0A 00     	pea	#10
  Thu Dec  3 2020 22:25                                                Page 27


  1304 09:DAF0: 22 xx xx xx  	jsl	~~f_printf
  1305                        ;  f_printf(fd,"***************************\n\n");
  1306                        	.line	71
  1307 09:DAF4: F4 xx xx     	pea	#^L2+58
  1308 09:DAF7: F4 xx xx     	pea	#<L2+58
  1309 09:DAFA: D4 2D        	pei	<L4+fd_1+2
  1310 09:DAFC: D4 2B        	pei	<L4+fd_1
  1311 09:DAFE: F4 0A 00     	pea	#10
  1312 09:DB01: 22 xx xx xx  	jsl	~~f_printf
  1313                        ;  f_printf(fd,"     - File Name      :  '%s'\n",c
                    urrent_file->file_name);
  1314                        	.line	72
  1315 09:DB05: A0 06 00     	ldy	#$6
  1316 09:DB08: B7 3E        	lda	[<L3+current_file_0],Y
  1317 09:DB0A: 48           	pha
  1318 09:DB0B: A0 04 00     	ldy	#$4
  1319 09:DB0E: B7 3E        	lda	[<L3+current_file_0],Y
  1320 09:DB10: 48           	pha
  1321 09:DB11: F4 xx xx     	pea	#^L2+88
  1322 09:DB14: F4 xx xx     	pea	#<L2+88
  1323 09:DB17: D4 2D        	pei	<L4+fd_1+2
  1324 09:DB19: D4 2B        	pei	<L4+fd_1
  1325 09:DB1B: F4 0E 00     	pea	#14
  1326 09:DB1E: 22 xx xx xx  	jsl	~~f_printf
  1327                        ;  f_printf(fd,"     - Length         :  %06X (%d)
                    \n",current_file->data_length,current_file->data_length);
  1328                        	.line	73
  1329 09:DB22: A0 08 00     	ldy	#$8
  1330 09:DB25: B7 3E        	lda	[<L3+current_file_0],Y
  1331 09:DB27: 48           	pha
  1332 09:DB28: A0 08 00     	ldy	#$8
  1333 09:DB2B: B7 3E        	lda	[<L3+current_file_0],Y
  1334 09:DB2D: 48           	pha
  1335 09:DB2E: F4 xx xx     	pea	#^L2+119
  1336 09:DB31: F4 xx xx     	pea	#<L2+119
  1337 09:DB34: D4 2D        	pei	<L4+fd_1+2
  1338 09:DB36: D4 2B        	pei	<L4+fd_1
  1339 09:DB38: F4 0E 00     	pea	#14
  1340 09:DB3B: 22 xx xx xx  	jsl	~~f_printf
  1341                        ;  f_printf(fd,"     - Segment Count  :  %02X (%d)
                    \n\n",current_file->nb_segment,current_file->nb_segment);
  1342                        	.line	74
  1343 09:DB3F: A0 0E 00     	ldy	#$e
  1344 09:DB42: B7 3E        	lda	[<L3+current_file_0],Y
  1345 09:DB44: 48           	pha
  1346 09:DB45: A0 0E 00     	ldy	#$e
  1347 09:DB48: B7 3E        	lda	[<L3+current_file_0],Y
  1348 09:DB4A: 48           	pha
  1349 09:DB4B: F4 xx xx     	pea	#^L2+155
  1350 09:DB4E: F4 xx xx     	pea	#<L2+155
  1351 09:DB51: D4 2D        	pei	<L4+fd_1+2
  1352 09:DB53: D4 2B        	pei	<L4+fd_1
  1353 09:DB55: F4 0E 00     	pea	#14
  1354 09:DB58: 22 xx xx xx  	jsl	~~f_printf
  1355                        ;
  1356                        ;  /** Segment Summary **/
  1357                        ;  f_printf(fd,"***************************\n");
  1358                        	.line	77
  Thu Dec  3 2020 22:25                                                Page 28


  1359 09:DB5C: F4 xx xx     	pea	#^L2+192
  1360 09:DB5F: F4 xx xx     	pea	#<L2+192
  1361 09:DB62: D4 2D        	pei	<L4+fd_1+2
  1362 09:DB64: D4 2B        	pei	<L4+fd_1
  1363 09:DB66: F4 0A 00     	pea	#10
  1364 09:DB69: 22 xx xx xx  	jsl	~~f_printf
  1365                        ;  f_printf(fd,"**    Segments Summary   **\n");
  1366                        	.line	78
  1367 09:DB6D: F4 xx xx     	pea	#^L2+221
  1368 09:DB70: F4 xx xx     	pea	#<L2+221
  1369 09:DB73: D4 2D        	pei	<L4+fd_1+2
  1370 09:DB75: D4 2B        	pei	<L4+fd_1
  1371 09:DB77: F4 0A 00     	pea	#10
  1372 09:DB7A: 22 xx xx xx  	jsl	~~f_printf
  1373                        ;  f_printf(fd,"***************************\n\n");
  1374                        	.line	79
  1375 09:DB7E: F4 xx xx     	pea	#^L2+250
  1376 09:DB81: F4 xx xx     	pea	#<L2+250
  1377 09:DB84: D4 2D        	pei	<L4+fd_1+2
  1378 09:DB86: D4 2B        	pei	<L4+fd_1
  1379 09:DB88: F4 0A 00     	pea	#10
  1380 09:DB8B: 22 xx xx xx  	jsl	~~f_printf
  1381                        ;
  1382                        ;  f_printf(fd,"     +----------+----------+------
                    -----------+----------------+----------------+-------------+
                    -------------+------------+------------+--------------\n");
  1383                        	.line	81
  1384 09:DB8F: F4 xx xx     	pea	#^L2+280
  1385 09:DB92: F4 xx xx     	pea	#<L2+280
  1386 09:DB95: D4 2D        	pei	<L4+fd_1+2
  1387 09:DB97: D4 2B        	pei	<L4+fd_1
  1388 09:DB99: F4 0A 00     	pea	#10
  1389 09:DB9C: 22 xx xx xx  	jsl	~~f_printf
  1390                        ;  f_printf(fd,"     |  Offset  |  SegNum  |     S
                    egType     |     SegName    |    LoadName    |  SegLength  |
                      MemLength  | OrgAddress |  # Record  |  RecordList  \n");
  1391                        	.line	82
  1392 09:DBA0: F4 xx xx     	pea	#^L2+430
  1393 09:DBA3: F4 xx xx     	pea	#<L2+430
  1394 09:DBA6: D4 2D        	pei	<L4+fd_1+2
  1395 09:DBA8: D4 2B        	pei	<L4+fd_1
  1396 09:DBAA: F4 0A 00     	pea	#10
  1397 09:DBAD: 22 xx xx xx  	jsl	~~f_printf
  1398                        ;  f_printf(fd,"     +----------+----------+------
                    -----------+----------------+----------------+-------------+
                    -------------+------------+------------+--------------\n");
  1399                        	.line	83
  1400 09:DBB1: F4 xx xx     	pea	#^L2+580
  1401 09:DBB4: F4 xx xx     	pea	#<L2+580
  1402 09:DBB7: D4 2D        	pei	<L4+fd_1+2
  1403 09:DBB9: D4 2B        	pei	<L4+fd_1
  1404 09:DBBB: F4 0A 00     	pea	#10
  1405 09:DBBE: 22 xx xx xx  	jsl	~~f_printf
  1406                        ;  for(current_segment=current_file->first_segment
                    ; current_segment; current_segment=current_segment->next)
  1407                        	.line	84
  1408 09:DBC2: A0 10 00     	ldy	#$10
  1409 09:DBC5: B7 3E        	lda	[<L3+current_file_0],Y
  Thu Dec  3 2020 22:25                                                Page 29


  1410 09:DBC7: 85 2F        	sta	<L4+current_segment_1
  1411 09:DBC9: A0 12 00     	ldy	#$12
  1412 09:DBCC: B7 3E        	lda	[<L3+current_file_0],Y
  1413 09:DBCE: 85 31        	sta	<L4+current_segment_1+2
  1414 09:DBD0: 82 D8 00     	brl	L10005
  1415                        L10004:
  1416                        ;    {
  1417                        	.line	85
  1418                        ;      /* Information du Segment */
  1419                        ;      f_printf(fd,"     |  %06X  |    %02X    | %
                    -15s |  %-12s  |  %-12s  |    %06X   |    %06X   |   %06X   
                    |    %04X    |  %s\n",
  1420                        	.line	87
  1421                        ;              current_segment->header.FileOffset,
                    current_segment->header.SegNum,
  1422                        ;              (current_segment->header.Version ==
                     2) ? GetSegmentKind(current_segment->header.Kind,1) : GetSe
                    gmentType(current_segment->header.Type,1),
  1423                        ;              current_segment->header.SegName,cur
                    rent_segment->header.LoadName,
  1424                        ;              current_segment->header.ByteCnt,cur
                    rent_segment->header.Length,current_segment->header.Org,curr
                    ent_segment->nb_record,GetRecordList(current_segment));
  1425 09:DBD3: D4 31        	pei	<L4+current_segment_1+2
  1426 09:DBD5: D4 2F        	pei	<L4+current_segment_1
  1427 09:DBD7: 22 DD F4 09  	jsl	~~GetRecordList
  1428 09:DBDB: 85 01        	sta	<R0
  1429 09:DBDD: 86 03        	stx	<R0+2
  1430 09:DBDF: DA           	phx
  1431 09:DBE0: 48           	pha
  1432 09:DBE1: A0 3F 0A     	ldy	#$a3f
  1433 09:DBE4: B7 2F        	lda	[<L4+current_segment_1],Y
  1434 09:DBE6: 48           	pha
  1435 09:DBE7: A0 27 00     	ldy	#$27
  1436 09:DBEA: B7 2F        	lda	[<L4+current_segment_1],Y
  1437 09:DBEC: 48           	pha
  1438 09:DBED: A0 25 00     	ldy	#$25
  1439 09:DBF0: B7 2F        	lda	[<L4+current_segment_1],Y
  1440 09:DBF2: 48           	pha
  1441 09:DBF3: A0 16 00     	ldy	#$16
  1442 09:DBF6: B7 2F        	lda	[<L4+current_segment_1],Y
  1443 09:DBF8: 48           	pha
  1444 09:DBF9: A0 14 00     	ldy	#$14
  1445 09:DBFC: B7 2F        	lda	[<L4+current_segment_1],Y
  1446 09:DBFE: 48           	pha
  1447 09:DBFF: A0 0E 00     	ldy	#$e
  1448 09:DC02: B7 2F        	lda	[<L4+current_segment_1],Y
  1449 09:DC04: 48           	pha
  1450 09:DC05: A0 0C 00     	ldy	#$c
  1451 09:DC08: B7 2F        	lda	[<L4+current_segment_1],Y
  1452 09:DC0A: 48           	pha
  1453 09:DC0B: 18           	clc
  1454 09:DC0C: A9 3C 08     	lda	#$83c
  1455 09:DC0F: 65 2F        	adc	<L4+current_segment_1
  1456 09:DC11: 85 05        	sta	<R1
  1457 09:DC13: A9 00 00     	lda	#$0
  1458 09:DC16: 65 31        	adc	<L4+current_segment_1+2
  1459 09:DC18: 85 07        	sta	<R1+2
  Thu Dec  3 2020 22:25                                                Page 30


  1460 09:DC1A: D4 07        	pei	<R1+2
  1461 09:DC1C: D4 05        	pei	<R1
  1462 09:DC1E: 18           	clc
  1463 09:DC1F: A9 3C 09     	lda	#$93c
  1464 09:DC22: 65 2F        	adc	<L4+current_segment_1
  1465 09:DC24: 85 09        	sta	<R2
  1466 09:DC26: A9 00 00     	lda	#$0
  1467 09:DC29: 65 31        	adc	<L4+current_segment_1+2
  1468 09:DC2B: 85 0B        	sta	<R2+2
  1469 09:DC2D: D4 0B        	pei	<R2+2
  1470 09:DC2F: D4 09        	pei	<R2
  1471 09:DC31: E2 20        	sep	#$20
  1472                        	longa	off
  1473 09:DC33: A0 1C 00     	ldy	#$1c
  1474 09:DC36: B7 2F        	lda	[<L4+current_segment_1],Y
  1475 09:DC38: C9 02        	cmp	#<$2
  1476 09:DC3A: C2 20        	rep	#$20
  1477                        	longa	on
  1478 09:DC3C: F0 03        	beq	L9
  1479 09:DC3E: 82 17 00     	brl	L8
  1480                        L9:
  1481 09:DC41: F4 01 00     	pea	#<$1
  1482 09:DC44: A0 21 00     	ldy	#$21
  1483 09:DC47: B7 2F        	lda	[<L4+current_segment_1],Y
  1484 09:DC49: 48           	pha
  1485 09:DC4A: 22 04 F2 09  	jsl	~~GetSegmentKind
  1486 09:DC4E: 85 0D        	sta	<R3
  1487 09:DC50: 86 0F        	stx	<R3+2
  1488 09:DC52: A6 0F        	ldx	<R3+2
  1489 09:DC54: A5 0D        	lda	<R3
  1490 09:DC56: 80 15        	bra	L10
  1491                        L8:
  1492 09:DC58: F4 01 00     	pea	#<$1
  1493 09:DC5B: A0 18 00     	ldy	#$18
  1494 09:DC5E: B7 2F        	lda	[<L4+current_segment_1],Y
  1495 09:DC60: 48           	pha
  1496 09:DC61: 22 0D F0 09  	jsl	~~GetSegmentType
  1497 09:DC65: 85 0D        	sta	<R3
  1498 09:DC67: 86 0F        	stx	<R3+2
  1499 09:DC69: A6 0F        	ldx	<R3+2
  1500 09:DC6B: A5 0D        	lda	<R3
  1501                        L10:
  1502 09:DC6D: 85 0D        	sta	<R3
  1503 09:DC6F: 86 0F        	stx	<R3+2
  1504 09:DC71: D4 0F        	pei	<R3+2
  1505 09:DC73: D4 0D        	pei	<R3
  1506 09:DC75: A0 30 00     	ldy	#$30
  1507 09:DC78: B7 2F        	lda	[<L4+current_segment_1],Y
  1508 09:DC7A: 48           	pha
  1509 09:DC7B: A0 02 00     	ldy	#$2
  1510 09:DC7E: B7 2F        	lda	[<L4+current_segment_1],Y
  1511 09:DC80: 48           	pha
  1512 09:DC81: A7 2F        	lda	[<L4+current_segment_1]
  1513 09:DC83: 48           	pha
  1514 09:DC84: F4 xx xx     	pea	#^L2+730
  1515 09:DC87: F4 xx xx     	pea	#<L2+730
  1516 09:DC8A: D4 2D        	pei	<L4+fd_1+2
  1517 09:DC8C: D4 2B        	pei	<L4+fd_1
  Thu Dec  3 2020 22:25                                                Page 31


  1518 09:DC8E: F4 2E 00     	pea	#46
  1519 09:DC91: 22 xx xx xx  	jsl	~~f_printf
  1520                        ;    }
  1521                        	.line	92
  1522                        L10002:
  1523 09:DC95: A0 61 0A     	ldy	#$a61
  1524 09:DC98: B7 2F        	lda	[<L4+current_segment_1],Y
  1525 09:DC9A: 85 01        	sta	<R0
  1526 09:DC9C: A0 63 0A     	ldy	#$a63
  1527 09:DC9F: B7 2F        	lda	[<L4+current_segment_1],Y
  1528 09:DCA1: 85 03        	sta	<R0+2
  1529 09:DCA3: A5 01        	lda	<R0
  1530 09:DCA5: 85 2F        	sta	<L4+current_segment_1
  1531 09:DCA7: A5 03        	lda	<R0+2
  1532 09:DCA9: 85 31        	sta	<L4+current_segment_1+2
  1533                        L10005:
  1534 09:DCAB: A5 2F        	lda	<L4+current_segment_1
  1535 09:DCAD: 05 31        	ora	<L4+current_segment_1+2
  1536 09:DCAF: F0 03        	beq	L11
  1537 09:DCB1: 82 1F FF     	brl	L10004
  1538                        L11:
  1539                        L10003:
  1540                        ;  f_printf(fd,"     +----------+----------+------
                    -----------+----------------+----------------+-------------+
                    -------------+------------+------------+--------------\n\n")
                    ;
  1541                        	.line	93
  1542 09:DCB4: F4 xx xx     	pea	#^L2+840
  1543 09:DCB7: F4 xx xx     	pea	#<L2+840
  1544 09:DCBA: D4 2D        	pei	<L4+fd_1+2
  1545 09:DCBC: D4 2B        	pei	<L4+fd_1
  1546 09:DCBE: F4 0A 00     	pea	#10
  1547 09:DCC1: 22 xx xx xx  	jsl	~~f_printf
  1548                        ;
  1549                        ;  /** Dump des Segments **/
  1550                        ;
  1551                        ;
  1552                        ;  for(current_segment=current_file->first_segment
                    ; current_segment; current_segment=current_segment->next)
  1553                        	.line	98
  1554 09:DCC5: A0 10 00     	ldy	#$10
  1555 09:DCC8: B7 3E        	lda	[<L3+current_file_0],Y
  1556 09:DCCA: 85 2F        	sta	<L4+current_segment_1
  1557 09:DCCC: A0 12 00     	ldy	#$12
  1558 09:DCCF: B7 3E        	lda	[<L3+current_file_0],Y
  1559 09:DCD1: 85 31        	sta	<L4+current_segment_1+2
  1560 09:DCD3: 82 04 0A     	brl	L10009
  1561                        L10008:
  1562                        ;    {
  1563                        	.line	99
  1564                        ;      f_printf(fd,"***************************\n"
                    );
  1565                        	.line	100
  1566 09:DCD6: F4 xx xx     	pea	#^L2+991
  1567 09:DCD9: F4 xx xx     	pea	#<L2+991
  1568 09:DCDC: D4 2D        	pei	<L4+fd_1+2
  1569 09:DCDE: D4 2B        	pei	<L4+fd_1
  1570 09:DCE0: F4 0A 00     	pea	#10
  Thu Dec  3 2020 22:25                                                Page 32


  1571 09:DCE3: 22 xx xx xx  	jsl	~~f_printf
  1572                        ;      f_printf(fd,"**      Segment %02X       **\
                    n",current_segment->header.SegNum);
  1573                        	.line	101
  1574 09:DCE7: A0 30 00     	ldy	#$30
  1575 09:DCEA: B7 2F        	lda	[<L4+current_segment_1],Y
  1576 09:DCEC: 48           	pha
  1577 09:DCED: F4 xx xx     	pea	#^L2+1020
  1578 09:DCF0: F4 xx xx     	pea	#<L2+1020
  1579 09:DCF3: D4 2D        	pei	<L4+fd_1+2
  1580 09:DCF5: D4 2B        	pei	<L4+fd_1
  1581 09:DCF7: F4 0C 00     	pea	#12
  1582 09:DCFA: 22 xx xx xx  	jsl	~~f_printf
  1583                        ;      f_printf(fd,"***************************\n\
                    n");
  1584                        	.line	102
  1585 09:DCFE: F4 xx xx     	pea	#^L2+1051
  1586 09:DD01: F4 xx xx     	pea	#<L2+1051
  1587 09:DD04: D4 2D        	pei	<L4+fd_1+2
  1588 09:DD06: D4 2B        	pei	<L4+fd_1
  1589 09:DD08: F4 0A 00     	pea	#10
  1590 09:DD0B: 22 xx xx xx  	jsl	~~f_printf
  1591                        ;
  1592                        ;      /** Header **/
  1593                        ;      f_printf(fd,"  ***  Header  ***\n\n");
  1594                        	.line	105
  1595 09:DD0F: F4 xx xx     	pea	#^L2+1081
  1596 09:DD12: F4 xx xx     	pea	#<L2+1081
  1597 09:DD15: D4 2D        	pei	<L4+fd_1+2
  1598 09:DD17: D4 2B        	pei	<L4+fd_1
  1599 09:DD19: F4 0A 00     	pea	#10
  1600 09:DD1C: 22 xx xx xx  	jsl	~~f_printf
  1601                        ;      DumpSegmentHeader(&current_segment->header,
                    fd);
  1602                        	.line	106
  1603 09:DD20: D4 2D        	pei	<L4+fd_1+2
  1604 09:DD22: D4 2B        	pei	<L4+fd_1
  1605 09:DD24: D4 31        	pei	<L4+current_segment_1+2
  1606 09:DD26: D4 2F        	pei	<L4+current_segment_1
  1607 09:DD28: 22 9E EF 09  	jsl	~~DumpSegmentHeader
  1608                        ;
  1609                        ;      /** Data / Code **/
  1610                        ;      f_printf(fd,"  ***  Data or Code  ***\n\n")
                    ;
  1611                        	.line	109
  1612 09:DD2C: F4 xx xx     	pea	#^L2+1102
  1613 09:DD2F: F4 xx xx     	pea	#<L2+1102
  1614 09:DD32: D4 2D        	pei	<L4+fd_1+2
  1615 09:DD34: D4 2B        	pei	<L4+fd_1
  1616 09:DD36: F4 0A 00     	pea	#10
  1617 09:DD39: 22 xx xx xx  	jsl	~~f_printf
  1618                        ;      if(current_segment->data_length == 0)
  1619                        	.line	110
  1620                        ;        f_printf(fd,"       - No Data or Code rec
                    ord\n\n");
  1621 09:DD3D: A0 4B 0A     	ldy	#$a4b
  1622 09:DD40: B7 2F        	lda	[<L4+current_segment_1],Y
  1623 09:DD42: F0 03        	beq	L12
  Thu Dec  3 2020 22:25                                                Page 33


  1624 09:DD44: 82 14 00     	brl	L10010
  1625                        L12:
  1626                        	.line	111
  1627 09:DD47: F4 xx xx     	pea	#^L2+1129
  1628 09:DD4A: F4 xx xx     	pea	#<L2+1129
  1629 09:DD4D: D4 2D        	pei	<L4+fd_1+2
  1630 09:DD4F: D4 2B        	pei	<L4+fd_1
  1631 09:DD51: F4 0A 00     	pea	#10
  1632 09:DD54: 22 xx xx xx  	jsl	~~f_printf
  1633                        ;      else
  1634 09:DD58: 82 03 01     	brl	L10011
  1635                        L10010:
  1636                        ;        {
  1637                        	.line	113
  1638                        ;    	  grl = GetRecordList(current_segment);
  1639                        	.line	114
  1640 09:DD5B: D4 31        	pei	<L4+current_segment_1+2
  1641 09:DD5D: D4 2F        	pei	<L4+current_segment_1
  1642 09:DD5F: 22 DD F4 09  	jsl	~~GetRecordList
  1643 09:DD63: 85 33        	sta	<L4+grl_1
  1644 09:DD65: 86 35        	stx	<L4+grl_1+2
  1645                        ;          /* Liste des Record du Body */
  1646                        ;          f_printf(fd,"     o Body Record List   
                                                       :  %s\n\n",grl);
  1647                        	.line	116
  1648 09:DD67: D4 35        	pei	<L4+grl_1+2
  1649 09:DD69: D4 33        	pei	<L4+grl_1
  1650 09:DD6B: F4 xx xx     	pea	#^L2+1163
  1651 09:DD6E: F4 xx xx     	pea	#<L2+1163
  1652 09:DD71: D4 2D        	pei	<L4+fd_1+2
  1653 09:DD73: D4 2B        	pei	<L4+fd_1
  1654 09:DD75: F4 0E 00     	pea	#14
  1655 09:DD78: 22 xx xx xx  	jsl	~~f_printf
  1656                        ;          k_free(grl);
  1657                        	.line	117
  1658 09:DD7C: D4 35        	pei	<L4+grl_1+2
  1659 09:DD7E: D4 33        	pei	<L4+grl_1
  1660 09:DD80: 22 xx xx xx  	jsl	~~k_free
  1661                        ;          f_printf(fd,"     - Data Offset    :  %
                    06X\n",current_segment->data_offset);
  1662                        	.line	118
  1663 09:DD84: A0 49 0A     	ldy	#$a49
  1664 09:DD87: B7 2F        	lda	[<L4+current_segment_1],Y
  1665 09:DD89: 48           	pha
  1666 09:DD8A: F4 xx xx     	pea	#^L2+1232
  1667 09:DD8D: F4 xx xx     	pea	#<L2+1232
  1668 09:DD90: D4 2D        	pei	<L4+fd_1+2
  1669 09:DD92: D4 2B        	pei	<L4+fd_1
  1670 09:DD94: F4 0C 00     	pea	#12
  1671 09:DD97: 22 xx xx xx  	jsl	~~f_printf
  1672                        ;          f_printf(fd,"     - Data Length    :  %
                    06X (%d)\n\n",current_segment->data_length,current_segment->
                    data_length);
  1673                        	.line	119
  1674 09:DD9B: A0 4B 0A     	ldy	#$a4b
  1675 09:DD9E: B7 2F        	lda	[<L4+current_segment_1],Y
  1676 09:DDA0: 48           	pha
  1677 09:DDA1: A0 4B 0A     	ldy	#$a4b
  Thu Dec  3 2020 22:25                                                Page 34


  1678 09:DDA4: B7 2F        	lda	[<L4+current_segment_1],Y
  1679 09:DDA6: 48           	pha
  1680 09:DDA7: F4 xx xx     	pea	#^L2+1263
  1681 09:DDAA: F4 xx xx     	pea	#<L2+1263
  1682 09:DDAD: D4 2D        	pei	<L4+fd_1+2
  1683 09:DDAF: D4 2B        	pei	<L4+fd_1
  1684 09:DDB1: F4 0E 00     	pea	#14
  1685 09:DDB4: 22 xx xx xx  	jsl	~~f_printf
  1686                        ;
  1687                        ;          /* On va dcoder l'ExpressLoad */
  1688                        ;          if(!my_stricmp(current_segment->header.
                    SegName,"~ExpressLoad"))
  1689                        	.line	122
  1690                        ;            DumpExpressLoadData(current_segment,f
                    d);
  1691 09:DDB8: F4 xx xx     	pea	#^L2+1300
  1692 09:DDBB: F4 xx xx     	pea	#<L2+1300
  1693 09:DDBE: 18           	clc
  1694 09:DDBF: A9 3C 09     	lda	#$93c
  1695 09:DDC2: 65 2F        	adc	<L4+current_segment_1
  1696 09:DDC4: 85 01        	sta	<R0
  1697 09:DDC6: A9 00 00     	lda	#$0
  1698 09:DDC9: 65 31        	adc	<L4+current_segment_1+2
  1699 09:DDCB: 85 03        	sta	<R0+2
  1700 09:DDCD: D4 03        	pei	<R0+2
  1701 09:DDCF: D4 01        	pei	<R0
  1702 09:DDD1: 22 xx xx xx  	jsl	~~my_stricmp
  1703 09:DDD5: AA           	tax
  1704 09:DDD6: F0 03        	beq	L13
  1705 09:DDD8: 82 0F 00     	brl	L10012
  1706                        L13:
  1707                        	.line	123
  1708 09:DDDB: D4 2D        	pei	<L4+fd_1+2
  1709 09:DDDD: D4 2B        	pei	<L4+fd_1
  1710 09:DDDF: D4 31        	pei	<L4+current_segment_1+2
  1711 09:DDE1: D4 2F        	pei	<L4+current_segment_1
  1712 09:DDE3: 22 12 E7 09  	jsl	~~DumpExpressLoadData
  1713                        ;          else
  1714 09:DDE7: 82 74 00     	brl	L10013
  1715                        L10012:
  1716                        ;            {
  1717                        	.line	125
  1718                        ;              /* Valeurs en Hexa */
  1719                        ;              for(i=0; i< (int) current_segment->
                    data_length; i+=nb_item)
  1720                        	.line	127
  1721 09:DDEA: 64 25        	stz	<L4+i_1
  1722 09:DDEC: 82 5D 00     	brl	L10017
  1723                        L10016:
  1724                        ;                {
  1725                        	.line	128
  1726                        ;                  /* 1 Ligne de 32 bytes */
  1727                        ;                  nb_item = ((i+32) > (int) curre
                    nt_segment->data_length) ? (current_segment->data_length - i
                    ) : 32;
  1728                        	.line	130
  1729 09:DDEF: 18           	clc
  1730 09:DDF0: A9 20 00     	lda	#$20
  Thu Dec  3 2020 22:25                                                Page 35


  1731 09:DDF3: 65 25        	adc	<L4+i_1
  1732 09:DDF5: 85 01        	sta	<R0
  1733 09:DDF7: 38           	sec
  1734 09:DDF8: A0 4B 0A     	ldy	#$a4b
  1735 09:DDFB: B7 2F        	lda	[<L4+current_segment_1],Y
  1736 09:DDFD: E5 01        	sbc	<R0
  1737 09:DDFF: 70 03        	bvs	L15
  1738 09:DE01: 49 00 80     	eor	#$8000
  1739                        L15:
  1740 09:DE04: 10 03        	bpl	L16
  1741 09:DE06: 82 0A 00     	brl	L14
  1742                        L16:
  1743 09:DE09: 38           	sec
  1744 09:DE0A: A0 4B 0A     	ldy	#$a4b
  1745 09:DE0D: B7 2F        	lda	[<L4+current_segment_1],Y
  1746 09:DE0F: E5 25        	sbc	<L4+i_1
  1747 09:DE11: 80 03        	bra	L17
  1748                        L14:
  1749 09:DE13: A9 20 00     	lda	#$20
  1750                        L17:
  1751 09:DE16: 85 29        	sta	<L4+nb_item_1
  1752                        ;                  for(j=0; j<nb_item; j++)
  1753                        	.line	131
  1754 09:DE18: 64 27        	stz	<L4+j_1
  1755 09:DE1A: 82 02 00     	brl	L10021
  1756                        L10020:
  1757                        ;                    {
  1758                        	.line	132
  1759                        ;                      ////sprintf(&buffer[j*3],"%
                    02X",current_segment->data[i+j]);
  1760                        ;                      //k_strcat(buffer,(j == 15)
                     ? "." : " ");
  1761                        ;                    }
  1762                        	.line	135
  1763                        L10018:
  1764 09:DE1D: E6 27        	inc	<L4+j_1
  1765                        L10021:
  1766 09:DE1F: 38           	sec
  1767 09:DE20: A5 27        	lda	<L4+j_1
  1768 09:DE22: E5 29        	sbc	<L4+nb_item_1
  1769 09:DE24: 70 03        	bvs	L18
  1770 09:DE26: 49 00 80     	eor	#$8000
  1771                        L18:
  1772 09:DE29: 30 03        	bmi	L19
  1773 09:DE2B: 82 EF FF     	brl	L10020
  1774                        L19:
  1775                        L10019:
  1776                        ;
  1777                        ;                  /* Dump dans le fichier */
  1778                        ;                  f_printf(fd,"       %06X   %s\n
                    ",i,buffer);
  1779                        	.line	138
  1780 09:DE2E: D4 39        	pei	<L4+buffer_1+2
  1781 09:DE30: D4 37        	pei	<L4+buffer_1
  1782 09:DE32: D4 25        	pei	<L4+i_1
  1783 09:DE34: F4 xx xx     	pea	#^L2+1313
  1784 09:DE37: F4 xx xx     	pea	#<L2+1313
  1785 09:DE3A: D4 2D        	pei	<L4+fd_1+2
  Thu Dec  3 2020 22:25                                                Page 36


  1786 09:DE3C: D4 2B        	pei	<L4+fd_1
  1787 09:DE3E: F4 10 00     	pea	#16
  1788 09:DE41: 22 xx xx xx  	jsl	~~f_printf
  1789                        ;                }
  1790                        	.line	139
  1791                        L10014:
  1792 09:DE45: 18           	clc
  1793 09:DE46: A5 25        	lda	<L4+i_1
  1794 09:DE48: 65 29        	adc	<L4+nb_item_1
  1795 09:DE4A: 85 25        	sta	<L4+i_1
  1796                        L10017:
  1797 09:DE4C: 38           	sec
  1798 09:DE4D: A5 25        	lda	<L4+i_1
  1799 09:DE4F: A0 4B 0A     	ldy	#$a4b
  1800 09:DE52: F7 2F        	sbc	[<L4+current_segment_1],Y
  1801 09:DE54: 70 03        	bvs	L20
  1802 09:DE56: 49 00 80     	eor	#$8000
  1803                        L20:
  1804 09:DE59: 30 03        	bmi	L21
  1805 09:DE5B: 82 91 FF     	brl	L10016
  1806                        L21:
  1807                        L10015:
  1808                        ;            }
  1809                        	.line	140
  1810                        L10013:
  1811                        ;        }
  1812                        	.line	141
  1813                        L10011:
  1814                        ;      f_printf(fd,"\n");
  1815                        	.line	142
  1816 09:DE5E: F4 xx xx     	pea	#^L2+1331
  1817 09:DE61: F4 xx xx     	pea	#<L2+1331
  1818 09:DE64: D4 2D        	pei	<L4+fd_1+2
  1819 09:DE66: D4 2B        	pei	<L4+fd_1
  1820 09:DE68: F4 0A 00     	pea	#10
  1821 09:DE6B: 22 xx xx xx  	jsl	~~f_printf
  1822                        ;
  1823                        ;      /** Relocation dictionary **/
  1824                        ;      if(current_segment->nb_reloc > 0 || current
                    _segment->nb_interseg > 0)
  1825                        	.line	145
  1826                        ;        {
  1827 09:DE6F: 38           	sec
  1828 09:DE70: A9 00 00     	lda	#$0
  1829 09:DE73: A0 55 0A     	ldy	#$a55
  1830 09:DE76: F7 2F        	sbc	[<L4+current_segment_1],Y
  1831 09:DE78: 70 03        	bvs	L23
  1832 09:DE7A: 49 00 80     	eor	#$8000
  1833                        L23:
  1834 09:DE7D: 30 03        	bmi	L24
  1835 09:DE7F: 82 13 00     	brl	L22
  1836                        L24:
  1837 09:DE82: 38           	sec
  1838 09:DE83: A9 00 00     	lda	#$0
  1839 09:DE86: A0 5B 0A     	ldy	#$a5b
  1840 09:DE89: F7 2F        	sbc	[<L4+current_segment_1],Y
  1841 09:DE8B: 70 03        	bvs	L25
  1842 09:DE8D: 49 00 80     	eor	#$8000
  Thu Dec  3 2020 22:25                                                Page 37


  1843                        L25:
  1844 09:DE90: 10 03        	bpl	L26
  1845 09:DE92: 82 45 00     	brl	L10022
  1846                        L26:
  1847                        L22:
  1848                        	.line	146
  1849                        ;          f_printf(fd,"  ***  Relocation Dictiona
                    ry ***\n\n");
  1850                        	.line	147
  1851 09:DE95: F4 xx xx     	pea	#^L2+1333
  1852 09:DE98: F4 xx xx     	pea	#<L2+1333
  1853 09:DE9B: D4 2D        	pei	<L4+fd_1+2
  1854 09:DE9D: D4 2B        	pei	<L4+fd_1
  1855 09:DE9F: F4 0A 00     	pea	#10
  1856 09:DEA2: 22 xx xx xx  	jsl	~~f_printf
  1857                        ;          f_printf(fd,"     - Reloc Offset   :  %
                    06X\n",current_segment->reloc_offset);
  1858                        	.line	148
  1859 09:DEA6: A0 51 0A     	ldy	#$a51
  1860 09:DEA9: B7 2F        	lda	[<L4+current_segment_1],Y
  1861 09:DEAB: 48           	pha
  1862 09:DEAC: F4 xx xx     	pea	#^L2+1368
  1863 09:DEAF: F4 xx xx     	pea	#<L2+1368
  1864 09:DEB2: D4 2D        	pei	<L4+fd_1+2
  1865 09:DEB4: D4 2B        	pei	<L4+fd_1
  1866 09:DEB6: F4 0C 00     	pea	#12
  1867 09:DEB9: 22 xx xx xx  	jsl	~~f_printf
  1868                        ;          f_printf(fd,"     - Reloc Length   :  %
                    06X (%d)\n\n",current_segment->reloc_length,current_segment-
                    >reloc_length);
  1869                        	.line	149
  1870 09:DEBD: A0 53 0A     	ldy	#$a53
  1871 09:DEC0: B7 2F        	lda	[<L4+current_segment_1],Y
  1872 09:DEC2: 48           	pha
  1873 09:DEC3: A0 53 0A     	ldy	#$a53
  1874 09:DEC6: B7 2F        	lda	[<L4+current_segment_1],Y
  1875 09:DEC8: 48           	pha
  1876 09:DEC9: F4 xx xx     	pea	#^L2+1399
  1877 09:DECC: F4 xx xx     	pea	#<L2+1399
  1878 09:DECF: D4 2D        	pei	<L4+fd_1+2
  1879 09:DED1: D4 2B        	pei	<L4+fd_1
  1880 09:DED3: F4 0E 00     	pea	#14
  1881 09:DED6: 22 xx xx xx  	jsl	~~f_printf
  1882                        ;        }
  1883                        	.line	150
  1884                        ;
  1885                        ;      /** RELOC **/
  1886                        ;      if(current_segment->nb_reloc > 0)
  1887                        L10022:
  1888                        	.line	153
  1889                        ;        {
  1890 09:DEDA: 38           	sec
  1891 09:DEDB: A9 00 00     	lda	#$0
  1892 09:DEDE: A0 55 0A     	ldy	#$a55
  1893 09:DEE1: F7 2F        	sbc	[<L4+current_segment_1],Y
  1894 09:DEE3: 70 03        	bvs	L27
  1895 09:DEE5: 49 00 80     	eor	#$8000
  1896                        L27:
  Thu Dec  3 2020 22:25                                                Page 38


  1897 09:DEE8: 10 03        	bpl	L28
  1898 09:DEEA: 82 66 04     	brl	L10023
  1899                        L28:
  1900                        	.line	154
  1901                        ;          f_printf(fd,"     - # Address to be pat
                    ched  :  %04X (%d)\n\n",current_segment->nb_reloc,current_se
                    gment->nb_reloc);
  1902                        	.line	155
  1903 09:DEED: A0 55 0A     	ldy	#$a55
  1904 09:DEF0: B7 2F        	lda	[<L4+current_segment_1],Y
  1905 09:DEF2: 48           	pha
  1906 09:DEF3: A0 55 0A     	ldy	#$a55
  1907 09:DEF6: B7 2F        	lda	[<L4+current_segment_1],Y
  1908 09:DEF8: 48           	pha
  1909 09:DEF9: F4 xx xx     	pea	#^L2+1436
  1910 09:DEFC: F4 xx xx     	pea	#<L2+1436
  1911 09:DEFF: D4 2D        	pei	<L4+fd_1+2
  1912 09:DF01: D4 2B        	pei	<L4+fd_1
  1913 09:DF03: F4 0E 00     	pea	#14
  1914 09:DF06: 22 xx xx xx  	jsl	~~f_printf
  1915                        ;          f_printf(fd,"       +--------+---------
                    --+-------------+----------+-------------+\n");
  1916                        	.line	156
  1917 09:DF0A: F4 xx xx     	pea	#^L2+1483
  1918 09:DF0D: F4 xx xx     	pea	#<L2+1483
  1919 09:DF10: D4 2D        	pei	<L4+fd_1+2
  1920 09:DF12: D4 2B        	pei	<L4+fd_1
  1921 09:DF14: F4 0A 00     	pea	#10
  1922 09:DF17: 22 xx xx xx  	jsl	~~f_printf
  1923                        ;          f_printf(fd,"       |    #   |  # Bytes
                      |  Bit Shift  |  Offset  |  Reference  |\n");
  1924                        	.line	157
  1925 09:DF1B: F4 xx xx     	pea	#^L2+1553
  1926 09:DF1E: F4 xx xx     	pea	#<L2+1553
  1927 09:DF21: D4 2D        	pei	<L4+fd_1+2
  1928 09:DF23: D4 2B        	pei	<L4+fd_1
  1929 09:DF25: F4 0A 00     	pea	#10
  1930 09:DF28: 22 xx xx xx  	jsl	~~f_printf
  1931                        ;          f_printf(fd,"       +--------+---------
                    --+-------------+----------+-------------+\n");
  1932                        	.line	158
  1933 09:DF2C: F4 xx xx     	pea	#^L2+1623
  1934 09:DF2F: F4 xx xx     	pea	#<L2+1623
  1935 09:DF32: D4 2D        	pei	<L4+fd_1+2
  1936 09:DF34: D4 2B        	pei	<L4+fd_1
  1937 09:DF36: F4 0A 00     	pea	#10
  1938 09:DF39: 22 xx xx xx  	jsl	~~f_printf
  1939                        ;          for(i=0; i<current_segment->nb_reloc; i
                    ++)
  1940                        	.line	159
  1941 09:DF3D: 64 25        	stz	<L4+i_1
  1942 09:DF3F: 82 EE 03     	brl	L10027
  1943                        L10026:
  1944                        ;            {
  1945                        	.line	160
  1946                        ;              /* Bit Shift en version Ascii */
  1947                        ;              if(current_segment->tab_reloc[i]->B
                    itShiftCnt == 0x00)
  Thu Dec  3 2020 22:25                                                Page 39


  1948                        	.line	162
  1949                        ;                k_strcpy(bit_shift,"     ");
  1950 09:DF42: A0 00 00     	ldy	#$0
  1951 09:DF45: A5 25        	lda	<L4+i_1
  1952 09:DF47: 10 01        	bpl	L29
  1953 09:DF49: 88           	dey
  1954                        L29:
  1955 09:DF4A: 85 05        	sta	<R1
  1956 09:DF4C: 84 07        	sty	<R1+2
  1957 09:DF4E: D4 07        	pei	<R1+2
  1958 09:DF50: D4 05        	pei	<R1
  1959 09:DF52: A9 02 00     	lda	#$2
  1960                        	xref	~~~lasl
  1961 09:DF55: 22 xx xx xx  	jsl	~~~lasl
  1962 09:DF59: 85 01        	sta	<R0
  1963 09:DF5B: 86 03        	stx	<R0+2
  1964 09:DF5D: 18           	clc
  1965 09:DF5E: A0 57 0A     	ldy	#$a57
  1966 09:DF61: B7 2F        	lda	[<L4+current_segment_1],Y
  1967 09:DF63: 65 01        	adc	<R0
  1968 09:DF65: 85 09        	sta	<R2
  1969 09:DF67: A0 59 0A     	ldy	#$a59
  1970 09:DF6A: B7 2F        	lda	[<L4+current_segment_1],Y
  1971 09:DF6C: 65 03        	adc	<R0+2
  1972 09:DF6E: 85 0B        	sta	<R2+2
  1973 09:DF70: A7 09        	lda	[<R2]
  1974 09:DF72: 85 01        	sta	<R0
  1975 09:DF74: A0 02 00     	ldy	#$2
  1976 09:DF77: B7 09        	lda	[<R2],Y
  1977 09:DF79: 85 03        	sta	<R0+2
  1978 09:DF7B: A0 01 00     	ldy	#$1
  1979 09:DF7E: B7 01        	lda	[<R0],Y
  1980 09:DF80: 29 FF 00     	and	#$ff
  1981 09:DF83: F0 03        	beq	L30
  1982 09:DF85: 82 1B 00     	brl	L10028
  1983                        L30:
  1984                        	.line	163
  1985 09:DF88: F4 xx xx     	pea	#^L2+1693
  1986 09:DF8B: F4 xx xx     	pea	#<L2+1693
  1987 09:DF8E: A9 xx xx     	lda	#<~~bit_shift
  1988 09:DF91: 85 01        	sta	<R0
  1989                        	xref	_BEG_DATA
  1990 09:DF93: A9 xx xx     	lda	#_BEG_DATA>>16
  1991 09:DF96: 85 03        	sta	<R0+2
  1992 09:DF98: D4 03        	pei	<R0+2
  1993 09:DF9A: D4 01        	pei	<R0
  1994 09:DF9C: 22 xx xx xx  	jsl	~~k_strcpy
  1995                        ;              else if(current_segment->tab_reloc[
                    i]->BitShiftCnt == 0xF8)   /* F8 = -8 */
  1996 09:DFA0: 82 C8 00     	brl	L10029
  1997                        L10028:
  1998                        	.line	164
  1999                        ;                k_strcpy(bit_shift,">> 8 ");
  2000 09:DFA3: A0 00 00     	ldy	#$0
  2001 09:DFA6: A5 25        	lda	<L4+i_1
  2002 09:DFA8: 10 01        	bpl	L31
  2003 09:DFAA: 88           	dey
  2004                        L31:
  Thu Dec  3 2020 22:25                                                Page 40


  2005 09:DFAB: 85 05        	sta	<R1
  2006 09:DFAD: 84 07        	sty	<R1+2
  2007 09:DFAF: D4 07        	pei	<R1+2
  2008 09:DFB1: D4 05        	pei	<R1
  2009 09:DFB3: A9 02 00     	lda	#$2
  2010                        	xref	~~~lasl
  2011 09:DFB6: 22 xx xx xx  	jsl	~~~lasl
  2012 09:DFBA: 85 01        	sta	<R0
  2013 09:DFBC: 86 03        	stx	<R0+2
  2014 09:DFBE: 18           	clc
  2015 09:DFBF: A0 57 0A     	ldy	#$a57
  2016 09:DFC2: B7 2F        	lda	[<L4+current_segment_1],Y
  2017 09:DFC4: 65 01        	adc	<R0
  2018 09:DFC6: 85 09        	sta	<R2
  2019 09:DFC8: A0 59 0A     	ldy	#$a59
  2020 09:DFCB: B7 2F        	lda	[<L4+current_segment_1],Y
  2021 09:DFCD: 65 03        	adc	<R0+2
  2022 09:DFCF: 85 0B        	sta	<R2+2
  2023 09:DFD1: A7 09        	lda	[<R2]
  2024 09:DFD3: 85 01        	sta	<R0
  2025 09:DFD5: A0 02 00     	ldy	#$2
  2026 09:DFD8: B7 09        	lda	[<R2],Y
  2027 09:DFDA: 85 03        	sta	<R0+2
  2028 09:DFDC: E2 20        	sep	#$20
  2029                        	longa	off
  2030 09:DFDE: A0 01 00     	ldy	#$1
  2031 09:DFE1: B7 01        	lda	[<R0],Y
  2032 09:DFE3: C9 F8        	cmp	#<$f8
  2033 09:DFE5: C2 20        	rep	#$20
  2034                        	longa	on
  2035 09:DFE7: F0 03        	beq	L32
  2036 09:DFE9: 82 1B 00     	brl	L10030
  2037                        L32:
  2038                        	.line	165
  2039 09:DFEC: F4 xx xx     	pea	#^L2+1699
  2040 09:DFEF: F4 xx xx     	pea	#<L2+1699
  2041 09:DFF2: A9 xx xx     	lda	#<~~bit_shift
  2042 09:DFF5: 85 01        	sta	<R0
  2043                        	xref	_BEG_DATA
  2044 09:DFF7: A9 xx xx     	lda	#_BEG_DATA>>16
  2045 09:DFFA: 85 03        	sta	<R0+2
  2046 09:DFFC: D4 03        	pei	<R0+2
  2047 09:DFFE: D4 01        	pei	<R0
  2048 09:E000: 22 xx xx xx  	jsl	~~k_strcpy
  2049                        ;              else if(current_segment->tab_reloc[
                    i]->BitShiftCnt == 0xF0)   /* F0 = -16 */
  2050 09:E004: 82 64 00     	brl	L10031
  2051                        L10030:
  2052                        	.line	166
  2053                        ;                k_strcpy(bit_shift,">> 16");
  2054 09:E007: A0 00 00     	ldy	#$0
  2055 09:E00A: A5 25        	lda	<L4+i_1
  2056 09:E00C: 10 01        	bpl	L33
  2057 09:E00E: 88           	dey
  2058                        L33:
  2059 09:E00F: 85 05        	sta	<R1
  2060 09:E011: 84 07        	sty	<R1+2
  2061 09:E013: D4 07        	pei	<R1+2
  Thu Dec  3 2020 22:25                                                Page 41


  2062 09:E015: D4 05        	pei	<R1
  2063 09:E017: A9 02 00     	lda	#$2
  2064                        	xref	~~~lasl
  2065 09:E01A: 22 xx xx xx  	jsl	~~~lasl
  2066 09:E01E: 85 01        	sta	<R0
  2067 09:E020: 86 03        	stx	<R0+2
  2068 09:E022: 18           	clc
  2069 09:E023: A0 57 0A     	ldy	#$a57
  2070 09:E026: B7 2F        	lda	[<L4+current_segment_1],Y
  2071 09:E028: 65 01        	adc	<R0
  2072 09:E02A: 85 09        	sta	<R2
  2073 09:E02C: A0 59 0A     	ldy	#$a59
  2074 09:E02F: B7 2F        	lda	[<L4+current_segment_1],Y
  2075 09:E031: 65 03        	adc	<R0+2
  2076 09:E033: 85 0B        	sta	<R2+2
  2077 09:E035: A7 09        	lda	[<R2]
  2078 09:E037: 85 01        	sta	<R0
  2079 09:E039: A0 02 00     	ldy	#$2
  2080 09:E03C: B7 09        	lda	[<R2],Y
  2081 09:E03E: 85 03        	sta	<R0+2
  2082 09:E040: E2 20        	sep	#$20
  2083                        	longa	off
  2084 09:E042: A0 01 00     	ldy	#$1
  2085 09:E045: B7 01        	lda	[<R0],Y
  2086 09:E047: C9 F0        	cmp	#<$f0
  2087 09:E049: C2 20        	rep	#$20
  2088                        	longa	on
  2089 09:E04B: F0 03        	beq	L34
  2090 09:E04D: 82 1B 00     	brl	L10032
  2091                        L34:
  2092                        	.line	167
  2093 09:E050: F4 xx xx     	pea	#^L2+1705
  2094 09:E053: F4 xx xx     	pea	#<L2+1705
  2095 09:E056: A9 xx xx     	lda	#<~~bit_shift
  2096 09:E059: 85 01        	sta	<R0
  2097                        	xref	_BEG_DATA
  2098 09:E05B: A9 xx xx     	lda	#_BEG_DATA>>16
  2099 09:E05E: 85 03        	sta	<R0+2
  2100 09:E060: D4 03        	pei	<R0+2
  2101 09:E062: D4 01        	pei	<R0
  2102 09:E064: 22 xx xx xx  	jsl	~~k_strcpy
  2103                        ;              else
  2104 09:E068: 82 00 00     	brl	L10033
  2105                        L10032:
  2106                        ;              {
  2107                        	.line	169
  2108                        ;                ////sprintf(bit_shift," %02X  ",c
                    urrent_segment->tab_reloc[i]->BitShiftCnt);
  2109                        ;              }
  2110                        	.line	171
  2111                        L10033:
  2112                        L10031:
  2113                        L10029:
  2114                        ;              /* Ligne de Patch d'une adresse int
                    erne au segment */
  2115                        ;              if((current_segment->tab_reloc[i]->
                    OffsetReference & 0xFF000000) == 0x00000000)
  2116                        	.line	173
  Thu Dec  3 2020 22:25                                                Page 42


  2117                        ;                f_printf(fd,"       |  %04X  |   
                     %02X     |    %s    |  %06X  |   %06X    |  %s\n",
  2118 09:E06B: A0 00 00     	ldy	#$0
  2119 09:E06E: A5 25        	lda	<L4+i_1
  2120 09:E070: 10 01        	bpl	L35
  2121 09:E072: 88           	dey
  2122                        L35:
  2123 09:E073: 85 05        	sta	<R1
  2124 09:E075: 84 07        	sty	<R1+2
  2125 09:E077: D4 07        	pei	<R1+2
  2126 09:E079: D4 05        	pei	<R1
  2127 09:E07B: A9 02 00     	lda	#$2
  2128                        	xref	~~~lasl
  2129 09:E07E: 22 xx xx xx  	jsl	~~~lasl
  2130 09:E082: 85 01        	sta	<R0
  2131 09:E084: 86 03        	stx	<R0+2
  2132 09:E086: 18           	clc
  2133 09:E087: A0 57 0A     	ldy	#$a57
  2134 09:E08A: B7 2F        	lda	[<L4+current_segment_1],Y
  2135 09:E08C: 65 01        	adc	<R0
  2136 09:E08E: 85 09        	sta	<R2
  2137 09:E090: A0 59 0A     	ldy	#$a59
  2138 09:E093: B7 2F        	lda	[<L4+current_segment_1],Y
  2139 09:E095: 65 03        	adc	<R0+2
  2140 09:E097: 85 0B        	sta	<R2+2
  2141 09:E099: A7 09        	lda	[<R2]
  2142 09:E09B: 85 01        	sta	<R0
  2143 09:E09D: A0 02 00     	ldy	#$2
  2144 09:E0A0: B7 09        	lda	[<R2],Y
  2145 09:E0A2: 85 03        	sta	<R0+2
  2146 09:E0A4: A0 08 00     	ldy	#$8
  2147 09:E0A7: B7 01        	lda	[<R0],Y
  2148 09:E0A9: 29 00 FF     	and	#^$ff000000
  2149 09:E0AC: F0 03        	beq	L36
  2150 09:E0AE: 82 40 01     	brl	L10034
  2151                        L36:
  2152                        	.line	174
  2153                        ;                           i,
  2154                        ;                           current_segment->tab_r
                    eloc[i]->ByteCnt,
  2155                        ;                           bit_shift,
  2156                        ;                           current_segment->tab_r
                    eloc[i]->OffsetPatch,
  2157                        ;                           current_segment->tab_r
                    eloc[i]->OffsetReference,
  2158                        ;                           origin_tab[current_seg
                    ment->tab_reloc[i]->origin]);
  2159 09:E0B1: A0 00 00     	ldy	#$0
  2160 09:E0B4: A5 25        	lda	<L4+i_1
  2161 09:E0B6: 10 01        	bpl	L37
  2162 09:E0B8: 88           	dey
  2163                        L37:
  2164 09:E0B9: 85 09        	sta	<R2
  2165 09:E0BB: 84 0B        	sty	<R2+2
  2166 09:E0BD: D4 0B        	pei	<R2+2
  2167 09:E0BF: D4 09        	pei	<R2
  2168 09:E0C1: A9 02 00     	lda	#$2
  2169                        	xref	~~~lasl
  Thu Dec  3 2020 22:25                                                Page 43


  2170 09:E0C4: 22 xx xx xx  	jsl	~~~lasl
  2171 09:E0C8: 85 05        	sta	<R1
  2172 09:E0CA: 86 07        	stx	<R1+2
  2173 09:E0CC: 18           	clc
  2174 09:E0CD: A0 57 0A     	ldy	#$a57
  2175 09:E0D0: B7 2F        	lda	[<L4+current_segment_1],Y
  2176 09:E0D2: 65 05        	adc	<R1
  2177 09:E0D4: 85 0D        	sta	<R3
  2178 09:E0D6: A0 59 0A     	ldy	#$a59
  2179 09:E0D9: B7 2F        	lda	[<L4+current_segment_1],Y
  2180 09:E0DB: 65 07        	adc	<R1+2
  2181 09:E0DD: 85 0F        	sta	<R3+2
  2182 09:E0DF: A7 0D        	lda	[<R3]
  2183 09:E0E1: 85 05        	sta	<R1
  2184 09:E0E3: A0 02 00     	ldy	#$2
  2185 09:E0E6: B7 0D        	lda	[<R3],Y
  2186 09:E0E8: 85 07        	sta	<R1+2
  2187 09:E0EA: A0 0A 00     	ldy	#$a
  2188 09:E0ED: B7 05        	lda	[<R1],Y
  2189 09:E0EF: 0A           	asl	A
  2190 09:E0F0: 0A           	asl	A
  2191 09:E0F1: 85 01        	sta	<R0
  2192 09:E0F3: 18           	clc
  2193 09:E0F4: A9 xx xx     	lda	#<~~origin_tab
  2194 09:E0F7: 65 01        	adc	<R0
  2195 09:E0F9: 85 05        	sta	<R1
  2196 09:E0FB: A0 02 00     	ldy	#$2
  2197 09:E0FE: B1 05        	lda	(<R1),Y
  2198 09:E100: 48           	pha
  2199 09:E101: B2 05        	lda	(<R1)
  2200 09:E103: 48           	pha
  2201 09:E104: A0 00 00     	ldy	#$0
  2202 09:E107: A5 25        	lda	<L4+i_1
  2203 09:E109: 10 01        	bpl	L38
  2204 09:E10B: 88           	dey
  2205                        L38:
  2206 09:E10C: 85 05        	sta	<R1
  2207 09:E10E: 84 07        	sty	<R1+2
  2208 09:E110: D4 07        	pei	<R1+2
  2209 09:E112: D4 05        	pei	<R1
  2210 09:E114: A9 02 00     	lda	#$2
  2211                        	xref	~~~lasl
  2212 09:E117: 22 xx xx xx  	jsl	~~~lasl
  2213 09:E11B: 85 01        	sta	<R0
  2214 09:E11D: 86 03        	stx	<R0+2
  2215 09:E11F: 18           	clc
  2216 09:E120: A0 57 0A     	ldy	#$a57
  2217 09:E123: B7 2F        	lda	[<L4+current_segment_1],Y
  2218 09:E125: 65 01        	adc	<R0
  2219 09:E127: 85 0D        	sta	<R3
  2220 09:E129: A0 59 0A     	ldy	#$a59
  2221 09:E12C: B7 2F        	lda	[<L4+current_segment_1],Y
  2222 09:E12E: 65 03        	adc	<R0+2
  2223 09:E130: 85 0F        	sta	<R3+2
  2224 09:E132: A7 0D        	lda	[<R3]
  2225 09:E134: 85 01        	sta	<R0
  2226 09:E136: A0 02 00     	ldy	#$2
  2227 09:E139: B7 0D        	lda	[<R3],Y
  Thu Dec  3 2020 22:25                                                Page 44


  2228 09:E13B: 85 03        	sta	<R0+2
  2229 09:E13D: A0 08 00     	ldy	#$8
  2230 09:E140: B7 01        	lda	[<R0],Y
  2231 09:E142: 48           	pha
  2232 09:E143: A0 06 00     	ldy	#$6
  2233 09:E146: B7 01        	lda	[<R0],Y
  2234 09:E148: 48           	pha
  2235 09:E149: A0 00 00     	ldy	#$0
  2236 09:E14C: A5 25        	lda	<L4+i_1
  2237 09:E14E: 10 01        	bpl	L39
  2238 09:E150: 88           	dey
  2239                        L39:
  2240 09:E151: 85 0D        	sta	<R3
  2241 09:E153: 84 0F        	sty	<R3+2
  2242 09:E155: D4 0F        	pei	<R3+2
  2243 09:E157: D4 0D        	pei	<R3
  2244 09:E159: A9 02 00     	lda	#$2
  2245                        	xref	~~~lasl
  2246 09:E15C: 22 xx xx xx  	jsl	~~~lasl
  2247 09:E160: 85 01        	sta	<R0
  2248 09:E162: 86 03        	stx	<R0+2
  2249 09:E164: 18           	clc
  2250 09:E165: A0 57 0A     	ldy	#$a57
  2251 09:E168: B7 2F        	lda	[<L4+current_segment_1],Y
  2252 09:E16A: 65 01        	adc	<R0
  2253 09:E16C: 85 11        	sta	<17
  2254 09:E16E: A0 59 0A     	ldy	#$a59
  2255 09:E171: B7 2F        	lda	[<L4+current_segment_1],Y
  2256 09:E173: 65 03        	adc	<R0+2
  2257 09:E175: 85 13        	sta	<17+2
  2258 09:E177: A7 11        	lda	[<17]
  2259 09:E179: 85 01        	sta	<R0
  2260 09:E17B: A0 02 00     	ldy	#$2
  2261 09:E17E: B7 11        	lda	[<17],Y
  2262 09:E180: 85 03        	sta	<R0+2
  2263 09:E182: A0 04 00     	ldy	#$4
  2264 09:E185: B7 01        	lda	[<R0],Y
  2265 09:E187: 48           	pha
  2266 09:E188: A0 02 00     	ldy	#$2
  2267 09:E18B: B7 01        	lda	[<R0],Y
  2268 09:E18D: 48           	pha
  2269 09:E18E: A9 xx xx     	lda	#<~~bit_shift
  2270 09:E191: 85 01        	sta	<R0
  2271                        	xref	_BEG_DATA
  2272 09:E193: A9 xx xx     	lda	#_BEG_DATA>>16
  2273 09:E196: 85 03        	sta	<R0+2
  2274 09:E198: D4 03        	pei	<R0+2
  2275 09:E19A: D4 01        	pei	<R0
  2276 09:E19C: A0 00 00     	ldy	#$0
  2277 09:E19F: A5 25        	lda	<L4+i_1
  2278 09:E1A1: 10 01        	bpl	L40
  2279 09:E1A3: 88           	dey
  2280                        L40:
  2281 09:E1A4: 85 15        	sta	<21
  2282 09:E1A6: 84 17        	sty	<21+2
  2283 09:E1A8: D4 17        	pei	<21+2
  2284 09:E1AA: D4 15        	pei	<21
  2285 09:E1AC: A9 02 00     	lda	#$2
  Thu Dec  3 2020 22:25                                                Page 45


  2286                        	xref	~~~lasl
  2287 09:E1AF: 22 xx xx xx  	jsl	~~~lasl
  2288 09:E1B3: 85 11        	sta	<17
  2289 09:E1B5: 86 13        	stx	<17+2
  2290 09:E1B7: 18           	clc
  2291 09:E1B8: A0 57 0A     	ldy	#$a57
  2292 09:E1BB: B7 2F        	lda	[<L4+current_segment_1],Y
  2293 09:E1BD: 65 11        	adc	<17
  2294 09:E1BF: 85 19        	sta	<25
  2295 09:E1C1: A0 59 0A     	ldy	#$a59
  2296 09:E1C4: B7 2F        	lda	[<L4+current_segment_1],Y
  2297 09:E1C6: 65 13        	adc	<17+2
  2298 09:E1C8: 85 1B        	sta	<25+2
  2299 09:E1CA: A7 19        	lda	[<25]
  2300 09:E1CC: 85 11        	sta	<17
  2301 09:E1CE: A0 02 00     	ldy	#$2
  2302 09:E1D1: B7 19        	lda	[<25],Y
  2303 09:E1D3: 85 13        	sta	<17+2
  2304 09:E1D5: A7 11        	lda	[<17]
  2305 09:E1D7: 29 FF 00     	and	#$ff
  2306 09:E1DA: 48           	pha
  2307 09:E1DB: D4 25        	pei	<L4+i_1
  2308 09:E1DD: F4 xx xx     	pea	#^L2+1711
  2309 09:E1E0: F4 xx xx     	pea	#<L2+1711
  2310 09:E1E3: D4 2D        	pei	<L4+fd_1+2
  2311 09:E1E5: D4 2B        	pei	<L4+fd_1
  2312 09:E1E7: F4 1E 00     	pea	#30
  2313 09:E1EA: 22 xx xx xx  	jsl	~~f_printf
  2314                        ;              else
  2315 09:E1EE: 82 3D 01     	brl	L10035
  2316                        L10034:
  2317                        ;                f_printf(fd,"       |  %04X  |   
                     %02X     |    %s    |  %06X  | %08X    |  %s\n",
  2318                        	.line	182
  2319                        ;                           i,
  2320                        ;                           current_segment->tab_r
                    eloc[i]->ByteCnt,
  2321                        ;                           bit_shift,
  2322                        ;                           current_segment->tab_r
                    eloc[i]->OffsetPatch,
  2323                        ;                           current_segment->tab_r
                    eloc[i]->OffsetReference,                   /* RELOC : Offse
                    tReference est sur 32 bits */
  2324                        ;                           origin_tab[current_seg
                    ment->tab_reloc[i]->origin]);
  2325 09:E1F1: A0 00 00     	ldy	#$0
  2326 09:E1F4: A5 25        	lda	<L4+i_1
  2327 09:E1F6: 10 01        	bpl	L41
  2328 09:E1F8: 88           	dey
  2329                        L41:
  2330 09:E1F9: 85 09        	sta	<R2
  2331 09:E1FB: 84 0B        	sty	<R2+2
  2332 09:E1FD: D4 0B        	pei	<R2+2
  2333 09:E1FF: D4 09        	pei	<R2
  2334 09:E201: A9 02 00     	lda	#$2
  2335                        	xref	~~~lasl
  2336 09:E204: 22 xx xx xx  	jsl	~~~lasl
  2337 09:E208: 85 05        	sta	<R1
  Thu Dec  3 2020 22:25                                                Page 46


  2338 09:E20A: 86 07        	stx	<R1+2
  2339 09:E20C: 18           	clc
  2340 09:E20D: A0 57 0A     	ldy	#$a57
  2341 09:E210: B7 2F        	lda	[<L4+current_segment_1],Y
  2342 09:E212: 65 05        	adc	<R1
  2343 09:E214: 85 0D        	sta	<R3
  2344 09:E216: A0 59 0A     	ldy	#$a59
  2345 09:E219: B7 2F        	lda	[<L4+current_segment_1],Y
  2346 09:E21B: 65 07        	adc	<R1+2
  2347 09:E21D: 85 0F        	sta	<R3+2
  2348 09:E21F: A7 0D        	lda	[<R3]
  2349 09:E221: 85 05        	sta	<R1
  2350 09:E223: A0 02 00     	ldy	#$2
  2351 09:E226: B7 0D        	lda	[<R3],Y
  2352 09:E228: 85 07        	sta	<R1+2
  2353 09:E22A: A0 0A 00     	ldy	#$a
  2354 09:E22D: B7 05        	lda	[<R1],Y
  2355 09:E22F: 0A           	asl	A
  2356 09:E230: 0A           	asl	A
  2357 09:E231: 85 01        	sta	<R0
  2358 09:E233: 18           	clc
  2359 09:E234: A9 xx xx     	lda	#<~~origin_tab
  2360 09:E237: 65 01        	adc	<R0
  2361 09:E239: 85 05        	sta	<R1
  2362 09:E23B: A0 02 00     	ldy	#$2
  2363 09:E23E: B1 05        	lda	(<R1),Y
  2364 09:E240: 48           	pha
  2365 09:E241: B2 05        	lda	(<R1)
  2366 09:E243: 48           	pha
  2367 09:E244: A0 00 00     	ldy	#$0
  2368 09:E247: A5 25        	lda	<L4+i_1
  2369 09:E249: 10 01        	bpl	L42
  2370 09:E24B: 88           	dey
  2371                        L42:
  2372 09:E24C: 85 05        	sta	<R1
  2373 09:E24E: 84 07        	sty	<R1+2
  2374 09:E250: D4 07        	pei	<R1+2
  2375 09:E252: D4 05        	pei	<R1
  2376 09:E254: A9 02 00     	lda	#$2
  2377                        	xref	~~~lasl
  2378 09:E257: 22 xx xx xx  	jsl	~~~lasl
  2379 09:E25B: 85 01        	sta	<R0
  2380 09:E25D: 86 03        	stx	<R0+2
  2381 09:E25F: 18           	clc
  2382 09:E260: A0 57 0A     	ldy	#$a57
  2383 09:E263: B7 2F        	lda	[<L4+current_segment_1],Y
  2384 09:E265: 65 01        	adc	<R0
  2385 09:E267: 85 0D        	sta	<R3
  2386 09:E269: A0 59 0A     	ldy	#$a59
  2387 09:E26C: B7 2F        	lda	[<L4+current_segment_1],Y
  2388 09:E26E: 65 03        	adc	<R0+2
  2389 09:E270: 85 0F        	sta	<R3+2
  2390 09:E272: A7 0D        	lda	[<R3]
  2391 09:E274: 85 01        	sta	<R0
  2392 09:E276: A0 02 00     	ldy	#$2
  2393 09:E279: B7 0D        	lda	[<R3],Y
  2394 09:E27B: 85 03        	sta	<R0+2
  2395 09:E27D: A0 08 00     	ldy	#$8
  Thu Dec  3 2020 22:25                                                Page 47


  2396 09:E280: B7 01        	lda	[<R0],Y
  2397 09:E282: 48           	pha
  2398 09:E283: A0 06 00     	ldy	#$6
  2399 09:E286: B7 01        	lda	[<R0],Y
  2400 09:E288: 48           	pha
  2401 09:E289: A0 00 00     	ldy	#$0
  2402 09:E28C: A5 25        	lda	<L4+i_1
  2403 09:E28E: 10 01        	bpl	L43
  2404 09:E290: 88           	dey
  2405                        L43:
  2406 09:E291: 85 0D        	sta	<R3
  2407 09:E293: 84 0F        	sty	<R3+2
  2408 09:E295: D4 0F        	pei	<R3+2
  2409 09:E297: D4 0D        	pei	<R3
  2410 09:E299: A9 02 00     	lda	#$2
  2411                        	xref	~~~lasl
  2412 09:E29C: 22 xx xx xx  	jsl	~~~lasl
  2413 09:E2A0: 85 01        	sta	<R0
  2414 09:E2A2: 86 03        	stx	<R0+2
  2415 09:E2A4: 18           	clc
  2416 09:E2A5: A0 57 0A     	ldy	#$a57
  2417 09:E2A8: B7 2F        	lda	[<L4+current_segment_1],Y
  2418 09:E2AA: 65 01        	adc	<R0
  2419 09:E2AC: 85 11        	sta	<17
  2420 09:E2AE: A0 59 0A     	ldy	#$a59
  2421 09:E2B1: B7 2F        	lda	[<L4+current_segment_1],Y
  2422 09:E2B3: 65 03        	adc	<R0+2
  2423 09:E2B5: 85 13        	sta	<17+2
  2424 09:E2B7: A7 11        	lda	[<17]
  2425 09:E2B9: 85 01        	sta	<R0
  2426 09:E2BB: A0 02 00     	ldy	#$2
  2427 09:E2BE: B7 11        	lda	[<17],Y
  2428 09:E2C0: 85 03        	sta	<R0+2
  2429 09:E2C2: A0 04 00     	ldy	#$4
  2430 09:E2C5: B7 01        	lda	[<R0],Y
  2431 09:E2C7: 48           	pha
  2432 09:E2C8: A0 02 00     	ldy	#$2
  2433 09:E2CB: B7 01        	lda	[<R0],Y
  2434 09:E2CD: 48           	pha
  2435 09:E2CE: A9 xx xx     	lda	#<~~bit_shift
  2436 09:E2D1: 85 01        	sta	<R0
  2437                        	xref	_BEG_DATA
  2438 09:E2D3: A9 xx xx     	lda	#_BEG_DATA>>16
  2439 09:E2D6: 85 03        	sta	<R0+2
  2440 09:E2D8: D4 03        	pei	<R0+2
  2441 09:E2DA: D4 01        	pei	<R0
  2442 09:E2DC: A0 00 00     	ldy	#$0
  2443 09:E2DF: A5 25        	lda	<L4+i_1
  2444 09:E2E1: 10 01        	bpl	L44
  2445 09:E2E3: 88           	dey
  2446                        L44:
  2447 09:E2E4: 85 15        	sta	<21
  2448 09:E2E6: 84 17        	sty	<21+2
  2449 09:E2E8: D4 17        	pei	<21+2
  2450 09:E2EA: D4 15        	pei	<21
  2451 09:E2EC: A9 02 00     	lda	#$2
  2452                        	xref	~~~lasl
  2453 09:E2EF: 22 xx xx xx  	jsl	~~~lasl
  Thu Dec  3 2020 22:25                                                Page 48


  2454 09:E2F3: 85 11        	sta	<17
  2455 09:E2F5: 86 13        	stx	<17+2
  2456 09:E2F7: 18           	clc
  2457 09:E2F8: A0 57 0A     	ldy	#$a57
  2458 09:E2FB: B7 2F        	lda	[<L4+current_segment_1],Y
  2459 09:E2FD: 65 11        	adc	<17
  2460 09:E2FF: 85 19        	sta	<25
  2461 09:E301: A0 59 0A     	ldy	#$a59
  2462 09:E304: B7 2F        	lda	[<L4+current_segment_1],Y
  2463 09:E306: 65 13        	adc	<17+2
  2464 09:E308: 85 1B        	sta	<25+2
  2465 09:E30A: A7 19        	lda	[<25]
  2466 09:E30C: 85 11        	sta	<17
  2467 09:E30E: A0 02 00     	ldy	#$2
  2468 09:E311: B7 19        	lda	[<25],Y
  2469 09:E313: 85 13        	sta	<17+2
  2470 09:E315: A7 11        	lda	[<17]
  2471 09:E317: 29 FF 00     	and	#$ff
  2472 09:E31A: 48           	pha
  2473 09:E31B: D4 25        	pei	<L4+i_1
  2474 09:E31D: F4 xx xx     	pea	#^L2+1780
  2475 09:E320: F4 xx xx     	pea	#<L2+1780
  2476 09:E323: D4 2D        	pei	<L4+fd_1+2
  2477 09:E325: D4 2B        	pei	<L4+fd_1
  2478 09:E327: F4 1E 00     	pea	#30
  2479 09:E32A: 22 xx xx xx  	jsl	~~f_printf
  2480                        L10035:
  2481                        ;            }
  2482                        	.line	189
  2483                        L10024:
  2484 09:E32E: E6 25        	inc	<L4+i_1
  2485                        L10027:
  2486 09:E330: 38           	sec
  2487 09:E331: A5 25        	lda	<L4+i_1
  2488 09:E333: A0 55 0A     	ldy	#$a55
  2489 09:E336: F7 2F        	sbc	[<L4+current_segment_1],Y
  2490 09:E338: 70 03        	bvs	L45
  2491 09:E33A: 49 00 80     	eor	#$8000
  2492                        L45:
  2493 09:E33D: 30 03        	bmi	L46
  2494 09:E33F: 82 00 FC     	brl	L10026
  2495                        L46:
  2496                        L10025:
  2497                        ;          f_printf(fd,"       +--------+---------
                    --+-------------+----------+-------------+\n\n");
  2498                        	.line	190
  2499 09:E342: F4 xx xx     	pea	#^L2+1847
  2500 09:E345: F4 xx xx     	pea	#<L2+1847
  2501 09:E348: D4 2D        	pei	<L4+fd_1+2
  2502 09:E34A: D4 2B        	pei	<L4+fd_1
  2503 09:E34C: F4 0A 00     	pea	#10
  2504 09:E34F: 22 xx xx xx  	jsl	~~f_printf
  2505                        ;        }
  2506                        	.line	191
  2507                        ;
  2508                        ;      /** INTERSEG **/
  2509                        ;      if(current_segment->nb_interseg > 0)
  2510                        L10023:
  Thu Dec  3 2020 22:25                                                Page 49


  2511                        	.line	194
  2512                        ;        {
  2513 09:E353: 38           	sec
  2514 09:E354: A9 00 00     	lda	#$0
  2515 09:E357: A0 5B 0A     	ldy	#$a5b
  2516 09:E35A: F7 2F        	sbc	[<L4+current_segment_1],Y
  2517 09:E35C: 70 03        	bvs	L47
  2518 09:E35E: 49 00 80     	eor	#$8000
  2519                        L47:
  2520 09:E361: 10 03        	bpl	L48
  2521 09:E363: 82 5E 03     	brl	L10036
  2522                        L48:
  2523                        	.line	195
  2524                        ;          f_printf(fd,"     - # Address to be pat
                    ched  :  %04X (%d)\n\n",current_segment->nb_interseg,current
                    _segment->nb_interseg);
  2525                        	.line	196
  2526 09:E366: A0 5B 0A     	ldy	#$a5b
  2527 09:E369: B7 2F        	lda	[<L4+current_segment_1],Y
  2528 09:E36B: 48           	pha
  2529 09:E36C: A0 5B 0A     	ldy	#$a5b
  2530 09:E36F: B7 2F        	lda	[<L4+current_segment_1],Y
  2531 09:E371: 48           	pha
  2532 09:E372: F4 xx xx     	pea	#^L2+1918
  2533 09:E375: F4 xx xx     	pea	#<L2+1918
  2534 09:E378: D4 2D        	pei	<L4+fd_1+2
  2535 09:E37A: D4 2B        	pei	<L4+fd_1
  2536 09:E37C: F4 0E 00     	pea	#14
  2537 09:E37F: 22 xx xx xx  	jsl	~~f_printf
  2538                        ;          f_printf(fd,"       +--------+---------
                    --+-------------+----------+-------------+------------+-----
                    ------+\n");
  2539                        	.line	197
  2540 09:E383: F4 xx xx     	pea	#^L2+1965
  2541 09:E386: F4 xx xx     	pea	#<L2+1965
  2542 09:E389: D4 2D        	pei	<L4+fd_1+2
  2543 09:E38B: D4 2B        	pei	<L4+fd_1
  2544 09:E38D: F4 0A 00     	pea	#10
  2545 09:E390: 22 xx xx xx  	jsl	~~f_printf
  2546                        ;          f_printf(fd,"       |    #   |  # Bytes
                      |  Bit Shift  |  Offset  |  Reference  |  File Num  |  Seg
                     Num  |\n");
  2547                        	.line	198
  2548 09:E394: F4 xx xx     	pea	#^L2+2060
  2549 09:E397: F4 xx xx     	pea	#<L2+2060
  2550 09:E39A: D4 2D        	pei	<L4+fd_1+2
  2551 09:E39C: D4 2B        	pei	<L4+fd_1
  2552 09:E39E: F4 0A 00     	pea	#10
  2553 09:E3A1: 22 xx xx xx  	jsl	~~f_printf
  2554                        ;          f_printf(fd,"       +--------+---------
                    --+-------------+----------+-------------+------------+-----
                    ------+\n");
  2555                        	.line	199
  2556 09:E3A5: F4 xx xx     	pea	#^L2+2155
  2557 09:E3A8: F4 xx xx     	pea	#<L2+2155
  2558 09:E3AB: D4 2D        	pei	<L4+fd_1+2
  2559 09:E3AD: D4 2B        	pei	<L4+fd_1
  2560 09:E3AF: F4 0A 00     	pea	#10
  Thu Dec  3 2020 22:25                                                Page 50


  2561 09:E3B2: 22 xx xx xx  	jsl	~~f_printf
  2562                        ;          for(i=0; i<current_segment->nb_interseg
                    ; i++)
  2563                        	.line	200
  2564 09:E3B6: 64 25        	stz	<L4+i_1
  2565 09:E3B8: 82 E6 02     	brl	L10040
  2566                        L10039:
  2567                        ;            {
  2568                        	.line	201
  2569                        ;              /* Bit Shift en version Ascii */
  2570                        ;              if(current_segment->tab_interseg[i]
                    ->BitShiftCnt == 0x00)
  2571                        	.line	203
  2572                        ;                k_strcpy(bit_shift,"     ");
  2573 09:E3BB: A0 00 00     	ldy	#$0
  2574 09:E3BE: A5 25        	lda	<L4+i_1
  2575 09:E3C0: 10 01        	bpl	L49
  2576 09:E3C2: 88           	dey
  2577                        L49:
  2578 09:E3C3: 85 05        	sta	<R1
  2579 09:E3C5: 84 07        	sty	<R1+2
  2580 09:E3C7: D4 07        	pei	<R1+2
  2581 09:E3C9: D4 05        	pei	<R1
  2582 09:E3CB: A9 02 00     	lda	#$2
  2583                        	xref	~~~lasl
  2584 09:E3CE: 22 xx xx xx  	jsl	~~~lasl
  2585 09:E3D2: 85 01        	sta	<R0
  2586 09:E3D4: 86 03        	stx	<R0+2
  2587 09:E3D6: 18           	clc
  2588 09:E3D7: A0 5D 0A     	ldy	#$a5d
  2589 09:E3DA: B7 2F        	lda	[<L4+current_segment_1],Y
  2590 09:E3DC: 65 01        	adc	<R0
  2591 09:E3DE: 85 09        	sta	<R2
  2592 09:E3E0: A0 5F 0A     	ldy	#$a5f
  2593 09:E3E3: B7 2F        	lda	[<L4+current_segment_1],Y
  2594 09:E3E5: 65 03        	adc	<R0+2
  2595 09:E3E7: 85 0B        	sta	<R2+2
  2596 09:E3E9: A7 09        	lda	[<R2]
  2597 09:E3EB: 85 01        	sta	<R0
  2598 09:E3ED: A0 02 00     	ldy	#$2
  2599 09:E3F0: B7 09        	lda	[<R2],Y
  2600 09:E3F2: 85 03        	sta	<R0+2
  2601 09:E3F4: A0 01 00     	ldy	#$1
  2602 09:E3F7: B7 01        	lda	[<R0],Y
  2603 09:E3F9: 29 FF 00     	and	#$ff
  2604 09:E3FC: F0 03        	beq	L50
  2605 09:E3FE: 82 1B 00     	brl	L10041
  2606                        L50:
  2607                        	.line	204
  2608 09:E401: F4 xx xx     	pea	#^L2+2250
  2609 09:E404: F4 xx xx     	pea	#<L2+2250
  2610 09:E407: A9 xx xx     	lda	#<~~bit_shift
  2611 09:E40A: 85 01        	sta	<R0
  2612                        	xref	_BEG_DATA
  2613 09:E40C: A9 xx xx     	lda	#_BEG_DATA>>16
  2614 09:E40F: 85 03        	sta	<R0+2
  2615 09:E411: D4 03        	pei	<R0+2
  2616 09:E413: D4 01        	pei	<R0
  Thu Dec  3 2020 22:25                                                Page 51


  2617 09:E415: 22 xx xx xx  	jsl	~~k_strcpy
  2618                        ;              else if(current_segment->tab_inters
                    eg[i]->BitShiftCnt == 0xF8)   /* -8 */
  2619 09:E419: 82 C8 00     	brl	L10042
  2620                        L10041:
  2621                        	.line	205
  2622                        ;                k_strcpy(bit_shift,">> 8 ");
  2623 09:E41C: A0 00 00     	ldy	#$0
  2624 09:E41F: A5 25        	lda	<L4+i_1
  2625 09:E421: 10 01        	bpl	L51
  2626 09:E423: 88           	dey
  2627                        L51:
  2628 09:E424: 85 05        	sta	<R1
  2629 09:E426: 84 07        	sty	<R1+2
  2630 09:E428: D4 07        	pei	<R1+2
  2631 09:E42A: D4 05        	pei	<R1
  2632 09:E42C: A9 02 00     	lda	#$2
  2633                        	xref	~~~lasl
  2634 09:E42F: 22 xx xx xx  	jsl	~~~lasl
  2635 09:E433: 85 01        	sta	<R0
  2636 09:E435: 86 03        	stx	<R0+2
  2637 09:E437: 18           	clc
  2638 09:E438: A0 5D 0A     	ldy	#$a5d
  2639 09:E43B: B7 2F        	lda	[<L4+current_segment_1],Y
  2640 09:E43D: 65 01        	adc	<R0
  2641 09:E43F: 85 09        	sta	<R2
  2642 09:E441: A0 5F 0A     	ldy	#$a5f
  2643 09:E444: B7 2F        	lda	[<L4+current_segment_1],Y
  2644 09:E446: 65 03        	adc	<R0+2
  2645 09:E448: 85 0B        	sta	<R2+2
  2646 09:E44A: A7 09        	lda	[<R2]
  2647 09:E44C: 85 01        	sta	<R0
  2648 09:E44E: A0 02 00     	ldy	#$2
  2649 09:E451: B7 09        	lda	[<R2],Y
  2650 09:E453: 85 03        	sta	<R0+2
  2651 09:E455: E2 20        	sep	#$20
  2652                        	longa	off
  2653 09:E457: A0 01 00     	ldy	#$1
  2654 09:E45A: B7 01        	lda	[<R0],Y
  2655 09:E45C: C9 F8        	cmp	#<$f8
  2656 09:E45E: C2 20        	rep	#$20
  2657                        	longa	on
  2658 09:E460: F0 03        	beq	L52
  2659 09:E462: 82 1B 00     	brl	L10043
  2660                        L52:
  2661                        	.line	206
  2662 09:E465: F4 xx xx     	pea	#^L2+2256
  2663 09:E468: F4 xx xx     	pea	#<L2+2256
  2664 09:E46B: A9 xx xx     	lda	#<~~bit_shift
  2665 09:E46E: 85 01        	sta	<R0
  2666                        	xref	_BEG_DATA
  2667 09:E470: A9 xx xx     	lda	#_BEG_DATA>>16
  2668 09:E473: 85 03        	sta	<R0+2
  2669 09:E475: D4 03        	pei	<R0+2
  2670 09:E477: D4 01        	pei	<R0
  2671 09:E479: 22 xx xx xx  	jsl	~~k_strcpy
  2672                        ;              else if(current_segment->tab_inters
                    eg[i]->BitShiftCnt == 0xF0)   /* -16 */
  Thu Dec  3 2020 22:25                                                Page 52


  2673 09:E47D: 82 64 00     	brl	L10044
  2674                        L10043:
  2675                        	.line	207
  2676                        ;                k_strcpy(bit_shift,">> 16");
  2677 09:E480: A0 00 00     	ldy	#$0
  2678 09:E483: A5 25        	lda	<L4+i_1
  2679 09:E485: 10 01        	bpl	L53
  2680 09:E487: 88           	dey
  2681                        L53:
  2682 09:E488: 85 05        	sta	<R1
  2683 09:E48A: 84 07        	sty	<R1+2
  2684 09:E48C: D4 07        	pei	<R1+2
  2685 09:E48E: D4 05        	pei	<R1
  2686 09:E490: A9 02 00     	lda	#$2
  2687                        	xref	~~~lasl
  2688 09:E493: 22 xx xx xx  	jsl	~~~lasl
  2689 09:E497: 85 01        	sta	<R0
  2690 09:E499: 86 03        	stx	<R0+2
  2691 09:E49B: 18           	clc
  2692 09:E49C: A0 5D 0A     	ldy	#$a5d
  2693 09:E49F: B7 2F        	lda	[<L4+current_segment_1],Y
  2694 09:E4A1: 65 01        	adc	<R0
  2695 09:E4A3: 85 09        	sta	<R2
  2696 09:E4A5: A0 5F 0A     	ldy	#$a5f
  2697 09:E4A8: B7 2F        	lda	[<L4+current_segment_1],Y
  2698 09:E4AA: 65 03        	adc	<R0+2
  2699 09:E4AC: 85 0B        	sta	<R2+2
  2700 09:E4AE: A7 09        	lda	[<R2]
  2701 09:E4B0: 85 01        	sta	<R0
  2702 09:E4B2: A0 02 00     	ldy	#$2
  2703 09:E4B5: B7 09        	lda	[<R2],Y
  2704 09:E4B7: 85 03        	sta	<R0+2
  2705 09:E4B9: E2 20        	sep	#$20
  2706                        	longa	off
  2707 09:E4BB: A0 01 00     	ldy	#$1
  2708 09:E4BE: B7 01        	lda	[<R0],Y
  2709 09:E4C0: C9 F0        	cmp	#<$f0
  2710 09:E4C2: C2 20        	rep	#$20
  2711                        	longa	on
  2712 09:E4C4: F0 03        	beq	L54
  2713 09:E4C6: 82 1B 00     	brl	L10045
  2714                        L54:
  2715                        	.line	208
  2716 09:E4C9: F4 xx xx     	pea	#^L2+2262
  2717 09:E4CC: F4 xx xx     	pea	#<L2+2262
  2718 09:E4CF: A9 xx xx     	lda	#<~~bit_shift
  2719 09:E4D2: 85 01        	sta	<R0
  2720                        	xref	_BEG_DATA
  2721 09:E4D4: A9 xx xx     	lda	#_BEG_DATA>>16
  2722 09:E4D7: 85 03        	sta	<R0+2
  2723 09:E4D9: D4 03        	pei	<R0+2
  2724 09:E4DB: D4 01        	pei	<R0
  2725 09:E4DD: 22 xx xx xx  	jsl	~~k_strcpy
  2726                        ;              else
  2727 09:E4E1: 82 00 00     	brl	L10046
  2728                        L10045:
  2729                        ;              {
  2730                        	.line	210
  Thu Dec  3 2020 22:25                                                Page 53


  2731                        ;                ////sprintf(bit_shift," %02X  ",c
                    urrent_segment->tab_interseg[i]->BitShiftCnt);
  2732                        ;              }
  2733                        	.line	212
  2734                        L10046:
  2735                        L10044:
  2736                        L10042:
  2737                        ;              /* Ligne de Patch d'une adresse ext
                    erne au segment */
  2738                        ;              f_printf(fd,"       |  %04X  |    %
                    02X     |    %s    |  %06X  |   %06X    |    %04X    |    %0
                    4X   |  %s\n",
  2739                        	.line	214
  2740                        ;                         i,
  2741                        ;                         current_segment->tab_int
                    erseg[i]->ByteCnt,
  2742                        ;                         bit_shift,
  2743                        ;                         current_segment->tab_int
                    erseg[i]->OffsetPatch,
  2744                        ;                         current_segment->tab_int
                    erseg[i]->OffsetReference,
  2745                        ;                         current_segment->tab_int
                    erseg[i]->FileNum,
  2746                        ;                         current_segment->tab_int
                    erseg[i]->SegNum,
  2747                        ;                         origin_tab[current_segme
                    nt->tab_interseg[i]->origin]);
  2748 09:E4E4: A0 00 00     	ldy	#$0
  2749 09:E4E7: A5 25        	lda	<L4+i_1
  2750 09:E4E9: 10 01        	bpl	L55
  2751 09:E4EB: 88           	dey
  2752                        L55:
  2753 09:E4EC: 85 09        	sta	<R2
  2754 09:E4EE: 84 0B        	sty	<R2+2
  2755 09:E4F0: D4 0B        	pei	<R2+2
  2756 09:E4F2: D4 09        	pei	<R2
  2757 09:E4F4: A9 02 00     	lda	#$2
  2758                        	xref	~~~lasl
  2759 09:E4F7: 22 xx xx xx  	jsl	~~~lasl
  2760 09:E4FB: 85 05        	sta	<R1
  2761 09:E4FD: 86 07        	stx	<R1+2
  2762 09:E4FF: 18           	clc
  2763 09:E500: A0 5D 0A     	ldy	#$a5d
  2764 09:E503: B7 2F        	lda	[<L4+current_segment_1],Y
  2765 09:E505: 65 05        	adc	<R1
  2766 09:E507: 85 0D        	sta	<R3
  2767 09:E509: A0 5F 0A     	ldy	#$a5f
  2768 09:E50C: B7 2F        	lda	[<L4+current_segment_1],Y
  2769 09:E50E: 65 07        	adc	<R1+2
  2770 09:E510: 85 0F        	sta	<R3+2
  2771 09:E512: A7 0D        	lda	[<R3]
  2772 09:E514: 85 05        	sta	<R1
  2773 09:E516: A0 02 00     	ldy	#$2
  2774 09:E519: B7 0D        	lda	[<R3],Y
  2775 09:E51B: 85 07        	sta	<R1+2
  2776 09:E51D: A0 0E 00     	ldy	#$e
  2777 09:E520: B7 05        	lda	[<R1],Y
  2778 09:E522: 0A           	asl	A
  Thu Dec  3 2020 22:25                                                Page 54


  2779 09:E523: 0A           	asl	A
  2780 09:E524: 85 01        	sta	<R0
  2781 09:E526: 18           	clc
  2782 09:E527: A9 xx xx     	lda	#<~~origin_tab
  2783 09:E52A: 65 01        	adc	<R0
  2784 09:E52C: 85 05        	sta	<R1
  2785 09:E52E: A0 02 00     	ldy	#$2
  2786 09:E531: B1 05        	lda	(<R1),Y
  2787 09:E533: 48           	pha
  2788 09:E534: B2 05        	lda	(<R1)
  2789 09:E536: 48           	pha
  2790 09:E537: A0 00 00     	ldy	#$0
  2791 09:E53A: A5 25        	lda	<L4+i_1
  2792 09:E53C: 10 01        	bpl	L56
  2793 09:E53E: 88           	dey
  2794                        L56:
  2795 09:E53F: 85 05        	sta	<R1
  2796 09:E541: 84 07        	sty	<R1+2
  2797 09:E543: D4 07        	pei	<R1+2
  2798 09:E545: D4 05        	pei	<R1
  2799 09:E547: A9 02 00     	lda	#$2
  2800                        	xref	~~~lasl
  2801 09:E54A: 22 xx xx xx  	jsl	~~~lasl
  2802 09:E54E: 85 01        	sta	<R0
  2803 09:E550: 86 03        	stx	<R0+2
  2804 09:E552: 18           	clc
  2805 09:E553: A0 5D 0A     	ldy	#$a5d
  2806 09:E556: B7 2F        	lda	[<L4+current_segment_1],Y
  2807 09:E558: 65 01        	adc	<R0
  2808 09:E55A: 85 0D        	sta	<R3
  2809 09:E55C: A0 5F 0A     	ldy	#$a5f
  2810 09:E55F: B7 2F        	lda	[<L4+current_segment_1],Y
  2811 09:E561: 65 03        	adc	<R0+2
  2812 09:E563: 85 0F        	sta	<R3+2
  2813 09:E565: A7 0D        	lda	[<R3]
  2814 09:E567: 85 01        	sta	<R0
  2815 09:E569: A0 02 00     	ldy	#$2
  2816 09:E56C: B7 0D        	lda	[<R3],Y
  2817 09:E56E: 85 03        	sta	<R0+2
  2818 09:E570: A0 0C 00     	ldy	#$c
  2819 09:E573: B7 01        	lda	[<R0],Y
  2820 09:E575: 48           	pha
  2821 09:E576: A0 00 00     	ldy	#$0
  2822 09:E579: A5 25        	lda	<L4+i_1
  2823 09:E57B: 10 01        	bpl	L57
  2824 09:E57D: 88           	dey
  2825                        L57:
  2826 09:E57E: 85 0D        	sta	<R3
  2827 09:E580: 84 0F        	sty	<R3+2
  2828 09:E582: D4 0F        	pei	<R3+2
  2829 09:E584: D4 0D        	pei	<R3
  2830 09:E586: A9 02 00     	lda	#$2
  2831                        	xref	~~~lasl
  2832 09:E589: 22 xx xx xx  	jsl	~~~lasl
  2833 09:E58D: 85 01        	sta	<R0
  2834 09:E58F: 86 03        	stx	<R0+2
  2835 09:E591: 18           	clc
  2836 09:E592: A0 5D 0A     	ldy	#$a5d
  Thu Dec  3 2020 22:25                                                Page 55


  2837 09:E595: B7 2F        	lda	[<L4+current_segment_1],Y
  2838 09:E597: 65 01        	adc	<R0
  2839 09:E599: 85 11        	sta	<17
  2840 09:E59B: A0 5F 0A     	ldy	#$a5f
  2841 09:E59E: B7 2F        	lda	[<L4+current_segment_1],Y
  2842 09:E5A0: 65 03        	adc	<R0+2
  2843 09:E5A2: 85 13        	sta	<17+2
  2844 09:E5A4: A7 11        	lda	[<17]
  2845 09:E5A6: 85 01        	sta	<R0
  2846 09:E5A8: A0 02 00     	ldy	#$2
  2847 09:E5AB: B7 11        	lda	[<17],Y
  2848 09:E5AD: 85 03        	sta	<R0+2
  2849 09:E5AF: A0 0A 00     	ldy	#$a
  2850 09:E5B2: B7 01        	lda	[<R0],Y
  2851 09:E5B4: 48           	pha
  2852 09:E5B5: A0 00 00     	ldy	#$0
  2853 09:E5B8: A5 25        	lda	<L4+i_1
  2854 09:E5BA: 10 01        	bpl	L58
  2855 09:E5BC: 88           	dey
  2856                        L58:
  2857 09:E5BD: 85 11        	sta	<17
  2858 09:E5BF: 84 13        	sty	<17+2
  2859 09:E5C1: D4 13        	pei	<17+2
  2860 09:E5C3: D4 11        	pei	<17
  2861 09:E5C5: A9 02 00     	lda	#$2
  2862                        	xref	~~~lasl
  2863 09:E5C8: 22 xx xx xx  	jsl	~~~lasl
  2864 09:E5CC: 85 01        	sta	<R0
  2865 09:E5CE: 86 03        	stx	<R0+2
  2866 09:E5D0: 18           	clc
  2867 09:E5D1: A0 5D 0A     	ldy	#$a5d
  2868 09:E5D4: B7 2F        	lda	[<L4+current_segment_1],Y
  2869 09:E5D6: 65 01        	adc	<R0
  2870 09:E5D8: 85 15        	sta	<21
  2871 09:E5DA: A0 5F 0A     	ldy	#$a5f
  2872 09:E5DD: B7 2F        	lda	[<L4+current_segment_1],Y
  2873 09:E5DF: 65 03        	adc	<R0+2
  2874 09:E5E1: 85 17        	sta	<21+2
  2875 09:E5E3: A7 15        	lda	[<21]
  2876 09:E5E5: 85 01        	sta	<R0
  2877 09:E5E7: A0 02 00     	ldy	#$2
  2878 09:E5EA: B7 15        	lda	[<21],Y
  2879 09:E5EC: 85 03        	sta	<R0+2
  2880 09:E5EE: A0 08 00     	ldy	#$8
  2881 09:E5F1: B7 01        	lda	[<R0],Y
  2882 09:E5F3: 48           	pha
  2883 09:E5F4: A0 06 00     	ldy	#$6
  2884 09:E5F7: B7 01        	lda	[<R0],Y
  2885 09:E5F9: 48           	pha
  2886 09:E5FA: A0 00 00     	ldy	#$0
  2887 09:E5FD: A5 25        	lda	<L4+i_1
  2888 09:E5FF: 10 01        	bpl	L59
  2889 09:E601: 88           	dey
  2890                        L59:
  2891 09:E602: 85 15        	sta	<21
  2892 09:E604: 84 17        	sty	<21+2
  2893 09:E606: D4 17        	pei	<21+2
  2894 09:E608: D4 15        	pei	<21
  Thu Dec  3 2020 22:25                                                Page 56


  2895 09:E60A: A9 02 00     	lda	#$2
  2896                        	xref	~~~lasl
  2897 09:E60D: 22 xx xx xx  	jsl	~~~lasl
  2898 09:E611: 85 01        	sta	<R0
  2899 09:E613: 86 03        	stx	<R0+2
  2900 09:E615: 18           	clc
  2901 09:E616: A0 5D 0A     	ldy	#$a5d
  2902 09:E619: B7 2F        	lda	[<L4+current_segment_1],Y
  2903 09:E61B: 65 01        	adc	<R0
  2904 09:E61D: 85 19        	sta	<25
  2905 09:E61F: A0 5F 0A     	ldy	#$a5f
  2906 09:E622: B7 2F        	lda	[<L4+current_segment_1],Y
  2907 09:E624: 65 03        	adc	<R0+2
  2908 09:E626: 85 1B        	sta	<25+2
  2909 09:E628: A7 19        	lda	[<25]
  2910 09:E62A: 85 01        	sta	<R0
  2911 09:E62C: A0 02 00     	ldy	#$2
  2912 09:E62F: B7 19        	lda	[<25],Y
  2913 09:E631: 85 03        	sta	<R0+2
  2914 09:E633: A0 04 00     	ldy	#$4
  2915 09:E636: B7 01        	lda	[<R0],Y
  2916 09:E638: 48           	pha
  2917 09:E639: A0 02 00     	ldy	#$2
  2918 09:E63C: B7 01        	lda	[<R0],Y
  2919 09:E63E: 48           	pha
  2920 09:E63F: A9 xx xx     	lda	#<~~bit_shift
  2921 09:E642: 85 01        	sta	<R0
  2922                        	xref	_BEG_DATA
  2923 09:E644: A9 xx xx     	lda	#_BEG_DATA>>16
  2924 09:E647: 85 03        	sta	<R0+2
  2925 09:E649: D4 03        	pei	<R0+2
  2926 09:E64B: D4 01        	pei	<R0
  2927 09:E64D: A0 00 00     	ldy	#$0
  2928 09:E650: A5 25        	lda	<L4+i_1
  2929 09:E652: 10 01        	bpl	L60
  2930 09:E654: 88           	dey
  2931                        L60:
  2932 09:E655: 85 1D        	sta	<29
  2933 09:E657: 84 1F        	sty	<29+2
  2934 09:E659: D4 1F        	pei	<29+2
  2935 09:E65B: D4 1D        	pei	<29
  2936 09:E65D: A9 02 00     	lda	#$2
  2937                        	xref	~~~lasl
  2938 09:E660: 22 xx xx xx  	jsl	~~~lasl
  2939 09:E664: 85 19        	sta	<25
  2940 09:E666: 86 1B        	stx	<25+2
  2941 09:E668: 18           	clc
  2942 09:E669: A0 5D 0A     	ldy	#$a5d
  2943 09:E66C: B7 2F        	lda	[<L4+current_segment_1],Y
  2944 09:E66E: 65 19        	adc	<25
  2945 09:E670: 85 21        	sta	<33
  2946 09:E672: A0 5F 0A     	ldy	#$a5f
  2947 09:E675: B7 2F        	lda	[<L4+current_segment_1],Y
  2948 09:E677: 65 1B        	adc	<25+2
  2949 09:E679: 85 23        	sta	<33+2
  2950 09:E67B: A7 21        	lda	[<33]
  2951 09:E67D: 85 19        	sta	<25
  2952 09:E67F: A0 02 00     	ldy	#$2
  Thu Dec  3 2020 22:25                                                Page 57


  2953 09:E682: B7 21        	lda	[<33],Y
  2954 09:E684: 85 1B        	sta	<25+2
  2955 09:E686: A7 19        	lda	[<25]
  2956 09:E688: 29 FF 00     	and	#$ff
  2957 09:E68B: 48           	pha
  2958 09:E68C: D4 25        	pei	<L4+i_1
  2959 09:E68E: F4 xx xx     	pea	#^L2+2268
  2960 09:E691: F4 xx xx     	pea	#<L2+2268
  2961 09:E694: D4 2D        	pei	<L4+fd_1+2
  2962 09:E696: D4 2B        	pei	<L4+fd_1
  2963 09:E698: F4 22 00     	pea	#34
  2964 09:E69B: 22 xx xx xx  	jsl	~~f_printf
  2965                        ;            }
  2966                        	.line	223
  2967                        L10037:
  2968 09:E69F: E6 25        	inc	<L4+i_1
  2969                        L10040:
  2970 09:E6A1: 38           	sec
  2971 09:E6A2: A5 25        	lda	<L4+i_1
  2972 09:E6A4: A0 5B 0A     	ldy	#$a5b
  2973 09:E6A7: F7 2F        	sbc	[<L4+current_segment_1],Y
  2974 09:E6A9: 70 03        	bvs	L61
  2975 09:E6AB: 49 00 80     	eor	#$8000
  2976                        L61:
  2977 09:E6AE: 30 03        	bmi	L62
  2978 09:E6B0: 82 08 FD     	brl	L10039
  2979                        L62:
  2980                        L10038:
  2981                        ;          f_printf(fd,"       +--------+---------
                    --+-------------+----------+-------------+------------+-----
                    ------+\n\n");
  2982                        	.line	224
  2983 09:E6B3: F4 xx xx     	pea	#^L2+2362
  2984 09:E6B6: F4 xx xx     	pea	#<L2+2362
  2985 09:E6B9: D4 2D        	pei	<L4+fd_1+2
  2986 09:E6BB: D4 2B        	pei	<L4+fd_1
  2987 09:E6BD: F4 0A 00     	pea	#10
  2988 09:E6C0: 22 xx xx xx  	jsl	~~f_printf
  2989                        ;        }
  2990                        	.line	225
  2991                        ;    }
  2992                        L10036:
  2993                        	.line	226
  2994                        L10006:
  2995 09:E6C4: A0 61 0A     	ldy	#$a61
  2996 09:E6C7: B7 2F        	lda	[<L4+current_segment_1],Y
  2997 09:E6C9: 85 01        	sta	<R0
  2998 09:E6CB: A0 63 0A     	ldy	#$a63
  2999 09:E6CE: B7 2F        	lda	[<L4+current_segment_1],Y
  3000 09:E6D0: 85 03        	sta	<R0+2
  3001 09:E6D2: A5 01        	lda	<R0
  3002 09:E6D4: 85 2F        	sta	<L4+current_segment_1
  3003 09:E6D6: A5 03        	lda	<R0+2
  3004 09:E6D8: 85 31        	sta	<L4+current_segment_1+2
  3005                        L10009:
  3006 09:E6DA: A5 2F        	lda	<L4+current_segment_1
  3007 09:E6DC: 05 31        	ora	<L4+current_segment_1+2
  3008 09:E6DE: F0 03        	beq	L63
  Thu Dec  3 2020 22:25                                                Page 58


  3009 09:E6E0: 82 F3 F5     	brl	L10008
  3010                        L63:
  3011                        L10007:
  3012                        ;
  3013                        ;  /* Fermeture du fichier */
  3014                        ;  f_printf(fd,"\n********************************
                    ************************************************************
                    ****************\n");
  3015                        	.line	229
  3016 09:E6E3: F4 xx xx     	pea	#^L2+2458
  3017 09:E6E6: F4 xx xx     	pea	#<L2+2458
  3018 09:E6E9: D4 2D        	pei	<L4+fd_1+2
  3019 09:E6EB: D4 2B        	pei	<L4+fd_1
  3020 09:E6ED: F4 0A 00     	pea	#10
  3021 09:E6F0: 22 xx xx xx  	jsl	~~f_printf
  3022                        ;  f_close(fd);
  3023                        	.line	230
  3024 09:E6F4: D4 2D        	pei	<L4+fd_1+2
  3025 09:E6F6: D4 2B        	pei	<L4+fd_1
  3026 09:E6F8: 22 xx xx xx  	jsl	~~f_close
  3027                        ;  k_free(fd);
  3028                        	.line	231
  3029 09:E6FC: D4 2D        	pei	<L4+fd_1+2
  3030 09:E6FE: D4 2B        	pei	<L4+fd_1
  3031 09:E700: 22 xx xx xx  	jsl	~~k_free
  3032                        ;
  3033                        ;  k_mem_deallocate_heap(buffer);
  3034                        	.line	233
  3035 09:E704: D4 39        	pei	<L4+buffer_1+2
  3036 09:E706: D4 37        	pei	<L4+buffer_1
  3037 09:E708: 22 xx xx xx  	jsl	~~k_mem_deallocate_heap
  3038                        ;
  3039                        ;  /* OK */
  3040                        ;  return(0);
  3041                        	.line	236
  3042 09:E70C: A9 00 00     	lda	#$0
  3043 09:E70F: 82 AE F3     	brl	L7
  3044                        ;}
  3045                        	.line	237
  3046                        	.endblock	237
  3047             0000003A   L3	equ	58
  3048             00000025   L4	equ	37
  3049 09:E712:              	ends
  3050                        	efunc
  3051                        	.endfunc	237,37,58
  3052                        	.line	237
  3053                        	data
  3054                        L2:
  3055 00:0112: 2A 2A 2A 2A  	db	$2A,$2A,$2A,$2A,$2A,$2A,$2A,$2A,$2A,$2A,
                    $2A,$2A,$2A,$2A,$2A
       00:0116: 2A 2A 2A 2A 
       00:011A: 2A 2A 2A 2A 
       00:011E: 2A 2A 2A 
  3056 00:0121: 2A 2A 2A 2A  	db	$2A,$2A,$2A,$2A,$2A,$2A,$2A,$2A,$2A,$2A,
                    $2A,$2A,$0A,$00,$2A
       00:0125: 2A 2A 2A 2A 
       00:0129: 2A 2A 2A 2A 
       00:012D: 0A 00 2A 
  Thu Dec  3 2020 22:25                                                Page 59


  3057 00:0130: 2A 20 20 20  	db	$2A,$20,$20,$20,$46,$69,$6C,$65,$20,$49,
                    $6E,$66,$6F,$72,$6D
       00:0134: 46 69 6C 65 
       00:0138: 20 49 6E 66 
       00:013C: 6F 72 6D 
  3058 00:013F: 61 74 69 6F  	db	$61,$74,$69,$6F,$6E,$20,$20,$20,$20,$2A,
                    $2A,$0A,$00,$2A,$2A
       00:0143: 6E 20 20 20 
       00:0147: 20 2A 2A 0A 
       00:014B: 00 2A 2A 
  3059 00:014E: 2A 2A 2A 2A  	db	$2A,$2A,$2A,$2A,$2A,$2A,$2A,$2A,$2A,$2A,
                    $2A,$2A,$2A,$2A,$2A
       00:0152: 2A 2A 2A 2A 
       00:0156: 2A 2A 2A 2A 
       00:015A: 2A 2A 2A 
  3060 00:015D: 2A 2A 2A 2A  	db	$2A,$2A,$2A,$2A,$2A,$2A,$2A,$2A,$2A,$2A,
                    $0A,$0A,$00,$20,$20
       00:0161: 2A 2A 2A 2A 
       00:0165: 2A 2A 0A 0A 
       00:0169: 00 20 20 
  3061 00:016C: 20 20 20 2D  	db	$20,$20,$20,$2D,$20,$46,$69,$6C,$65,$20,
                    $4E,$61,$6D,$65,$20
       00:0170: 20 46 69 6C 
       00:0174: 65 20 4E 61 
       00:0178: 6D 65 20 
  3062 00:017B: 20 20 20 20  	db	$20,$20,$20,$20,$20,$3A,$20,$20,$27,$25,
                    $73,$27,$0A,$00,$20
       00:017F: 20 3A 20 20 
       00:0183: 27 25 73 27 
       00:0187: 0A 00 20 
  3063 00:018A: 20 20 20 20  	db	$20,$20,$20,$20,$2D,$20,$4C,$65,$6E,$67,
                    $74,$68,$20,$20,$20
       00:018E: 2D 20 4C 65 
       00:0192: 6E 67 74 68 
       00:0196: 20 20 20 
  3064 00:0199: 20 20 20 20  	db	$20,$20,$20,$20,$20,$20,$3A,$20,$20,$25,
                    $30,$36,$58,$20,$28
       00:019D: 20 20 3A 20 
       00:01A1: 20 25 30 36 
       00:01A5: 58 20 28 
  3065 00:01A8: 25 64 29 0A  	db	$25,$64,$29,$0A,$00,$20,$20,$20,$20,$20,
                    $2D,$20,$53,$65,$67
       00:01AC: 00 20 20 20 
       00:01B0: 20 20 2D 20 
       00:01B4: 53 65 67 
  3066 00:01B7: 6D 65 6E 74  	db	$6D,$65,$6E,$74,$20,$43,$6F,$75,$6E,$74,
                    $20,$20,$3A,$20,$20
       00:01BB: 20 43 6F 75 
       00:01BF: 6E 74 20 20 
       00:01C3: 3A 20 20 
  3067 00:01C6: 25 30 32 58  	db	$25,$30,$32,$58,$20,$28,$25,$64,$29,$0A,
                    $0A,$00,$2A,$2A,$2A
       00:01CA: 20 28 25 64 
       00:01CE: 29 0A 0A 00 
       00:01D2: 2A 2A 2A 
  3068 00:01D5: 2A 2A 2A 2A  	db	$2A,$2A,$2A,$2A,$2A,$2A,$2A,$2A,$2A,$2A,
                    $2A,$2A,$2A,$2A,$2A
       00:01D9: 2A 2A 2A 2A 
  Thu Dec  3 2020 22:25                                                Page 60


       00:01DD: 2A 2A 2A 2A 
       00:01E1: 2A 2A 2A 
  3069 00:01E4: 2A 2A 2A 2A  	db	$2A,$2A,$2A,$2A,$2A,$2A,$2A,$2A,$2A,$0A,
                    $00,$2A,$2A,$20,$20
       00:01E8: 2A 2A 2A 2A 
       00:01EC: 2A 0A 00 2A 
       00:01F0: 2A 20 20 
  3070 00:01F3: 20 20 53 65  	db	$20,$20,$53,$65,$67,$6D,$65,$6E,$74,$73,
                    $20,$53,$75,$6D,$6D
       00:01F7: 67 6D 65 6E 
       00:01FB: 74 73 20 53 
       00:01FF: 75 6D 6D 
  3071 00:0202: 61 72 79 20  	db	$61,$72,$79,$20,$20,$20,$2A,$2A,$0A,$00,
                    $2A,$2A,$2A,$2A,$2A
       00:0206: 20 20 2A 2A 
       00:020A: 0A 00 2A 2A 
       00:020E: 2A 2A 2A 
  3072 00:0211: 2A 2A 2A 2A  	db	$2A,$2A,$2A,$2A,$2A,$2A,$2A,$2A,$2A,$2A,
                    $2A,$2A,$2A,$2A,$2A
       00:0215: 2A 2A 2A 2A 
       00:0219: 2A 2A 2A 2A 
       00:021D: 2A 2A 2A 
  3073 00:0220: 2A 2A 2A 2A  	db	$2A,$2A,$2A,$2A,$2A,$2A,$2A,$0A,$0A,$00,
                    $20,$20,$20,$20,$20
       00:0224: 2A 2A 2A 0A 
       00:0228: 0A 00 20 20 
       00:022C: 20 20 20 
  3074 00:022F: 2B 2D 2D 2D  	db	$2B,$2D,$2D,$2D,$2D,$2D,$2D,$2D,$2D,$2D,
                    $2D,$2B,$2D,$2D,$2D
       00:0233: 2D 2D 2D 2D 
       00:0237: 2D 2D 2D 2B 
       00:023B: 2D 2D 2D 
  3075 00:023E: 2D 2D 2D 2D  	db	$2D,$2D,$2D,$2D,$2D,$2D,$2D,$2B,$2D,$2D,
                    $2D,$2D,$2D,$2D,$2D
       00:0242: 2D 2D 2D 2B 
       00:0246: 2D 2D 2D 2D 
       00:024A: 2D 2D 2D 
  3076 00:024D: 2D 2D 2D 2D  	db	$2D,$2D,$2D,$2D,$2D,$2D,$2D,$2D,$2D,$2D,
                    $2B,$2D,$2D,$2D,$2D
       00:0251: 2D 2D 2D 2D 
       00:0255: 2D 2D 2B 2D 
       00:0259: 2D 2D 2D 
  3077 00:025C: 2D 2D 2D 2D  	db	$2D,$2D,$2D,$2D,$2D,$2D,$2D,$2D,$2D,$2D,
                    $2D,$2D,$2B,$2D,$2D
       00:0260: 2D 2D 2D 2D 
       00:0264: 2D 2D 2D 2D 
       00:0268: 2B 2D 2D 
  3078 00:026B: 2D 2D 2D 2D  	db	$2D,$2D,$2D,$2D,$2D,$2D,$2D,$2D,$2D,$2D,
                    $2D,$2D,$2D,$2D,$2B
       00:026F: 2D 2D 2D 2D 
       00:0273: 2D 2D 2D 2D 
       00:0277: 2D 2D 2B 
  3079 00:027A: 2D 2D 2D 2D  	db	$2D,$2D,$2D,$2D,$2D,$2D,$2D,$2D,$2D,$2D,
                    $2D,$2D,$2D,$2B,$2D
       00:027E: 2D 2D 2D 2D 
       00:0282: 2D 2D 2D 2D 
       00:0286: 2D 2B 2D 
  3080 00:0289: 2D 2D 2D 2D  	db	$2D,$2D,$2D,$2D,$2D,$2D,$2D,$2D,$2D,$2D,
  Thu Dec  3 2020 22:25                                                Page 61


                    $2D,$2D,$2B,$2D,$2D
       00:028D: 2D 2D 2D 2D 
       00:0291: 2D 2D 2D 2D 
       00:0295: 2B 2D 2D 
  3081 00:0298: 2D 2D 2D 2D  	db	$2D,$2D,$2D,$2D,$2D,$2D,$2D,$2D,$2D,$2D,
                    $2B,$2D,$2D,$2D,$2D
       00:029C: 2D 2D 2D 2D 
       00:02A0: 2D 2D 2B 2D 
       00:02A4: 2D 2D 2D 
  3082 00:02A7: 2D 2D 2D 2D  	db	$2D,$2D,$2D,$2D,$2D,$2D,$2D,$2D,$2B,$2D,
                    $2D,$2D,$2D,$2D,$2D
       00:02AB: 2D 2D 2D 2D 
       00:02AF: 2B 2D 2D 2D 
       00:02B3: 2D 2D 2D 
  3083 00:02B6: 2D 2D 2D 2D  	db	$2D,$2D,$2D,$2D,$2D,$2D,$2D,$2D,$0A,$00,
                    $20,$20,$20,$20,$20
       00:02BA: 2D 2D 2D 2D 
       00:02BE: 0A 00 20 20 
       00:02C2: 20 20 20 
  3084 00:02C5: 7C 20 20 4F  	db	$7C,$20,$20,$4F,$66,$66,$73,$65,$74,$20,
                    $20,$7C,$20,$20,$53
       00:02C9: 66 66 73 65 
       00:02CD: 74 20 20 7C 
       00:02D1: 20 20 53 
  3085 00:02D4: 65 67 4E 75  	db	$65,$67,$4E,$75,$6D,$20,$20,$7C,$20,$20,
                    $20,$20,$20,$53,$65
       00:02D8: 6D 20 20 7C 
       00:02DC: 20 20 20 20 
       00:02E0: 20 53 65 
  3086 00:02E3: 67 54 79 70  	db	$67,$54,$79,$70,$65,$20,$20,$20,$20,$20,
                    $7C,$20,$20,$20,$20
       00:02E7: 65 20 20 20 
       00:02EB: 20 20 7C 20 
       00:02EF: 20 20 20 
  3087 00:02F2: 20 53 65 67  	db	$20,$53,$65,$67,$4E,$61,$6D,$65,$20,$20,
                    $20,$20,$7C,$20,$20
       00:02F6: 4E 61 6D 65 
       00:02FA: 20 20 20 20 
       00:02FE: 7C 20 20 
  3088 00:0301: 20 20 4C 6F  	db	$20,$20,$4C,$6F,$61,$64,$4E,$61,$6D,$65,
                    $20,$20,$20,$20,$7C
       00:0305: 61 64 4E 61 
       00:0309: 6D 65 20 20 
       00:030D: 20 20 7C 
  3089 00:0310: 20 20 53 65  	db	$20,$20,$53,$65,$67,$4C,$65,$6E,$67,$74,
                    $68,$20,$20,$7C,$20
       00:0314: 67 4C 65 6E 
       00:0318: 67 74 68 20 
       00:031C: 20 7C 20 
  3090 00:031F: 20 4D 65 6D  	db	$20,$4D,$65,$6D,$4C,$65,$6E,$67,$74,$68,
                    $20,$20,$7C,$20,$4F
       00:0323: 4C 65 6E 67 
       00:0327: 74 68 20 20 
       00:032B: 7C 20 4F 
  3091 00:032E: 72 67 41 64  	db	$72,$67,$41,$64,$64,$72,$65,$73,$73,$20,
                    $7C,$20,$20,$23,$20
       00:0332: 64 72 65 73 
       00:0336: 73 20 7C 20 
  Thu Dec  3 2020 22:25                                                Page 62


       00:033A: 20 23 20 
  3092 00:033D: 52 65 63 6F  	db	$52,$65,$63,$6F,$72,$64,$20,$20,$7C,$20,
                    $20,$52,$65,$63,$6F
       00:0341: 72 64 20 20 
       00:0345: 7C 20 20 52 
       00:0349: 65 63 6F 
  3093 00:034C: 72 64 4C 69  	db	$72,$64,$4C,$69,$73,$74,$20,$20,$0A,$00,
                    $20,$20,$20,$20,$20
       00:0350: 73 74 20 20 
       00:0354: 0A 00 20 20 
       00:0358: 20 20 20 
  3094 00:035B: 2B 2D 2D 2D  	db	$2B,$2D,$2D,$2D,$2D,$2D,$2D,$2D,$2D,$2D,
                    $2D,$2B,$2D,$2D,$2D
       00:035F: 2D 2D 2D 2D 
       00:0363: 2D 2D 2D 2B 
       00:0367: 2D 2D 2D 
  3095 00:036A: 2D 2D 2D 2D  	db	$2D,$2D,$2D,$2D,$2D,$2D,$2D,$2B,$2D,$2D,
                    $2D,$2D,$2D,$2D,$2D
       00:036E: 2D 2D 2D 2B 
       00:0372: 2D 2D 2D 2D 
       00:0376: 2D 2D 2D 
  3096 00:0379: 2D 2D 2D 2D  	db	$2D,$2D,$2D,$2D,$2D,$2D,$2D,$2D,$2D,$2D,
                    $2B,$2D,$2D,$2D,$2D
       00:037D: 2D 2D 2D 2D 
       00:0381: 2D 2D 2B 2D 
       00:0385: 2D 2D 2D 
  3097 00:0388: 2D 2D 2D 2D  	db	$2D,$2D,$2D,$2D,$2D,$2D,$2D,$2D,$2D,$2D,
                    $2D,$2D,$2B,$2D,$2D
       00:038C: 2D 2D 2D 2D 
       00:0390: 2D 2D 2D 2D 
       00:0394: 2B 2D 2D 
  3098 00:0397: 2D 2D 2D 2D  	db	$2D,$2D,$2D,$2D,$2D,$2D,$2D,$2D,$2D,$2D,
                    $2D,$2D,$2D,$2D,$2B
       00:039B: 2D 2D 2D 2D 
       00:039F: 2D 2D 2D 2D 
       00:03A3: 2D 2D 2B 
  3099 00:03A6: 2D 2D 2D 2D  	db	$2D,$2D,$2D,$2D,$2D,$2D,$2D,$2D,$2D,$2D,
                    $2D,$2D,$2D,$2B,$2D
       00:03AA: 2D 2D 2D 2D 
       00:03AE: 2D 2D 2D 2D 
       00:03B2: 2D 2B 2D 
  3100 00:03B5: 2D 2D 2D 2D  	db	$2D,$2D,$2D,$2D,$2D,$2D,$2D,$2D,$2D,$2D,
                    $2D,$2D,$2B,$2D,$2D
       00:03B9: 2D 2D 2D 2D 
       00:03BD: 2D 2D 2D 2D 
       00:03C1: 2B 2D 2D 
  3101 00:03C4: 2D 2D 2D 2D  	db	$2D,$2D,$2D,$2D,$2D,$2D,$2D,$2D,$2D,$2D,
                    $2B,$2D,$2D,$2D,$2D
       00:03C8: 2D 2D 2D 2D 
       00:03CC: 2D 2D 2B 2D 
       00:03D0: 2D 2D 2D 
  3102 00:03D3: 2D 2D 2D 2D  	db	$2D,$2D,$2D,$2D,$2D,$2D,$2D,$2D,$2B,$2D,
                    $2D,$2D,$2D,$2D,$2D
       00:03D7: 2D 2D 2D 2D 
       00:03DB: 2B 2D 2D 2D 
       00:03DF: 2D 2D 2D 
  3103 00:03E2: 2D 2D 2D 2D  	db	$2D,$2D,$2D,$2D,$2D,$2D,$2D,$2D,$0A,$00,
                    $20,$20,$20,$20,$20
  Thu Dec  3 2020 22:25                                                Page 63


       00:03E6: 2D 2D 2D 2D 
       00:03EA: 0A 00 20 20 
       00:03EE: 20 20 20 
  3104 00:03F1: 7C 20 20 25  	db	$7C,$20,$20,$25,$30,$36,$58,$20,$20,$7C,
                    $20,$20,$20,$20,$25
       00:03F5: 30 36 58 20 
       00:03F9: 20 7C 20 20 
       00:03FD: 20 20 25 
  3105 00:0400: 30 32 58 20  	db	$30,$32,$58,$20,$20,$20,$20,$7C,$20,$25,
                    $2D,$31,$35,$73,$20
       00:0404: 20 20 20 7C 
       00:0408: 20 25 2D 31 
       00:040C: 35 73 20 
  3106 00:040F: 7C 20 20 25  	db	$7C,$20,$20,$25,$2D,$31,$32,$73,$20,$20,
                    $7C,$20,$20,$25,$2D
       00:0413: 2D 31 32 73 
       00:0417: 20 20 7C 20 
       00:041B: 20 25 2D 
  3107 00:041E: 31 32 73 20  	db	$31,$32,$73,$20,$20,$7C,$20,$20,$20,$20,
                    $25,$30,$36,$58,$20
       00:0422: 20 7C 20 20 
       00:0426: 20 20 25 30 
       00:042A: 36 58 20 
  3108 00:042D: 20 20 7C 20  	db	$20,$20,$7C,$20,$20,$20,$20,$25,$30,$36,
                    $58,$20,$20,$20,$7C
       00:0431: 20 20 20 25 
       00:0435: 30 36 58 20 
       00:0439: 20 20 7C 
  3109 00:043C: 20 20 20 25  	db	$20,$20,$20,$25,$30,$36,$58,$20,$20,$20,
                    $7C,$20,$20,$20,$20
       00:0440: 30 36 58 20 
       00:0444: 20 20 7C 20 
       00:0448: 20 20 20 
  3110 00:044B: 25 30 34 58  	db	$25,$30,$34,$58,$20,$20,$20,$20,$7C,$20,
                    $20,$25,$73,$0A,$00
       00:044F: 20 20 20 20 
       00:0453: 7C 20 20 25 
       00:0457: 73 0A 00 
  3111 00:045A: 20 20 20 20  	db	$20,$20,$20,$20,$20,$2B,$2D,$2D,$2D,$2D,
                    $2D,$2D,$2D,$2D,$2D
       00:045E: 20 2B 2D 2D 
       00:0462: 2D 2D 2D 2D 
       00:0466: 2D 2D 2D 
  3112 00:0469: 2D 2B 2D 2D  	db	$2D,$2B,$2D,$2D,$2D,$2D,$2D,$2D,$2D,$2D,
                    $2D,$2D,$2B,$2D,$2D
       00:046D: 2D 2D 2D 2D 
       00:0471: 2D 2D 2D 2D 
       00:0475: 2B 2D 2D 
  3113 00:0478: 2D 2D 2D 2D  	db	$2D,$2D,$2D,$2D,$2D,$2D,$2D,$2D,$2D,$2D,
                    $2D,$2D,$2D,$2D,$2D
       00:047C: 2D 2D 2D 2D 
       00:0480: 2D 2D 2D 2D 
       00:0484: 2D 2D 2D 
  3114 00:0487: 2B 2D 2D 2D  	db	$2B,$2D,$2D,$2D,$2D,$2D,$2D,$2D,$2D,$2D,
                    $2D,$2D,$2D,$2D,$2D
       00:048B: 2D 2D 2D 2D 
       00:048F: 2D 2D 2D 2D 
       00:0493: 2D 2D 2D 
  Thu Dec  3 2020 22:25                                                Page 64


  3115 00:0496: 2D 2D 2B 2D  	db	$2D,$2D,$2B,$2D,$2D,$2D,$2D,$2D,$2D,$2D,
                    $2D,$2D,$2D,$2D,$2D
       00:049A: 2D 2D 2D 2D 
       00:049E: 2D 2D 2D 2D 
       00:04A2: 2D 2D 2D 
  3116 00:04A5: 2D 2D 2D 2D  	db	$2D,$2D,$2D,$2D,$2B,$2D,$2D,$2D,$2D,$2D,
                    $2D,$2D,$2D,$2D,$2D
       00:04A9: 2B 2D 2D 2D 
       00:04AD: 2D 2D 2D 2D 
       00:04B1: 2D 2D 2D 
  3117 00:04B4: 2D 2D 2D 2B  	db	$2D,$2D,$2D,$2B,$2D,$2D,$2D,$2D,$2D,$2D,
                    $2D,$2D,$2D,$2D,$2D
       00:04B8: 2D 2D 2D 2D 
       00:04BC: 2D 2D 2D 2D 
       00:04C0: 2D 2D 2D 
  3118 00:04C3: 2D 2D 2B 2D  	db	$2D,$2D,$2B,$2D,$2D,$2D,$2D,$2D,$2D,$2D,
                    $2D,$2D,$2D,$2D,$2D
       00:04C7: 2D 2D 2D 2D 
       00:04CB: 2D 2D 2D 2D 
       00:04CF: 2D 2D 2D 
  3119 00:04D2: 2B 2D 2D 2D  	db	$2B,$2D,$2D,$2D,$2D,$2D,$2D,$2D,$2D,$2D,
                    $2D,$2D,$2D,$2B,$2D
       00:04D6: 2D 2D 2D 2D 
       00:04DA: 2D 2D 2D 2D 
       00:04DE: 2D 2B 2D 
  3120 00:04E1: 2D 2D 2D 2D  	db	$2D,$2D,$2D,$2D,$2D,$2D,$2D,$2D,$2D,$2D,
                    $2D,$2D,$2D,$0A,$0A
       00:04E5: 2D 2D 2D 2D 
       00:04E9: 2D 2D 2D 2D 
       00:04ED: 2D 0A 0A 
  3121 00:04F0: 00 2A 2A 2A  	db	$00,$2A,$2A,$2A,$2A,$2A,$2A,$2A,$2A,$2A,
                    $2A,$2A,$2A,$2A,$2A
       00:04F4: 2A 2A 2A 2A 
       00:04F8: 2A 2A 2A 2A 
       00:04FC: 2A 2A 2A 
  3122 00:04FF: 2A 2A 2A 2A  	db	$2A,$2A,$2A,$2A,$2A,$2A,$2A,$2A,$2A,$2A,
                    $2A,$2A,$2A,$0A,$00
       00:0503: 2A 2A 2A 2A 
       00:0507: 2A 2A 2A 2A 
       00:050B: 2A 0A 00 
  3123 00:050E: 2A 2A 20 20  	db	$2A,$2A,$20,$20,$20,$20,$20,$20,$53,$65,
                    $67,$6D,$65,$6E,$74
       00:0512: 20 20 20 20 
       00:0516: 53 65 67 6D 
       00:051A: 65 6E 74 
  3124 00:051D: 20 25 30 32  	db	$20,$25,$30,$32,$58,$20,$20,$20,$20,$20,
                    $20,$20,$2A,$2A,$0A
       00:0521: 58 20 20 20 
       00:0525: 20 20 20 20 
       00:0529: 2A 2A 0A 
  3125 00:052C: 00 2A 2A 2A  	db	$00,$2A,$2A,$2A,$2A,$2A,$2A,$2A,$2A,$2A,
                    $2A,$2A,$2A,$2A,$2A
       00:0530: 2A 2A 2A 2A 
       00:0534: 2A 2A 2A 2A 
       00:0538: 2A 2A 2A 
  3126 00:053B: 2A 2A 2A 2A  	db	$2A,$2A,$2A,$2A,$2A,$2A,$2A,$2A,$2A,$2A,
                    $2A,$2A,$2A,$0A,$0A
       00:053F: 2A 2A 2A 2A 
  Thu Dec  3 2020 22:25                                                Page 65


       00:0543: 2A 2A 2A 2A 
       00:0547: 2A 0A 0A 
  3127 00:054A: 00 20 20 2A  	db	$00,$20,$20,$2A,$2A,$2A,$20,$20,$48,$65,
                    $61,$64,$65,$72,$20
       00:054E: 2A 2A 20 20 
       00:0552: 48 65 61 64 
       00:0556: 65 72 20 
  3128 00:0559: 20 2A 2A 2A  	db	$20,$2A,$2A,$2A,$0A,$0A,$00,$20,$20,$2A,
                    $2A,$2A,$20,$20,$44
       00:055D: 0A 0A 00 20 
       00:0561: 20 2A 2A 2A 
       00:0565: 20 20 44 
  3129 00:0568: 61 74 61 20  	db	$61,$74,$61,$20,$6F,$72,$20,$43,$6F,$64,
                    $65,$20,$20,$2A,$2A
       00:056C: 6F 72 20 43 
       00:0570: 6F 64 65 20 
       00:0574: 20 2A 2A 
  3130 00:0577: 2A 0A 0A 00  	db	$2A,$0A,$0A,$00,$20,$20,$20,$20,$20,$20,
                    $20,$2D,$20,$4E,$6F
       00:057B: 20 20 20 20 
       00:057F: 20 20 20 2D 
       00:0583: 20 4E 6F 
  3131 00:0586: 20 44 61 74  	db	$20,$44,$61,$74,$61,$20,$6F,$72,$20,$43,
                    $6F,$64,$65,$20,$72
       00:058A: 61 20 6F 72 
       00:058E: 20 43 6F 64 
       00:0592: 65 20 72 
  3132 00:0595: 65 63 6F 72  	db	$65,$63,$6F,$72,$64,$0A,$0A,$00,$20,$20,
                    $20,$20,$20,$6F,$20
       00:0599: 64 0A 0A 00 
       00:059D: 20 20 20 20 
       00:05A1: 20 6F 20 
  3133 00:05A4: 42 6F 64 79  	db	$42,$6F,$64,$79,$20,$52,$65,$63,$6F,$72,
                    $64,$20,$4C,$69,$73
       00:05A8: 20 52 65 63 
       00:05AC: 6F 72 64 20 
       00:05B0: 4C 69 73 
  3134 00:05B3: 74 20 20 20  	db	$74,$20,$20,$20,$20,$20,$20,$20,$20,$20,
                    $20,$20,$20,$20,$20
       00:05B7: 20 20 20 20 
       00:05BB: 20 20 20 20 
       00:05BF: 20 20 20 
  3135 00:05C2: 20 20 20 20  	db	$20,$20,$20,$20,$20,$20,$20,$20,$20,$20,
                    $20,$20,$20,$20,$20
       00:05C6: 20 20 20 20 
       00:05CA: 20 20 20 20 
       00:05CE: 20 20 20 
  3136 00:05D1: 20 20 20 20  	db	$20,$20,$20,$20,$20,$20,$20,$20,$20,$3A,
                    $20,$20,$25,$73,$0A
       00:05D5: 20 20 20 20 
       00:05D9: 20 3A 20 20 
       00:05DD: 25 73 0A 
  3137 00:05E0: 0A 00 20 20  	db	$0A,$00,$20,$20,$20,$20,$20,$2D,$20,$44,
                    $61,$74,$61,$20,$4F
       00:05E4: 20 20 20 2D 
       00:05E8: 20 44 61 74 
       00:05EC: 61 20 4F 
  3138 00:05EF: 66 66 73 65  	db	$66,$66,$73,$65,$74,$20,$20,$20,$20,$3A,
  Thu Dec  3 2020 22:25                                                Page 66


                    $20,$20,$25,$30,$36
       00:05F3: 74 20 20 20 
       00:05F7: 20 3A 20 20 
       00:05FB: 25 30 36 
  3139 00:05FE: 58 0A 00 20  	db	$58,$0A,$00,$20,$20,$20,$20,$20,$2D,$20,
                    $44,$61,$74,$61,$20
       00:0602: 20 20 20 20 
       00:0606: 2D 20 44 61 
       00:060A: 74 61 20 
  3140 00:060D: 4C 65 6E 67  	db	$4C,$65,$6E,$67,$74,$68,$20,$20,$20,$20,
                    $3A,$20,$20,$25,$30
       00:0611: 74 68 20 20 
       00:0615: 20 20 3A 20 
       00:0619: 20 25 30 
  3141 00:061C: 36 58 20 28  	db	$36,$58,$20,$28,$25,$64,$29,$0A,$0A,$00,
                    $7E,$45,$78,$70,$72
       00:0620: 25 64 29 0A 
       00:0624: 0A 00 7E 45 
       00:0628: 78 70 72 
  3142 00:062B: 65 73 73 4C  	db	$65,$73,$73,$4C,$6F,$61,$64,$00,$20,$20,
                    $20,$20,$20,$20,$20
       00:062F: 6F 61 64 00 
       00:0633: 20 20 20 20 
       00:0637: 20 20 20 
  3143 00:063A: 25 30 36 58  	db	$25,$30,$36,$58,$20,$20,$20,$25,$73,$0A,
                    $00,$0A,$00,$20,$20
       00:063E: 20 20 20 25 
       00:0642: 73 0A 00 0A 
       00:0646: 00 20 20 
  3144 00:0649: 2A 2A 2A 20  	db	$2A,$2A,$2A,$20,$20,$52,$65,$6C,$6F,$63,
                    $61,$74,$69,$6F,$6E
       00:064D: 20 52 65 6C 
       00:0651: 6F 63 61 74 
       00:0655: 69 6F 6E 
  3145 00:0658: 20 44 69 63  	db	$20,$44,$69,$63,$74,$69,$6F,$6E,$61,$72,
                    $79,$20,$2A,$2A,$2A
       00:065C: 74 69 6F 6E 
       00:0660: 61 72 79 20 
       00:0664: 2A 2A 2A 
  3146 00:0667: 0A 0A 00 20  	db	$0A,$0A,$00,$20,$20,$20,$20,$20,$2D,$20,
                    $52,$65,$6C,$6F,$63
       00:066B: 20 20 20 20 
       00:066F: 2D 20 52 65 
       00:0673: 6C 6F 63 
  3147 00:0676: 20 4F 66 66  	db	$20,$4F,$66,$66,$73,$65,$74,$20,$20,$20,
                    $3A,$20,$20,$25,$30
       00:067A: 73 65 74 20 
       00:067E: 20 20 3A 20 
       00:0682: 20 25 30 
  3148 00:0685: 36 58 0A 00  	db	$36,$58,$0A,$00,$20,$20,$20,$20,$20,$2D,
                    $20,$52,$65,$6C,$6F
       00:0689: 20 20 20 20 
       00:068D: 20 2D 20 52 
       00:0691: 65 6C 6F 
  3149 00:0694: 63 20 4C 65  	db	$63,$20,$4C,$65,$6E,$67,$74,$68,$20,$20,
                    $20,$3A,$20,$20,$25
       00:0698: 6E 67 74 68 
       00:069C: 20 20 20 3A 
  Thu Dec  3 2020 22:25                                                Page 67


       00:06A0: 20 20 25 
  3150 00:06A3: 30 36 58 20  	db	$30,$36,$58,$20,$28,$25,$64,$29,$0A,$0A,
                    $00,$20,$20,$20,$20
       00:06A7: 28 25 64 29 
       00:06AB: 0A 0A 00 20 
       00:06AF: 20 20 20 
  3151 00:06B2: 20 2D 20 23  	db	$20,$2D,$20,$23,$20,$41,$64,$64,$72,$65,
                    $73,$73,$20,$74,$6F
       00:06B6: 20 41 64 64 
       00:06BA: 72 65 73 73 
       00:06BE: 20 74 6F 
  3152 00:06C1: 20 62 65 20  	db	$20,$62,$65,$20,$70,$61,$74,$63,$68,$65,
                    $64,$20,$20,$3A,$20
       00:06C5: 70 61 74 63 
       00:06C9: 68 65 64 20 
       00:06CD: 20 3A 20 
  3153 00:06D0: 20 25 30 34  	db	$20,$25,$30,$34,$58,$20,$28,$25,$64,$29,
                    $0A,$0A,$00,$20,$20
       00:06D4: 58 20 28 25 
       00:06D8: 64 29 0A 0A 
       00:06DC: 00 20 20 
  3154 00:06DF: 20 20 20 20  	db	$20,$20,$20,$20,$20,$2B,$2D,$2D,$2D,$2D,
                    $2D,$2D,$2D,$2D,$2B
       00:06E3: 20 2B 2D 2D 
       00:06E7: 2D 2D 2D 2D 
       00:06EB: 2D 2D 2B 
  3155 00:06EE: 2D 2D 2D 2D  	db	$2D,$2D,$2D,$2D,$2D,$2D,$2D,$2D,$2D,$2D,
                    $2D,$2B,$2D,$2D,$2D
       00:06F2: 2D 2D 2D 2D 
       00:06F6: 2D 2D 2D 2B 
       00:06FA: 2D 2D 2D 
  3156 00:06FD: 2D 2D 2D 2D  	db	$2D,$2D,$2D,$2D,$2D,$2D,$2D,$2D,$2D,$2D,
                    $2B,$2D,$2D,$2D,$2D
       00:0701: 2D 2D 2D 2D 
       00:0705: 2D 2D 2B 2D 
       00:0709: 2D 2D 2D 
  3157 00:070C: 2D 2D 2D 2D  	db	$2D,$2D,$2D,$2D,$2D,$2D,$2B,$2D,$2D,$2D,
                    $2D,$2D,$2D,$2D,$2D
       00:0710: 2D 2D 2B 2D 
       00:0714: 2D 2D 2D 2D 
       00:0718: 2D 2D 2D 
  3158 00:071B: 2D 2D 2D 2D  	db	$2D,$2D,$2D,$2D,$2D,$2B,$0A,$00,$20,$20,
                    $20,$20,$20,$20,$20
       00:071F: 2D 2B 0A 00 
       00:0723: 20 20 20 20 
       00:0727: 20 20 20 
  3159 00:072A: 7C 20 20 20  	db	$7C,$20,$20,$20,$20,$23,$20,$20,$20,$7C,
                    $20,$20,$23,$20,$42
       00:072E: 20 23 20 20 
       00:0732: 20 7C 20 20 
       00:0736: 23 20 42 
  3160 00:0739: 79 74 65 73  	db	$79,$74,$65,$73,$20,$20,$7C,$20,$20,$42,
                    $69,$74,$20,$53,$68
       00:073D: 20 20 7C 20 
       00:0741: 20 42 69 74 
       00:0745: 20 53 68 
  3161 00:0748: 69 66 74 20  	db	$69,$66,$74,$20,$20,$7C,$20,$20,$4F,$66,
                    $66,$73,$65,$74,$20
  Thu Dec  3 2020 22:25                                                Page 68


       00:074C: 20 7C 20 20 
       00:0750: 4F 66 66 73 
       00:0754: 65 74 20 
  3162 00:0757: 20 7C 20 20  	db	$20,$7C,$20,$20,$52,$65,$66,$65,$72,$65,
                    $6E,$63,$65,$20,$20
       00:075B: 52 65 66 65 
       00:075F: 72 65 6E 63 
       00:0763: 65 20 20 
  3163 00:0766: 7C 0A 00 20  	db	$7C,$0A,$00,$20,$20,$20,$20,$20,$20,$20,
                    $2B,$2D,$2D,$2D,$2D
       00:076A: 20 20 20 20 
       00:076E: 20 20 2B 2D 
       00:0772: 2D 2D 2D 
  3164 00:0775: 2D 2D 2D 2D  	db	$2D,$2D,$2D,$2D,$2B,$2D,$2D,$2D,$2D,$2D,
                    $2D,$2D,$2D,$2D,$2D
       00:0779: 2B 2D 2D 2D 
       00:077D: 2D 2D 2D 2D 
       00:0781: 2D 2D 2D 
  3165 00:0784: 2D 2B 2D 2D  	db	$2D,$2B,$2D,$2D,$2D,$2D,$2D,$2D,$2D,$2D,
                    $2D,$2D,$2D,$2D,$2D
       00:0788: 2D 2D 2D 2D 
       00:078C: 2D 2D 2D 2D 
       00:0790: 2D 2D 2D 
  3166 00:0793: 2B 2D 2D 2D  	db	$2B,$2D,$2D,$2D,$2D,$2D,$2D,$2D,$2D,$2D,
                    $2D,$2B,$2D,$2D,$2D
       00:0797: 2D 2D 2D 2D 
       00:079B: 2D 2D 2D 2B 
       00:079F: 2D 2D 2D 
  3167 00:07A2: 2D 2D 2D 2D  	db	$2D,$2D,$2D,$2D,$2D,$2D,$2D,$2D,$2D,$2D,
                    $2B,$0A,$00,$20,$20
       00:07A6: 2D 2D 2D 2D 
       00:07AA: 2D 2D 2B 0A 
       00:07AE: 00 20 20 
  3168 00:07B1: 20 20 20 00  	db	$20,$20,$20,$00,$3E,$3E,$20,$38,$20,$00,
                    $3E,$3E,$20,$31,$36
       00:07B5: 3E 3E 20 38 
       00:07B9: 20 00 3E 3E 
       00:07BD: 20 31 36 
  3169 00:07C0: 00 20 20 20  	db	$00,$20,$20,$20,$20,$20,$20,$20,$7C,$20,
                    $20,$25,$30,$34,$58
       00:07C4: 20 20 20 20 
       00:07C8: 7C 20 20 25 
       00:07CC: 30 34 58 
  3170 00:07CF: 20 20 7C 20  	db	$20,$20,$7C,$20,$20,$20,$20,$25,$30,$32,
                    $58,$20,$20,$20,$20
       00:07D3: 20 20 20 25 
       00:07D7: 30 32 58 20 
       00:07DB: 20 20 20 
  3171 00:07DE: 20 7C 20 20  	db	$20,$7C,$20,$20,$20,$20,$25,$73,$20,$20,
                    $20,$20,$7C,$20,$20
       00:07E2: 20 20 25 73 
       00:07E6: 20 20 20 20 
       00:07EA: 7C 20 20 
  3172 00:07ED: 25 30 36 58  	db	$25,$30,$36,$58,$20,$20,$7C,$20,$20,$20,
                    $25,$30,$36,$58,$20
       00:07F1: 20 20 7C 20 
       00:07F5: 20 20 25 30 
       00:07F9: 36 58 20 
  Thu Dec  3 2020 22:25                                                Page 69


  3173 00:07FC: 20 20 20 7C  	db	$20,$20,$20,$7C,$20,$20,$25,$73,$0A,$00,
                    $20,$20,$20,$20,$20
       00:0800: 20 20 25 73 
       00:0804: 0A 00 20 20 
       00:0808: 20 20 20 
  3174 00:080B: 20 20 7C 20  	db	$20,$20,$7C,$20,$20,$25,$30,$34,$58,$20,
                    $20,$7C,$20,$20,$20
       00:080F: 20 25 30 34 
       00:0813: 58 20 20 7C 
       00:0817: 20 20 20 
  3175 00:081A: 20 25 30 32  	db	$20,$25,$30,$32,$58,$20,$20,$20,$20,$20,
                    $7C,$20,$20,$20,$20
       00:081E: 58 20 20 20 
       00:0822: 20 20 7C 20 
       00:0826: 20 20 20 
  3176 00:0829: 25 73 20 20  	db	$25,$73,$20,$20,$20,$20,$7C,$20,$20,$25,
                    $30,$36,$58,$20,$20
       00:082D: 20 20 7C 20 
       00:0831: 20 25 30 36 
       00:0835: 58 20 20 
  3177 00:0838: 7C 20 25 30  	db	$7C,$20,$25,$30,$38,$58,$20,$20,$20,$20,
                    $7C,$20,$20,$25,$73
       00:083C: 38 58 20 20 
       00:0840: 20 20 7C 20 
       00:0844: 20 25 73 
  3178 00:0847: 0A 00 20 20  	db	$0A,$00,$20,$20,$20,$20,$20,$20,$20,$2B,
                    $2D,$2D,$2D,$2D,$2D
       00:084B: 20 20 20 20 
       00:084F: 20 2B 2D 2D 
       00:0853: 2D 2D 2D 
  3179 00:0856: 2D 2D 2D 2B  	db	$2D,$2D,$2D,$2B,$2D,$2D,$2D,$2D,$2D,$2D,
                    $2D,$2D,$2D,$2D,$2D
       00:085A: 2D 2D 2D 2D 
       00:085E: 2D 2D 2D 2D 
       00:0862: 2D 2D 2D 
  3180 00:0865: 2B 2D 2D 2D  	db	$2B,$2D,$2D,$2D,$2D,$2D,$2D,$2D,$2D,$2D,
                    $2D,$2D,$2D,$2D,$2B
       00:0869: 2D 2D 2D 2D 
       00:086D: 2D 2D 2D 2D 
       00:0871: 2D 2D 2B 
  3181 00:0874: 2D 2D 2D 2D  	db	$2D,$2D,$2D,$2D,$2D,$2D,$2D,$2D,$2D,$2D,
                    $2B,$2D,$2D,$2D,$2D
       00:0878: 2D 2D 2D 2D 
       00:087C: 2D 2D 2B 2D 
       00:0880: 2D 2D 2D 
  3182 00:0883: 2D 2D 2D 2D  	db	$2D,$2D,$2D,$2D,$2D,$2D,$2D,$2D,$2D,$2B,
                    $0A,$0A,$00,$20,$20
       00:0887: 2D 2D 2D 2D 
       00:088B: 2D 2B 0A 0A 
       00:088F: 00 20 20 
  3183 00:0892: 20 20 20 2D  	db	$20,$20,$20,$2D,$20,$23,$20,$41,$64,$64,
                    $72,$65,$73,$73,$20
       00:0896: 20 23 20 41 
       00:089A: 64 64 72 65 
       00:089E: 73 73 20 
  3184 00:08A1: 74 6F 20 62  	db	$74,$6F,$20,$62,$65,$20,$70,$61,$74,$63,
                    $68,$65,$64,$20,$20
       00:08A5: 65 20 70 61 
  Thu Dec  3 2020 22:25                                                Page 70


       00:08A9: 74 63 68 65 
       00:08AD: 64 20 20 
  3185 00:08B0: 3A 20 20 25  	db	$3A,$20,$20,$25,$30,$34,$58,$20,$28,$25,
                    $64,$29,$0A,$0A,$00
       00:08B4: 30 34 58 20 
       00:08B8: 28 25 64 29 
       00:08BC: 0A 0A 00 
  3186 00:08BF: 20 20 20 20  	db	$20,$20,$20,$20,$20,$20,$20,$2B,$2D,$2D,
                    $2D,$2D,$2D,$2D,$2D
       00:08C3: 20 20 20 2B 
       00:08C7: 2D 2D 2D 2D 
       00:08CB: 2D 2D 2D 
  3187 00:08CE: 2D 2B 2D 2D  	db	$2D,$2B,$2D,$2D,$2D,$2D,$2D,$2D,$2D,$2D,
                    $2D,$2D,$2D,$2B,$2D
       00:08D2: 2D 2D 2D 2D 
       00:08D6: 2D 2D 2D 2D 
       00:08DA: 2D 2B 2D 
  3188 00:08DD: 2D 2D 2D 2D  	db	$2D,$2D,$2D,$2D,$2D,$2D,$2D,$2D,$2D,$2D,
                    $2D,$2D,$2B,$2D,$2D
       00:08E1: 2D 2D 2D 2D 
       00:08E5: 2D 2D 2D 2D 
       00:08E9: 2B 2D 2D 
  3189 00:08EC: 2D 2D 2D 2D  	db	$2D,$2D,$2D,$2D,$2D,$2D,$2D,$2D,$2B,$2D,
                    $2D,$2D,$2D,$2D,$2D
       00:08F0: 2D 2D 2D 2D 
       00:08F4: 2B 2D 2D 2D 
       00:08F8: 2D 2D 2D 
  3190 00:08FB: 2D 2D 2D 2D  	db	$2D,$2D,$2D,$2D,$2D,$2D,$2D,$2B,$2D,$2D,
                    $2D,$2D,$2D,$2D,$2D
       00:08FF: 2D 2D 2D 2B 
       00:0903: 2D 2D 2D 2D 
       00:0907: 2D 2D 2D 
  3191 00:090A: 2D 2D 2D 2D  	db	$2D,$2D,$2D,$2D,$2D,$2B,$2D,$2D,$2D,$2D,
                    $2D,$2D,$2D,$2D,$2D
       00:090E: 2D 2B 2D 2D 
       00:0912: 2D 2D 2D 2D 
       00:0916: 2D 2D 2D 
  3192 00:0919: 2D 2D 2B 0A  	db	$2D,$2D,$2B,$0A,$00,$20,$20,$20,$20,$20,
                    $20,$20,$7C,$20,$20
       00:091D: 00 20 20 20 
       00:0921: 20 20 20 20 
       00:0925: 7C 20 20 
  3193 00:0928: 20 20 23 20  	db	$20,$20,$23,$20,$20,$20,$7C,$20,$20,$23,
                    $20,$42,$79,$74,$65
       00:092C: 20 20 7C 20 
       00:0930: 20 23 20 42 
       00:0934: 79 74 65 
  3194 00:0937: 73 20 20 7C  	db	$73,$20,$20,$7C,$20,$20,$42,$69,$74,$20,
                    $53,$68,$69,$66,$74
       00:093B: 20 20 42 69 
       00:093F: 74 20 53 68 
       00:0943: 69 66 74 
  3195 00:0946: 20 20 7C 20  	db	$20,$20,$7C,$20,$20,$4F,$66,$66,$73,$65,
                    $74,$20,$20,$7C,$20
       00:094A: 20 4F 66 66 
       00:094E: 73 65 74 20 
       00:0952: 20 7C 20 
  3196 00:0955: 20 52 65 66  	db	$20,$52,$65,$66,$65,$72,$65,$6E,$63,$65,
  Thu Dec  3 2020 22:25                                                Page 71


                    $20,$20,$7C,$20,$20
       00:0959: 65 72 65 6E 
       00:095D: 63 65 20 20 
       00:0961: 7C 20 20 
  3197 00:0964: 46 69 6C 65  	db	$46,$69,$6C,$65,$20,$4E,$75,$6D,$20,$20,
                    $7C,$20,$20,$53,$65
       00:0968: 20 4E 75 6D 
       00:096C: 20 20 7C 20 
       00:0970: 20 53 65 
  3198 00:0973: 67 20 4E 75  	db	$67,$20,$4E,$75,$6D,$20,$20,$7C,$0A,$00,
                    $20,$20,$20,$20,$20
       00:0977: 6D 20 20 7C 
       00:097B: 0A 00 20 20 
       00:097F: 20 20 20 
  3199 00:0982: 20 20 2B 2D  	db	$20,$20,$2B,$2D,$2D,$2D,$2D,$2D,$2D,$2D,
                    $2D,$2B,$2D,$2D,$2D
       00:0986: 2D 2D 2D 2D 
       00:098A: 2D 2D 2D 2B 
       00:098E: 2D 2D 2D 
  3200 00:0991: 2D 2D 2D 2D  	db	$2D,$2D,$2D,$2D,$2D,$2D,$2D,$2D,$2B,$2D,
                    $2D,$2D,$2D,$2D,$2D
       00:0995: 2D 2D 2D 2D 
       00:0999: 2B 2D 2D 2D 
       00:099D: 2D 2D 2D 
  3201 00:09A0: 2D 2D 2D 2D  	db	$2D,$2D,$2D,$2D,$2D,$2D,$2D,$2B,$2D,$2D,
                    $2D,$2D,$2D,$2D,$2D
       00:09A4: 2D 2D 2D 2B 
       00:09A8: 2D 2D 2D 2D 
       00:09AC: 2D 2D 2D 
  3202 00:09AF: 2D 2D 2D 2B  	db	$2D,$2D,$2D,$2B,$2D,$2D,$2D,$2D,$2D,$2D,
                    $2D,$2D,$2D,$2D,$2D
       00:09B3: 2D 2D 2D 2D 
       00:09B7: 2D 2D 2D 2D 
       00:09BB: 2D 2D 2D 
  3203 00:09BE: 2D 2D 2B 2D  	db	$2D,$2D,$2B,$2D,$2D,$2D,$2D,$2D,$2D,$2D,
                    $2D,$2D,$2D,$2D,$2D
       00:09C2: 2D 2D 2D 2D 
       00:09C6: 2D 2D 2D 2D 
       00:09CA: 2D 2D 2D 
  3204 00:09CD: 2B 2D 2D 2D  	db	$2B,$2D,$2D,$2D,$2D,$2D,$2D,$2D,$2D,$2D,
                    $2D,$2D,$2B,$0A,$00
       00:09D1: 2D 2D 2D 2D 
       00:09D5: 2D 2D 2D 2D 
       00:09D9: 2B 0A 00 
  3205 00:09DC: 20 20 20 20  	db	$20,$20,$20,$20,$20,$00,$3E,$3E,$20,$38,
                    $20,$00,$3E,$3E,$20
       00:09E0: 20 00 3E 3E 
       00:09E4: 20 38 20 00 
       00:09E8: 3E 3E 20 
  3206 00:09EB: 31 36 00 20  	db	$31,$36,$00,$20,$20,$20,$20,$20,$20,$20,
                    $7C,$20,$20,$25,$30
       00:09EF: 20 20 20 20 
       00:09F3: 20 20 7C 20 
       00:09F7: 20 25 30 
  3207 00:09FA: 34 58 20 20  	db	$34,$58,$20,$20,$7C,$20,$20,$20,$20,$25,
                    $30,$32,$58,$20,$20
       00:09FE: 7C 20 20 20 
       00:0A02: 20 25 30 32 
  Thu Dec  3 2020 22:25                                                Page 72


       00:0A06: 58 20 20 
  3208 00:0A09: 20 20 20 7C  	db	$20,$20,$20,$7C,$20,$20,$20,$20,$25,$73,
                    $20,$20,$20,$20,$7C
       00:0A0D: 20 20 20 20 
       00:0A11: 25 73 20 20 
       00:0A15: 20 20 7C 
  3209 00:0A18: 20 20 25 30  	db	$20,$20,$25,$30,$36,$58,$20,$20,$7C,$20,
                    $20,$20,$25,$30,$36
       00:0A1C: 36 58 20 20 
       00:0A20: 7C 20 20 20 
       00:0A24: 25 30 36 
  3210 00:0A27: 58 20 20 20  	db	$58,$20,$20,$20,$20,$7C,$20,$20,$20,$20,
                    $25,$30,$34,$58,$20
       00:0A2B: 20 7C 20 20 
       00:0A2F: 20 20 25 30 
       00:0A33: 34 58 20 
  3211 00:0A36: 20 20 20 7C  	db	$20,$20,$20,$7C,$20,$20,$20,$20,$25,$30,
                    $34,$58,$20,$20,$20
       00:0A3A: 20 20 20 20 
       00:0A3E: 25 30 34 58 
       00:0A42: 20 20 20 
  3212 00:0A45: 7C 20 20 25  	db	$7C,$20,$20,$25,$73,$0A,$00,$20,$20,$20,
                    $20,$20,$20,$20,$2B
       00:0A49: 73 0A 00 20 
       00:0A4D: 20 20 20 20 
       00:0A51: 20 20 2B 
  3213 00:0A54: 2D 2D 2D 2D  	db	$2D,$2D,$2D,$2D,$2D,$2D,$2D,$2D,$2B,$2D,
                    $2D,$2D,$2D,$2D,$2D
       00:0A58: 2D 2D 2D 2D 
       00:0A5C: 2B 2D 2D 2D 
       00:0A60: 2D 2D 2D 
  3214 00:0A63: 2D 2D 2D 2D  	db	$2D,$2D,$2D,$2D,$2D,$2B,$2D,$2D,$2D,$2D,
                    $2D,$2D,$2D,$2D,$2D
       00:0A67: 2D 2B 2D 2D 
       00:0A6B: 2D 2D 2D 2D 
       00:0A6F: 2D 2D 2D 
  3215 00:0A72: 2D 2D 2D 2D  	db	$2D,$2D,$2D,$2D,$2B,$2D,$2D,$2D,$2D,$2D,
                    $2D,$2D,$2D,$2D,$2D
       00:0A76: 2B 2D 2D 2D 
       00:0A7A: 2D 2D 2D 2D 
       00:0A7E: 2D 2D 2D 
  3216 00:0A81: 2B 2D 2D 2D  	db	$2B,$2D,$2D,$2D,$2D,$2D,$2D,$2D,$2D,$2D,
                    $2D,$2D,$2D,$2D,$2B
       00:0A85: 2D 2D 2D 2D 
       00:0A89: 2D 2D 2D 2D 
       00:0A8D: 2D 2D 2B 
  3217 00:0A90: 2D 2D 2D 2D  	db	$2D,$2D,$2D,$2D,$2D,$2D,$2D,$2D,$2D,$2D,
                    $2D,$2D,$2B,$2D,$2D
       00:0A94: 2D 2D 2D 2D 
       00:0A98: 2D 2D 2D 2D 
       00:0A9C: 2B 2D 2D 
  3218 00:0A9F: 2D 2D 2D 2D  	db	$2D,$2D,$2D,$2D,$2D,$2D,$2D,$2D,$2D,$2B,
                    $0A,$0A,$00,$0A,$2A
       00:0AA3: 2D 2D 2D 2D 
       00:0AA7: 2D 2B 0A 0A 
       00:0AAB: 00 0A 2A 
  3219 00:0AAE: 2A 2A 2A 2A  	db	$2A,$2A,$2A,$2A,$2A,$2A,$2A,$2A,$2A,$2A,
                    $2A,$2A,$2A,$2A,$2A
  Thu Dec  3 2020 22:25                                                Page 73


       00:0AB2: 2A 2A 2A 2A 
       00:0AB6: 2A 2A 2A 2A 
       00:0ABA: 2A 2A 2A 
  3220 00:0ABD: 2A 2A 2A 2A  	db	$2A,$2A,$2A,$2A,$2A,$2A,$2A,$2A,$2A,$2A,
                    $2A,$2A,$2A,$2A,$2A
       00:0AC1: 2A 2A 2A 2A 
       00:0AC5: 2A 2A 2A 2A 
       00:0AC9: 2A 2A 2A 
  3221 00:0ACC: 2A 2A 2A 2A  	db	$2A,$2A,$2A,$2A,$2A,$2A,$2A,$2A,$2A,$2A,
                    $2A,$2A,$2A,$2A,$2A
       00:0AD0: 2A 2A 2A 2A 
       00:0AD4: 2A 2A 2A 2A 
       00:0AD8: 2A 2A 2A 
  3222 00:0ADB: 2A 2A 2A 2A  	db	$2A,$2A,$2A,$2A,$2A,$2A,$2A,$2A,$2A,$2A,
                    $2A,$2A,$2A,$2A,$2A
       00:0ADF: 2A 2A 2A 2A 
       00:0AE3: 2A 2A 2A 2A 
       00:0AE7: 2A 2A 2A 
  3223 00:0AEA: 2A 2A 2A 2A  	db	$2A,$2A,$2A,$2A,$2A,$2A,$2A,$2A,$2A,$2A,
                    $2A,$2A,$2A,$2A,$2A
       00:0AEE: 2A 2A 2A 2A 
       00:0AF2: 2A 2A 2A 2A 
       00:0AF6: 2A 2A 2A 
  3224 00:0AF9: 2A 2A 2A 2A  	db	$2A,$2A,$2A,$2A,$2A,$2A,$2A,$2A,$2A,$2A,
                    $2A,$2A,$2A,$2A,$2A
       00:0AFD: 2A 2A 2A 2A 
       00:0B01: 2A 2A 2A 2A 
       00:0B05: 2A 2A 2A 
  3225 00:0B08: 2A 2A 2A 2A  	db	$2A,$2A,$2A,$2A,$2A,$2A,$2A,$2A,$2A,$2A,
                    $2A,$2A,$2A,$2A,$2A
       00:0B0C: 2A 2A 2A 2A 
       00:0B10: 2A 2A 2A 2A 
       00:0B14: 2A 2A 2A 
  3226 00:0B17: 2A 2A 0A 00  	db	$2A,$2A,$0A,$00
  3227 00:0B1B:              	ends
  3228                        ;
  3229                        ;
  3230                        ;/************************************************
                    ****************/
  3231                        ;/*  DumpExpressLoadData() :  Dump le contenue de 
                    l'ExpressLoad. */
  3232                        ;/************************************************
                    ****************/
  3233                        ;
  3234                        ;static void DumpExpressLoadData(struct omf_segmen
                    t *current_segment, FIL *fd)
  3235                        ;{
  3236                        	.line	244
  3237                        	.line	245
  3238                        	LOADER
  3239                        	func
  3240                        	.function	245
  3241                        ~~DumpExpressLoadData:
  3242                        	longa	on
  3243                        	longi	on
  3244 09:E712: 3B           	tsc
  3245 09:E713: 38           	sec
  3246 09:E714: E9 00 00     	sbc	#L65
  Thu Dec  3 2020 22:25                                                Page 74


  3247 09:E717: 1B           	tcs
  3248 09:E718: 0B           	phd
  3249 09:E719: 5B           	tcd
  3250             00000004   current_segment_0	set	4
  3251             00000008   fd_0	set	8
  3252                        	.block	245
  3253                        ;	return;
  3254                        	.sym	current_segment,4,138,6,32,65
  3255                        	.sym	fd,8,138,6,32,104
  3256                        	.line	246
  3257                        L68:
  3258 09:E71A: A5 02        	lda	<L65+2
  3259 09:E71C: 85 0A        	sta	<L65+2+8
  3260 09:E71E: A5 01        	lda	<L65+1
  3261 09:E720: 85 09        	sta	<L65+1+8
  3262 09:E722: 2B           	pld
  3263 09:E723: 3B           	tsc
  3264 09:E724: 18           	clc
  3265 09:E725: 69 08 00     	adc	#L65+8
  3266 09:E728: 1B           	tcs
  3267 09:E729: 6B           	rtl
  3268                        ;}
  3269                        	.line	247
  3270                        	.endblock	247
  3271             00000000   L65	equ	0
  3272             00000001   L66	equ	1
  3273 09:E72A:              	ends
  3274                        	efunc
  3275                        	.endfunc	247,1,0
  3276                        	.line	247
  3277                        ;
  3278                        ;void processHeader00(FIL* fd, struct omf_segment_
                    header* current_header)
  3279                        ;{
  3280                        	.line	249
  3281                        	.line	250
  3282                        	LOADER
  3283                        	xdef	~~processHeader00
  3284                        	func
  3285                        	.function	250
  3286                        ~~processHeader00:
  3287                        	longa	on
  3288                        	longi	on
  3289 09:E72A: 3B           	tsc
  3290 09:E72B: 38           	sec
  3291 09:E72C: E9 04 00     	sbc	#L69
  3292 09:E72F: 1B           	tcs
  3293 09:E730: 0B           	phd
  3294 09:E731: 5B           	tcd
  3295             00000004   fd_0	set	4
  3296             00000008   current_header_0	set	8
  3297                        	.block	250
  3298                        ;	/* Version 0 */
  3299                        ;	f_printf(fd,
  3300                        	.sym	fd,4,138,6,32,104
  3301                        	.sym	current_header,8,138,6,32,64
  3302                        	.line	252
  3303                        ;			"     - Block Count (Segment Hea
  Thu Dec  3 2020 22:25                                                Page 75


                    der size + Segment Body size) :  %06X %d (512 x %04X)\n",
  3304                        ;			current_header->ByteCnt, current
                    _header->ByteCnt,
  3305                        ;			current_header->BlockCnt);
  3306 09:E732: A0 0A 00     	ldy	#$a
  3307 09:E735: B7 0C        	lda	[<L69+current_header_0],Y
  3308 09:E737: 48           	pha
  3309 09:E738: A0 08 00     	ldy	#$8
  3310 09:E73B: B7 0C        	lda	[<L69+current_header_0],Y
  3311 09:E73D: 48           	pha
  3312 09:E73E: A0 0E 00     	ldy	#$e
  3313 09:E741: B7 0C        	lda	[<L69+current_header_0],Y
  3314 09:E743: 48           	pha
  3315 09:E744: A0 0C 00     	ldy	#$c
  3316 09:E747: B7 0C        	lda	[<L69+current_header_0],Y
  3317 09:E749: 48           	pha
  3318 09:E74A: A0 0E 00     	ldy	#$e
  3319 09:E74D: B7 0C        	lda	[<L69+current_header_0],Y
  3320 09:E74F: 48           	pha
  3321 09:E750: A0 0C 00     	ldy	#$c
  3322 09:E753: B7 0C        	lda	[<L69+current_header_0],Y
  3323 09:E755: 48           	pha
  3324 09:E756: F4 xx xx     	pea	#^L64
  3325 09:E759: F4 xx xx     	pea	#<L64
  3326 09:E75C: D4 0A        	pei	<L69+fd_0+2
  3327 09:E75E: D4 08        	pei	<L69+fd_0
  3328 09:E760: F4 16 00     	pea	#22
  3329 09:E763: 22 xx xx xx  	jsl	~~f_printf
  3330                        ;	f_printf(fd,
  3331                        	.line	256
  3332                        ;			"     - Number of 0x00 to add at
                     the end of the Segment Body  :  %06X %d\n",
  3333                        ;			current_header->ResSpc, current_
                    header->ResSpc);
  3334 09:E767: A0 12 00     	ldy	#$12
  3335 09:E76A: B7 0C        	lda	[<L69+current_header_0],Y
  3336 09:E76C: 48           	pha
  3337 09:E76D: A0 10 00     	ldy	#$10
  3338 09:E770: B7 0C        	lda	[<L69+current_header_0],Y
  3339 09:E772: 48           	pha
  3340 09:E773: A0 12 00     	ldy	#$12
  3341 09:E776: B7 0C        	lda	[<L69+current_header_0],Y
  3342 09:E778: 48           	pha
  3343 09:E779: A0 10 00     	ldy	#$10
  3344 09:E77C: B7 0C        	lda	[<L69+current_header_0],Y
  3345 09:E77E: 48           	pha
  3346 09:E77F: F4 xx xx     	pea	#^L64+86
  3347 09:E782: F4 xx xx     	pea	#<L64+86
  3348 09:E785: D4 0A        	pei	<L69+fd_0+2
  3349 09:E787: D4 08        	pei	<L69+fd_0
  3350 09:E789: F4 12 00     	pea	#18
  3351 09:E78C: 22 xx xx xx  	jsl	~~f_printf
  3352                        ;	f_printf(fd,
  3353                        	.line	259
  3354                        ;			"     - Size of the Segment once
                     loaded in Memory             :  %06X %d\n",
  3355                        ;			current_header->Length, current_
                    header->Length);
  Thu Dec  3 2020 22:25                                                Page 76


  3356 09:E790: A0 16 00     	ldy	#$16
  3357 09:E793: B7 0C        	lda	[<L69+current_header_0],Y
  3358 09:E795: 48           	pha
  3359 09:E796: A0 14 00     	ldy	#$14
  3360 09:E799: B7 0C        	lda	[<L69+current_header_0],Y
  3361 09:E79B: 48           	pha
  3362 09:E79C: A0 16 00     	ldy	#$16
  3363 09:E79F: B7 0C        	lda	[<L69+current_header_0],Y
  3364 09:E7A1: 48           	pha
  3365 09:E7A2: A0 14 00     	ldy	#$14
  3366 09:E7A5: B7 0C        	lda	[<L69+current_header_0],Y
  3367 09:E7A7: 48           	pha
  3368 09:E7A8: F4 xx xx     	pea	#^L64+159
  3369 09:E7AB: F4 xx xx     	pea	#<L64+159
  3370 09:E7AE: D4 0A        	pei	<L69+fd_0+2
  3371 09:E7B0: D4 08        	pei	<L69+fd_0
  3372 09:E7B2: F4 12 00     	pea	#18
  3373 09:E7B5: 22 xx xx xx  	jsl	~~f_printf
  3374                        ;	f_printf(fd,
  3375                        	.line	262
  3376                        ;			"     - Segment Type + Segment A
                    ttributes                     :    %02X = %s\n",
  3377                        ;			current_header->Type, GetSegment
                    Type(current_header->Type, 0));
  3378 09:E7B9: F4 00 00     	pea	#<$0
  3379 09:E7BC: A0 18 00     	ldy	#$18
  3380 09:E7BF: B7 0C        	lda	[<L69+current_header_0],Y
  3381 09:E7C1: 48           	pha
  3382 09:E7C2: 22 0D F0 09  	jsl	~~GetSegmentType
  3383 09:E7C6: 85 01        	sta	<R0
  3384 09:E7C8: 86 03        	stx	<R0+2
  3385 09:E7CA: DA           	phx
  3386 09:E7CB: 48           	pha
  3387 09:E7CC: A0 18 00     	ldy	#$18
  3388 09:E7CF: B7 0C        	lda	[<L69+current_header_0],Y
  3389 09:E7D1: 29 FF 00     	and	#$ff
  3390 09:E7D4: 48           	pha
  3391 09:E7D5: F4 xx xx     	pea	#^L64+232
  3392 09:E7D8: F4 xx xx     	pea	#<L64+232
  3393 09:E7DB: D4 0A        	pei	<L69+fd_0+2
  3394 09:E7DD: D4 08        	pei	<L69+fd_0
  3395 09:E7DF: F4 10 00     	pea	#16
  3396 09:E7E2: 22 xx xx xx  	jsl	~~f_printf
  3397                        ;	f_printf(fd,
  3398                        	.line	265
  3399                        ;			"     - Label Length (usually se
                    t to 0x00 or 0x0A)            :      %02X\n",
  3400                        ;			current_header->LabLen);
  3401 09:E7E6: A0 1A 00     	ldy	#$1a
  3402 09:E7E9: B7 0C        	lda	[<L69+current_header_0],Y
  3403 09:E7EB: 29 FF 00     	and	#$ff
  3404 09:E7EE: 48           	pha
  3405 09:E7EF: F4 xx xx     	pea	#^L64+309
  3406 09:E7F2: F4 xx xx     	pea	#<L64+309
  3407 09:E7F5: D4 0A        	pei	<L69+fd_0+2
  3408 09:E7F7: D4 08        	pei	<L69+fd_0
  3409 09:E7F9: F4 0C 00     	pea	#12
  3410 09:E7FC: 22 xx xx xx  	jsl	~~f_printf
  Thu Dec  3 2020 22:25                                                Page 77


  3411                        ;	f_printf(fd,
  3412                        	.line	268
  3413                        ;			"     - Number Length (usually s
                    et to 4 bytes)                :      %02X\n",
  3414                        ;			current_header->NumLen);
  3415 09:E800: A0 1B 00     	ldy	#$1b
  3416 09:E803: B7 0C        	lda	[<L69+current_header_0],Y
  3417 09:E805: 29 FF 00     	and	#$ff
  3418 09:E808: 48           	pha
  3419 09:E809: F4 xx xx     	pea	#^L64+383
  3420 09:E80C: F4 xx xx     	pea	#<L64+383
  3421 09:E80F: D4 0A        	pei	<L69+fd_0+2
  3422 09:E811: D4 08        	pei	<L69+fd_0
  3423 09:E813: F4 0C 00     	pea	#12
  3424 09:E816: 22 xx xx xx  	jsl	~~f_printf
  3425                        ;	f_printf(fd,
  3426                        	.line	271
  3427                        ;			"     - Segment OMF Version (sho
                    uld be 0x01 for 1)            :      %02X\n",
  3428                        ;			current_header->Version);
  3429 09:E81A: A0 1C 00     	ldy	#$1c
  3430 09:E81D: B7 0C        	lda	[<L69+current_header_0],Y
  3431 09:E81F: 29 FF 00     	and	#$ff
  3432 09:E822: 48           	pha
  3433 09:E823: F4 xx xx     	pea	#^L64+457
  3434 09:E826: F4 xx xx     	pea	#<L64+457
  3435 09:E829: D4 0A        	pei	<L69+fd_0+2
  3436 09:E82B: D4 08        	pei	<L69+fd_0
  3437 09:E82D: F4 0C 00     	pea	#12
  3438 09:E830: 22 xx xx xx  	jsl	~~f_printf
  3439                        ;	f_printf(fd,
  3440                        	.line	274
  3441                        ;			"     - Bank Size (64 KB for Cod
                    e, 0-64 KB for Data)          :  %06X %d%s\n",
  3442                        ;			current_header->BankSize, curren
                    t_header->BankSize,
  3443                        ;			(current_header->BankSize == 0) 
                    ?
  3444                        ;					" = Segment can 
                    cross bank boundaries" : "");
  3445 09:E834: A0 1D 00     	ldy	#$1d
  3446 09:E837: B7 0C        	lda	[<L69+current_header_0],Y
  3447 09:E839: A0 1F 00     	ldy	#$1f
  3448 09:E83C: 17 0C        	ora	[<L69+current_header_0],Y
  3449 09:E83E: F0 03        	beq	L73
  3450 09:E840: 82 09 00     	brl	L72
  3451                        L73:
  3452 09:E843: A9 xx xx     	lda	#^L64+606
  3453 09:E846: AA           	tax
  3454 09:E847: A9 xx xx     	lda	#<L64+606
  3455 09:E84A: 80 07        	bra	L74
  3456                        L72:
  3457 09:E84C: A9 xx xx     	lda	#^L64+643
  3458 09:E84F: AA           	tax
  3459 09:E850: A9 xx xx     	lda	#<L64+643
  3460                        L74:
  3461 09:E853: 85 01        	sta	<R0
  3462 09:E855: 86 03        	stx	<R0+2
  Thu Dec  3 2020 22:25                                                Page 78


  3463 09:E857: D4 03        	pei	<R0+2
  3464 09:E859: D4 01        	pei	<R0
  3465 09:E85B: A0 1F 00     	ldy	#$1f
  3466 09:E85E: B7 0C        	lda	[<L69+current_header_0],Y
  3467 09:E860: 48           	pha
  3468 09:E861: A0 1D 00     	ldy	#$1d
  3469 09:E864: B7 0C        	lda	[<L69+current_header_0],Y
  3470 09:E866: 48           	pha
  3471 09:E867: A0 1F 00     	ldy	#$1f
  3472 09:E86A: B7 0C        	lda	[<L69+current_header_0],Y
  3473 09:E86C: 48           	pha
  3474 09:E86D: A0 1D 00     	ldy	#$1d
  3475 09:E870: B7 0C        	lda	[<L69+current_header_0],Y
  3476 09:E872: 48           	pha
  3477 09:E873: F4 xx xx     	pea	#^L64+531
  3478 09:E876: F4 xx xx     	pea	#<L64+531
  3479 09:E879: D4 0A        	pei	<L69+fd_0+2
  3480 09:E87B: D4 08        	pei	<L69+fd_0
  3481 09:E87D: F4 16 00     	pea	#22
  3482 09:E880: 22 xx xx xx  	jsl	~~f_printf
  3483                        ;	f_printf(fd,
  3484                        	.line	279
  3485                        ;			"     - Org Address to load the 
                    Segment (0x0000 = anywhere)   :  %06X%s\n",
  3486                        ;			current_header->Org,
  3487                        ;			(current_header->Org == 0) ? "" 
                    : " > Beware, unusual value <");
  3488 09:E884: A0 25 00     	ldy	#$25
  3489 09:E887: B7 0C        	lda	[<L69+current_header_0],Y
  3490 09:E889: A0 27 00     	ldy	#$27
  3491 09:E88C: 17 0C        	ora	[<L69+current_header_0],Y
  3492 09:E88E: F0 03        	beq	L76
  3493 09:E890: 82 09 00     	brl	L75
  3494                        L76:
  3495 09:E893: A9 xx xx     	lda	#^L64+716
  3496 09:E896: AA           	tax
  3497 09:E897: A9 xx xx     	lda	#<L64+716
  3498 09:E89A: 80 07        	bra	L77
  3499                        L75:
  3500 09:E89C: A9 xx xx     	lda	#^L64+717
  3501 09:E89F: AA           	tax
  3502 09:E8A0: A9 xx xx     	lda	#<L64+717
  3503                        L77:
  3504 09:E8A3: 85 01        	sta	<R0
  3505 09:E8A5: 86 03        	stx	<R0+2
  3506 09:E8A7: D4 03        	pei	<R0+2
  3507 09:E8A9: D4 01        	pei	<R0
  3508 09:E8AB: A0 27 00     	ldy	#$27
  3509 09:E8AE: B7 0C        	lda	[<L69+current_header_0],Y
  3510 09:E8B0: 48           	pha
  3511 09:E8B1: A0 25 00     	ldy	#$25
  3512 09:E8B4: B7 0C        	lda	[<L69+current_header_0],Y
  3513 09:E8B6: 48           	pha
  3514 09:E8B7: F4 xx xx     	pea	#^L64+644
  3515 09:E8BA: F4 xx xx     	pea	#<L64+644
  3516 09:E8BD: D4 0A        	pei	<L69+fd_0+2
  3517 09:E8BF: D4 08        	pei	<L69+fd_0
  3518 09:E8C1: F4 12 00     	pea	#18
  Thu Dec  3 2020 22:25                                                Page 79


  3519 09:E8C4: 22 xx xx xx  	jsl	~~f_printf
  3520                        ;	f_printf(fd,
  3521                        	.line	283
  3522                        ;			"     - Boundary for Segment Ali
                    gnment (0, 0x100 or 0x010000) :  %06X = %s\n",
  3523                        ;			current_header->Align, GetSegmen
                    tAlign(current_header->Align));
  3524 09:E8C8: A0 2B 00     	ldy	#$2b
  3525 09:E8CB: B7 0C        	lda	[<L69+current_header_0],Y
  3526 09:E8CD: 48           	pha
  3527 09:E8CE: A0 29 00     	ldy	#$29
  3528 09:E8D1: B7 0C        	lda	[<L69+current_header_0],Y
  3529 09:E8D3: 48           	pha
  3530 09:E8D4: 22 45 F4 09  	jsl	~~GetSegmentAlign
  3531 09:E8D8: 85 01        	sta	<R0
  3532 09:E8DA: 86 03        	stx	<R0+2
  3533 09:E8DC: DA           	phx
  3534 09:E8DD: 48           	pha
  3535 09:E8DE: A0 2B 00     	ldy	#$2b
  3536 09:E8E1: B7 0C        	lda	[<L69+current_header_0],Y
  3537 09:E8E3: 48           	pha
  3538 09:E8E4: A0 29 00     	ldy	#$29
  3539 09:E8E7: B7 0C        	lda	[<L69+current_header_0],Y
  3540 09:E8E9: 48           	pha
  3541 09:E8EA: F4 xx xx     	pea	#^L64+744
  3542 09:E8ED: F4 xx xx     	pea	#<L64+744
  3543 09:E8F0: D4 0A        	pei	<L69+fd_0+2
  3544 09:E8F2: D4 08        	pei	<L69+fd_0
  3545 09:E8F4: F4 12 00     	pea	#18
  3546 09:E8F7: 22 xx xx xx  	jsl	~~f_printf
  3547                        ;	f_printf(fd,
  3548                        	.line	286
  3549                        ;			"     - Order of the bytes in a 
                    Number (0x00 for the IIgs)    :      %02X\n",
  3550                        ;			current_header->NumSEx);
  3551 09:E8FB: A0 2D 00     	ldy	#$2d
  3552 09:E8FE: B7 0C        	lda	[<L69+current_header_0],Y
  3553 09:E900: 29 FF 00     	and	#$ff
  3554 09:E903: 48           	pha
  3555 09:E904: F4 xx xx     	pea	#^L64+819
  3556 09:E907: F4 xx xx     	pea	#<L64+819
  3557 09:E90A: D4 0A        	pei	<L69+fd_0+2
  3558 09:E90C: D4 08        	pei	<L69+fd_0
  3559 09:E90E: F4 0C 00     	pea	#12
  3560 09:E911: 22 xx xx xx  	jsl	~~f_printf
  3561                        ;	f_printf(fd,
  3562                        	.line	289
  3563                        ;			"     - Undefined Byte #1 (usual
                    ly set to 0x00)               :      %02X\n",
  3564                        ;			current_header->undefine_1);
  3565 09:E915: A0 19 00     	ldy	#$19
  3566 09:E918: B7 0C        	lda	[<L69+current_header_0],Y
  3567 09:E91A: 29 FF 00     	and	#$ff
  3568 09:E91D: 48           	pha
  3569 09:E91E: F4 xx xx     	pea	#^L64+893
  3570 09:E921: F4 xx xx     	pea	#<L64+893
  3571 09:E924: D4 0A        	pei	<L69+fd_0+2
  3572 09:E926: D4 08        	pei	<L69+fd_0
  Thu Dec  3 2020 22:25                                                Page 80


  3573 09:E928: F4 0C 00     	pea	#12
  3574 09:E92B: 22 xx xx xx  	jsl	~~f_printf
  3575                        ;	f_printf(fd,
  3576                        	.line	292
  3577                        ;			"     - Undefined Byte #2 (usual
                    ly set to 0x00)               :      %02X\n",
  3578                        ;			current_header->undefine_2);
  3579 09:E92F: A0 23 00     	ldy	#$23
  3580 09:E932: B7 0C        	lda	[<L69+current_header_0],Y
  3581 09:E934: 29 FF 00     	and	#$ff
  3582 09:E937: 48           	pha
  3583 09:E938: F4 xx xx     	pea	#^L64+967
  3584 09:E93B: F4 xx xx     	pea	#<L64+967
  3585 09:E93E: D4 0A        	pei	<L69+fd_0+2
  3586 09:E940: D4 08        	pei	<L69+fd_0
  3587 09:E942: F4 0C 00     	pea	#12
  3588 09:E945: 22 xx xx xx  	jsl	~~f_printf
  3589                        ;	f_printf(fd,
  3590                        	.line	295
  3591                        ;			"     - Undefined Byte #3 (usual
                    ly set to 0x00)               :      %02X\n",
  3592                        ;			current_header->undefine_3);
  3593 09:E949: A0 24 00     	ldy	#$24
  3594 09:E94C: B7 0C        	lda	[<L69+current_header_0],Y
  3595 09:E94E: 29 FF 00     	and	#$ff
  3596 09:E951: 48           	pha
  3597 09:E952: F4 xx xx     	pea	#^L64+1041
  3598 09:E955: F4 xx xx     	pea	#<L64+1041
  3599 09:E958: D4 0A        	pei	<L69+fd_0+2
  3600 09:E95A: D4 08        	pei	<L69+fd_0
  3601 09:E95C: F4 0C 00     	pea	#12
  3602 09:E95F: 22 xx xx xx  	jsl	~~f_printf
  3603                        ;	f_printf(fd,
  3604                        	.line	298
  3605                        ;			"     - Undefined Byte #4 (usual
                    ly set to 0x00)               :      %02X\n",
  3606                        ;			current_header->undefine_4);
  3607 09:E963: A0 2F 00     	ldy	#$2f
  3608 09:E966: B7 0C        	lda	[<L69+current_header_0],Y
  3609 09:E968: 29 FF 00     	and	#$ff
  3610 09:E96B: 48           	pha
  3611 09:E96C: F4 xx xx     	pea	#^L64+1115
  3612 09:E96F: F4 xx xx     	pea	#<L64+1115
  3613 09:E972: D4 0A        	pei	<L69+fd_0+2
  3614 09:E974: D4 08        	pei	<L69+fd_0
  3615 09:E976: F4 0C 00     	pea	#12
  3616 09:E979: 22 xx xx xx  	jsl	~~f_printf
  3617                        ;	f_printf(fd,
  3618                        	.line	301
  3619                        ;			"     - Undefined Byte #5 (usual
                    ly set to 0x00)               :      %02X\n",
  3620                        ;			current_header->undefine_5);
  3621 09:E97D: A0 3C 0A     	ldy	#$a3c
  3622 09:E980: B7 0C        	lda	[<L69+current_header_0],Y
  3623 09:E982: 29 FF 00     	and	#$ff
  3624 09:E985: 48           	pha
  3625 09:E986: F4 xx xx     	pea	#^L64+1189
  3626 09:E989: F4 xx xx     	pea	#<L64+1189
  Thu Dec  3 2020 22:25                                                Page 81


  3627 09:E98C: D4 0A        	pei	<L69+fd_0+2
  3628 09:E98E: D4 08        	pei	<L69+fd_0
  3629 09:E990: F4 0C 00     	pea	#12
  3630 09:E993: 22 xx xx xx  	jsl	~~f_printf
  3631                        ;	f_printf(fd,
  3632                        	.line	304
  3633                        ;			"     - Undefined Byte #6 (usual
                    ly set to 0x00)               :      %02X\n",
  3634                        ;			current_header->undefine_6);
  3635 09:E997: A0 3D 0A     	ldy	#$a3d
  3636 09:E99A: B7 0C        	lda	[<L69+current_header_0],Y
  3637 09:E99C: 29 FF 00     	and	#$ff
  3638 09:E99F: 48           	pha
  3639 09:E9A0: F4 xx xx     	pea	#^L64+1263
  3640 09:E9A3: F4 xx xx     	pea	#<L64+1263
  3641 09:E9A6: D4 0A        	pei	<L69+fd_0+2
  3642 09:E9A8: D4 08        	pei	<L69+fd_0
  3643 09:E9AA: F4 0C 00     	pea	#12
  3644 09:E9AD: 22 xx xx xx  	jsl	~~f_printf
  3645                        ;	f_printf(fd,
  3646                        	.line	307
  3647                        ;			"     - Undefined Byte #7 (usual
                    ly set to 0x00)               :      %02X\n",
  3648                        ;			current_header->undefine_7);
  3649 09:E9B1: A0 3E 0A     	ldy	#$a3e
  3650 09:E9B4: B7 0C        	lda	[<L69+current_header_0],Y
  3651 09:E9B6: 29 FF 00     	and	#$ff
  3652 09:E9B9: 48           	pha
  3653 09:E9BA: F4 xx xx     	pea	#^L64+1337
  3654 09:E9BD: F4 xx xx     	pea	#<L64+1337
  3655 09:E9C0: D4 0A        	pei	<L69+fd_0+2
  3656 09:E9C2: D4 08        	pei	<L69+fd_0
  3657 09:E9C4: F4 0C 00     	pea	#12
  3658 09:E9C7: 22 xx xx xx  	jsl	~~f_printf
  3659                        ;	f_printf(fd,
  3660                        	.line	310
  3661                        ;			"     - Segment Name            
                                                  :  '%s'\n\n",
  3662                        ;			current_header->SegName);
  3663 09:E9CB: 18           	clc
  3664 09:E9CC: A9 3C 09     	lda	#$93c
  3665 09:E9CF: 65 0C        	adc	<L69+current_header_0
  3666 09:E9D1: 85 01        	sta	<R0
  3667 09:E9D3: A9 00 00     	lda	#$0
  3668 09:E9D6: 65 0E        	adc	<L69+current_header_0+2
  3669 09:E9D8: 85 03        	sta	<R0+2
  3670 09:E9DA: D4 03        	pei	<R0+2
  3671 09:E9DC: D4 01        	pei	<R0
  3672 09:E9DE: F4 xx xx     	pea	#^L64+1411
  3673 09:E9E1: F4 xx xx     	pea	#<L64+1411
  3674 09:E9E4: D4 0A        	pei	<L69+fd_0+2
  3675 09:E9E6: D4 08        	pei	<L69+fd_0
  3676 09:E9E8: F4 0E 00     	pea	#14
  3677 09:E9EB: 22 xx xx xx  	jsl	~~f_printf
  3678                        ;}
  3679                        	.line	313
  3680                        L78:
  3681 09:E9EF: A5 06        	lda	<L69+2
  Thu Dec  3 2020 22:25                                                Page 82


  3682 09:E9F1: 85 0E        	sta	<L69+2+8
  3683 09:E9F3: A5 05        	lda	<L69+1
  3684 09:E9F5: 85 0D        	sta	<L69+1+8
  3685 09:E9F7: 2B           	pld
  3686 09:E9F8: 3B           	tsc
  3687 09:E9F9: 18           	clc
  3688 09:E9FA: 69 0C 00     	adc	#L69+8
  3689 09:E9FD: 1B           	tcs
  3690 09:E9FE: 6B           	rtl
  3691                        	.endblock	313
  3692             00000004   L69	equ	4
  3693             00000005   L70	equ	5
  3694 09:E9FF:              	ends
  3695                        	efunc
  3696                        	.endfunc	313,5,4
  3697                        	.line	313
  3698                        	data
  3699                        L64:
  3700 00:0B1B: 20 20 20 20  	db	$20,$20,$20,$20,$20,$2D,$20,$42,$6C,$6F,
                    $63,$6B,$20,$43,$6F
       00:0B1F: 20 2D 20 42 
       00:0B23: 6C 6F 63 6B 
       00:0B27: 20 43 6F 
  3701 00:0B2A: 75 6E 74 20  	db	$75,$6E,$74,$20,$28,$53,$65,$67,$6D,$65,
                    $6E,$74,$20,$48,$65
       00:0B2E: 28 53 65 67 
       00:0B32: 6D 65 6E 74 
       00:0B36: 20 48 65 
  3702 00:0B39: 61 64 65 72  	db	$61,$64,$65,$72,$20,$73,$69,$7A,$65,$20,
                    $2B,$20,$53,$65,$67
       00:0B3D: 20 73 69 7A 
       00:0B41: 65 20 2B 20 
       00:0B45: 53 65 67 
  3703 00:0B48: 6D 65 6E 74  	db	$6D,$65,$6E,$74,$20,$42,$6F,$64,$79,$20,
                    $73,$69,$7A,$65,$29
       00:0B4C: 20 42 6F 64 
       00:0B50: 79 20 73 69 
       00:0B54: 7A 65 29 
  3704 00:0B57: 20 3A 20 20  	db	$20,$3A,$20,$20,$25,$30,$36,$58,$20,$25,
                    $64,$20,$28,$35,$31
       00:0B5B: 25 30 36 58 
       00:0B5F: 20 25 64 20 
       00:0B63: 28 35 31 
  3705 00:0B66: 32 20 78 20  	db	$32,$20,$78,$20,$25,$30,$34,$58,$29,$0A,
                    $00,$20,$20,$20,$20
       00:0B6A: 25 30 34 58 
       00:0B6E: 29 0A 00 20 
       00:0B72: 20 20 20 
  3706 00:0B75: 20 2D 20 4E  	db	$20,$2D,$20,$4E,$75,$6D,$62,$65,$72,$20,
                    $6F,$66,$20,$30,$78
       00:0B79: 75 6D 62 65 
       00:0B7D: 72 20 6F 66 
       00:0B81: 20 30 78 
  3707 00:0B84: 30 30 20 74  	db	$30,$30,$20,$74,$6F,$20,$61,$64,$64,$20,
                    $61,$74,$20,$74,$68
       00:0B88: 6F 20 61 64 
       00:0B8C: 64 20 61 74 
       00:0B90: 20 74 68 
  Thu Dec  3 2020 22:25                                                Page 83


  3708 00:0B93: 65 20 65 6E  	db	$65,$20,$65,$6E,$64,$20,$6F,$66,$20,$74,
                    $68,$65,$20,$53,$65
       00:0B97: 64 20 6F 66 
       00:0B9B: 20 74 68 65 
       00:0B9F: 20 53 65 
  3709 00:0BA2: 67 6D 65 6E  	db	$67,$6D,$65,$6E,$74,$20,$42,$6F,$64,$79,
                    $20,$20,$3A,$20,$20
       00:0BA6: 74 20 42 6F 
       00:0BAA: 64 79 20 20 
       00:0BAE: 3A 20 20 
  3710 00:0BB1: 25 30 36 58  	db	$25,$30,$36,$58,$20,$25,$64,$0A,$00,$20,
                    $20,$20,$20,$20,$2D
       00:0BB5: 20 25 64 0A 
       00:0BB9: 00 20 20 20 
       00:0BBD: 20 20 2D 
  3711 00:0BC0: 20 53 69 7A  	db	$20,$53,$69,$7A,$65,$20,$6F,$66,$20,$74,
                    $68,$65,$20,$53,$65
       00:0BC4: 65 20 6F 66 
       00:0BC8: 20 74 68 65 
       00:0BCC: 20 53 65 
  3712 00:0BCF: 67 6D 65 6E  	db	$67,$6D,$65,$6E,$74,$20,$6F,$6E,$63,$65,
                    $20,$6C,$6F,$61,$64
       00:0BD3: 74 20 6F 6E 
       00:0BD7: 63 65 20 6C 
       00:0BDB: 6F 61 64 
  3713 00:0BDE: 65 64 20 69  	db	$65,$64,$20,$69,$6E,$20,$4D,$65,$6D,$6F,
                    $72,$79,$20,$20,$20
       00:0BE2: 6E 20 4D 65 
       00:0BE6: 6D 6F 72 79 
       00:0BEA: 20 20 20 
  3714 00:0BED: 20 20 20 20  	db	$20,$20,$20,$20,$20,$20,$20,$20,$20,$20,
                    $3A,$20,$20,$25,$30
       00:0BF1: 20 20 20 20 
       00:0BF5: 20 20 3A 20 
       00:0BF9: 20 25 30 
  3715 00:0BFC: 36 58 20 25  	db	$36,$58,$20,$25,$64,$0A,$00,$20,$20,$20,
                    $20,$20,$2D,$20,$53
       00:0C00: 64 0A 00 20 
       00:0C04: 20 20 20 20 
       00:0C08: 2D 20 53 
  3716 00:0C0B: 65 67 6D 65  	db	$65,$67,$6D,$65,$6E,$74,$20,$54,$79,$70,
                    $65,$20,$2B,$20,$53
       00:0C0F: 6E 74 20 54 
       00:0C13: 79 70 65 20 
       00:0C17: 2B 20 53 
  3717 00:0C1A: 65 67 6D 65  	db	$65,$67,$6D,$65,$6E,$74,$20,$41,$74,$74,
                    $72,$69,$62,$75,$74
       00:0C1E: 6E 74 20 41 
       00:0C22: 74 74 72 69 
       00:0C26: 62 75 74 
  3718 00:0C29: 65 73 20 20  	db	$65,$73,$20,$20,$20,$20,$20,$20,$20,$20,
                    $20,$20,$20,$20,$20
       00:0C2D: 20 20 20 20 
       00:0C31: 20 20 20 20 
       00:0C35: 20 20 20 
  3719 00:0C38: 20 20 20 20  	db	$20,$20,$20,$20,$20,$20,$20,$20,$3A,$20,
                    $20,$20,$20,$25,$30
       00:0C3C: 20 20 20 20 
  Thu Dec  3 2020 22:25                                                Page 84


       00:0C40: 3A 20 20 20 
       00:0C44: 20 25 30 
  3720 00:0C47: 32 58 20 3D  	db	$32,$58,$20,$3D,$20,$25,$73,$0A,$00,$20,
                    $20,$20,$20,$20,$2D
       00:0C4B: 20 25 73 0A 
       00:0C4F: 00 20 20 20 
       00:0C53: 20 20 2D 
  3721 00:0C56: 20 4C 61 62  	db	$20,$4C,$61,$62,$65,$6C,$20,$4C,$65,$6E,
                    $67,$74,$68,$20,$28
       00:0C5A: 65 6C 20 4C 
       00:0C5E: 65 6E 67 74 
       00:0C62: 68 20 28 
  3722 00:0C65: 75 73 75 61  	db	$75,$73,$75,$61,$6C,$6C,$79,$20,$73,$65,
                    $74,$20,$74,$6F,$20
       00:0C69: 6C 6C 79 20 
       00:0C6D: 73 65 74 20 
       00:0C71: 74 6F 20 
  3723 00:0C74: 30 78 30 30  	db	$30,$78,$30,$30,$20,$6F,$72,$20,$30,$78,
                    $30,$41,$29,$20,$20
       00:0C78: 20 6F 72 20 
       00:0C7C: 30 78 30 41 
       00:0C80: 29 20 20 
  3724 00:0C83: 20 20 20 20  	db	$20,$20,$20,$20,$20,$20,$20,$20,$20,$20,
                    $3A,$20,$20,$20,$20
       00:0C87: 20 20 20 20 
       00:0C8B: 20 20 3A 20 
       00:0C8F: 20 20 20 
  3725 00:0C92: 20 20 25 30  	db	$20,$20,$25,$30,$32,$58,$0A,$00,$20,$20,
                    $20,$20,$20,$2D,$20
       00:0C96: 32 58 0A 00 
       00:0C9A: 20 20 20 20 
       00:0C9E: 20 2D 20 
  3726 00:0CA1: 4E 75 6D 62  	db	$4E,$75,$6D,$62,$65,$72,$20,$4C,$65,$6E,
                    $67,$74,$68,$20,$28
       00:0CA5: 65 72 20 4C 
       00:0CA9: 65 6E 67 74 
       00:0CAD: 68 20 28 
  3727 00:0CB0: 75 73 75 61  	db	$75,$73,$75,$61,$6C,$6C,$79,$20,$73,$65,
                    $74,$20,$74,$6F,$20
       00:0CB4: 6C 6C 79 20 
       00:0CB8: 73 65 74 20 
       00:0CBC: 74 6F 20 
  3728 00:0CBF: 34 20 62 79  	db	$34,$20,$62,$79,$74,$65,$73,$29,$20,$20,
                    $20,$20,$20,$20,$20
       00:0CC3: 74 65 73 29 
       00:0CC7: 20 20 20 20 
       00:0CCB: 20 20 20 
  3729 00:0CCE: 20 20 20 20  	db	$20,$20,$20,$20,$20,$20,$20,$20,$20,$3A,
                    $20,$20,$20,$20,$20
       00:0CD2: 20 20 20 20 
       00:0CD6: 20 3A 20 20 
       00:0CDA: 20 20 20 
  3730 00:0CDD: 20 25 30 32  	db	$20,$25,$30,$32,$58,$0A,$00,$20,$20,$20,
                    $20,$20,$2D,$20,$53
       00:0CE1: 58 0A 00 20 
       00:0CE5: 20 20 20 20 
       00:0CE9: 2D 20 53 
  3731 00:0CEC: 65 67 6D 65  	db	$65,$67,$6D,$65,$6E,$74,$20,$4F,$4D,$46,
  Thu Dec  3 2020 22:25                                                Page 85


                    $20,$56,$65,$72,$73
       00:0CF0: 6E 74 20 4F 
       00:0CF4: 4D 46 20 56 
       00:0CF8: 65 72 73 
  3732 00:0CFB: 69 6F 6E 20  	db	$69,$6F,$6E,$20,$28,$73,$68,$6F,$75,$6C,
                    $64,$20,$62,$65,$20
       00:0CFF: 28 73 68 6F 
       00:0D03: 75 6C 64 20 
       00:0D07: 62 65 20 
  3733 00:0D0A: 30 78 30 31  	db	$30,$78,$30,$31,$20,$66,$6F,$72,$20,$31,
                    $29,$20,$20,$20,$20
       00:0D0E: 20 66 6F 72 
       00:0D12: 20 31 29 20 
       00:0D16: 20 20 20 
  3734 00:0D19: 20 20 20 20  	db	$20,$20,$20,$20,$20,$20,$20,$20,$3A,$20,
                    $20,$20,$20,$20,$20
       00:0D1D: 20 20 20 20 
       00:0D21: 3A 20 20 20 
       00:0D25: 20 20 20 
  3735 00:0D28: 25 30 32 58  	db	$25,$30,$32,$58,$0A,$00,$20,$20,$20,$20,
                    $20,$2D,$20,$42,$61
       00:0D2C: 0A 00 20 20 
       00:0D30: 20 20 20 2D 
       00:0D34: 20 42 61 
  3736 00:0D37: 6E 6B 20 53  	db	$6E,$6B,$20,$53,$69,$7A,$65,$20,$28,$36,
                    $34,$20,$4B,$42,$20
       00:0D3B: 69 7A 65 20 
       00:0D3F: 28 36 34 20 
       00:0D43: 4B 42 20 
  3737 00:0D46: 66 6F 72 20  	db	$66,$6F,$72,$20,$43,$6F,$64,$65,$2C,$20,
                    $30,$2D,$36,$34,$20
       00:0D4A: 43 6F 64 65 
       00:0D4E: 2C 20 30 2D 
       00:0D52: 36 34 20 
  3738 00:0D55: 4B 42 20 66  	db	$4B,$42,$20,$66,$6F,$72,$20,$44,$61,$74,
                    $61,$29,$20,$20,$20
       00:0D59: 6F 72 20 44 
       00:0D5D: 61 74 61 29 
       00:0D61: 20 20 20 
  3739 00:0D64: 20 20 20 20  	db	$20,$20,$20,$20,$20,$20,$20,$3A,$20,$20,
                    $25,$30,$36,$58,$20
       00:0D68: 20 20 20 3A 
       00:0D6C: 20 20 25 30 
       00:0D70: 36 58 20 
  3740 00:0D73: 25 64 25 73  	db	$25,$64,$25,$73,$0A,$00,$20,$3D,$20,$53,
                    $65,$67,$6D,$65,$6E
       00:0D77: 0A 00 20 3D 
       00:0D7B: 20 53 65 67 
       00:0D7F: 6D 65 6E 
  3741 00:0D82: 74 20 63 61  	db	$74,$20,$63,$61,$6E,$20,$63,$72,$6F,$73,
                    $73,$20,$62,$61,$6E
       00:0D86: 6E 20 63 72 
       00:0D8A: 6F 73 73 20 
       00:0D8E: 62 61 6E 
  3742 00:0D91: 6B 20 62 6F  	db	$6B,$20,$62,$6F,$75,$6E,$64,$61,$72,$69,
                    $65,$73,$00,$00,$20
       00:0D95: 75 6E 64 61 
       00:0D99: 72 69 65 73 
  Thu Dec  3 2020 22:25                                                Page 86


       00:0D9D: 00 00 20 
  3743 00:0DA0: 20 20 20 20  	db	$20,$20,$20,$20,$2D,$20,$4F,$72,$67,$20,
                    $41,$64,$64,$72,$65
       00:0DA4: 2D 20 4F 72 
       00:0DA8: 67 20 41 64 
       00:0DAC: 64 72 65 
  3744 00:0DAF: 73 73 20 74  	db	$73,$73,$20,$74,$6F,$20,$6C,$6F,$61,$64,
                    $20,$74,$68,$65,$20
       00:0DB3: 6F 20 6C 6F 
       00:0DB7: 61 64 20 74 
       00:0DBB: 68 65 20 
  3745 00:0DBE: 53 65 67 6D  	db	$53,$65,$67,$6D,$65,$6E,$74,$20,$28,$30,
                    $78,$30,$30,$30,$30
       00:0DC2: 65 6E 74 20 
       00:0DC6: 28 30 78 30 
       00:0DCA: 30 30 30 
  3746 00:0DCD: 20 3D 20 61  	db	$20,$3D,$20,$61,$6E,$79,$77,$68,$65,$72,
                    $65,$29,$20,$20,$20
       00:0DD1: 6E 79 77 68 
       00:0DD5: 65 72 65 29 
       00:0DD9: 20 20 20 
  3747 00:0DDC: 3A 20 20 25  	db	$3A,$20,$20,$25,$30,$36,$58,$25,$73,$0A,
                    $00,$00,$20,$3E,$20
       00:0DE0: 30 36 58 25 
       00:0DE4: 73 0A 00 00 
       00:0DE8: 20 3E 20 
  3748 00:0DEB: 42 65 77 61  	db	$42,$65,$77,$61,$72,$65,$2C,$20,$75,$6E,
                    $75,$73,$75,$61,$6C
       00:0DEF: 72 65 2C 20 
       00:0DF3: 75 6E 75 73 
       00:0DF7: 75 61 6C 
  3749 00:0DFA: 20 76 61 6C  	db	$20,$76,$61,$6C,$75,$65,$20,$3C,$00,$20,
                    $20,$20,$20,$20,$2D
       00:0DFE: 75 65 20 3C 
       00:0E02: 00 20 20 20 
       00:0E06: 20 20 2D 
  3750 00:0E09: 20 42 6F 75  	db	$20,$42,$6F,$75,$6E,$64,$61,$72,$79,$20,
                    $66,$6F,$72,$20,$53
       00:0E0D: 6E 64 61 72 
       00:0E11: 79 20 66 6F 
       00:0E15: 72 20 53 
  3751 00:0E18: 65 67 6D 65  	db	$65,$67,$6D,$65,$6E,$74,$20,$41,$6C,$69,
                    $67,$6E,$6D,$65,$6E
       00:0E1C: 6E 74 20 41 
       00:0E20: 6C 69 67 6E 
       00:0E24: 6D 65 6E 
  3752 00:0E27: 74 20 28 30  	db	$74,$20,$28,$30,$2C,$20,$30,$78,$31,$30,
                    $30,$20,$6F,$72,$20
       00:0E2B: 2C 20 30 78 
       00:0E2F: 31 30 30 20 
       00:0E33: 6F 72 20 
  3753 00:0E36: 30 78 30 31  	db	$30,$78,$30,$31,$30,$30,$30,$30,$29,$20,
                    $3A,$20,$20,$25,$30
       00:0E3A: 30 30 30 30 
       00:0E3E: 29 20 3A 20 
       00:0E42: 20 25 30 
  3754 00:0E45: 36 58 20 3D  	db	$36,$58,$20,$3D,$20,$25,$73,$0A,$00,$20,
                    $20,$20,$20,$20,$2D
  Thu Dec  3 2020 22:25                                                Page 87


       00:0E49: 20 25 73 0A 
       00:0E4D: 00 20 20 20 
       00:0E51: 20 20 2D 
  3755 00:0E54: 20 4F 72 64  	db	$20,$4F,$72,$64,$65,$72,$20,$6F,$66,$20,
                    $74,$68,$65,$20,$62
       00:0E58: 65 72 20 6F 
       00:0E5C: 66 20 74 68 
       00:0E60: 65 20 62 
  3756 00:0E63: 79 74 65 73  	db	$79,$74,$65,$73,$20,$69,$6E,$20,$61,$20,
                    $4E,$75,$6D,$62,$65
       00:0E67: 20 69 6E 20 
       00:0E6B: 61 20 4E 75 
       00:0E6F: 6D 62 65 
  3757 00:0E72: 72 20 28 30  	db	$72,$20,$28,$30,$78,$30,$30,$20,$66,$6F,
                    $72,$20,$74,$68,$65
       00:0E76: 78 30 30 20 
       00:0E7A: 66 6F 72 20 
       00:0E7E: 74 68 65 
  3758 00:0E81: 20 49 49 67  	db	$20,$49,$49,$67,$73,$29,$20,$20,$20,$20,
                    $3A,$20,$20,$20,$20
       00:0E85: 73 29 20 20 
       00:0E89: 20 20 3A 20 
       00:0E8D: 20 20 20 
  3759 00:0E90: 20 20 25 30  	db	$20,$20,$25,$30,$32,$58,$0A,$00,$20,$20,
                    $20,$20,$20,$2D,$20
       00:0E94: 32 58 0A 00 
       00:0E98: 20 20 20 20 
       00:0E9C: 20 2D 20 
  3760 00:0E9F: 55 6E 64 65  	db	$55,$6E,$64,$65,$66,$69,$6E,$65,$64,$20,
                    $42,$79,$74,$65,$20
       00:0EA3: 66 69 6E 65 
       00:0EA7: 64 20 42 79 
       00:0EAB: 74 65 20 
  3761 00:0EAE: 23 31 20 28  	db	$23,$31,$20,$28,$75,$73,$75,$61,$6C,$6C,
                    $79,$20,$73,$65,$74
       00:0EB2: 75 73 75 61 
       00:0EB6: 6C 6C 79 20 
       00:0EBA: 73 65 74 
  3762 00:0EBD: 20 74 6F 20  	db	$20,$74,$6F,$20,$30,$78,$30,$30,$29,$20,
                    $20,$20,$20,$20,$20
       00:0EC1: 30 78 30 30 
       00:0EC5: 29 20 20 20 
       00:0EC9: 20 20 20 
  3763 00:0ECC: 20 20 20 20  	db	$20,$20,$20,$20,$20,$20,$20,$20,$20,$3A,
                    $20,$20,$20,$20,$20
       00:0ED0: 20 20 20 20 
       00:0ED4: 20 3A 20 20 
       00:0ED8: 20 20 20 
  3764 00:0EDB: 20 25 30 32  	db	$20,$25,$30,$32,$58,$0A,$00,$20,$20,$20,
                    $20,$20,$2D,$20,$55
       00:0EDF: 58 0A 00 20 
       00:0EE3: 20 20 20 20 
       00:0EE7: 2D 20 55 
  3765 00:0EEA: 6E 64 65 66  	db	$6E,$64,$65,$66,$69,$6E,$65,$64,$20,$42,
                    $79,$74,$65,$20,$23
       00:0EEE: 69 6E 65 64 
       00:0EF2: 20 42 79 74 
       00:0EF6: 65 20 23 
  Thu Dec  3 2020 22:25                                                Page 88


  3766 00:0EF9: 32 20 28 75  	db	$32,$20,$28,$75,$73,$75,$61,$6C,$6C,$79,
                    $20,$73,$65,$74,$20
       00:0EFD: 73 75 61 6C 
       00:0F01: 6C 79 20 73 
       00:0F05: 65 74 20 
  3767 00:0F08: 74 6F 20 30  	db	$74,$6F,$20,$30,$78,$30,$30,$29,$20,$20,
                    $20,$20,$20,$20,$20
       00:0F0C: 78 30 30 29 
       00:0F10: 20 20 20 20 
       00:0F14: 20 20 20 
  3768 00:0F17: 20 20 20 20  	db	$20,$20,$20,$20,$20,$20,$20,$20,$3A,$20,
                    $20,$20,$20,$20,$20
       00:0F1B: 20 20 20 20 
       00:0F1F: 3A 20 20 20 
       00:0F23: 20 20 20 
  3769 00:0F26: 25 30 32 58  	db	$25,$30,$32,$58,$0A,$00,$20,$20,$20,$20,
                    $20,$2D,$20,$55,$6E
       00:0F2A: 0A 00 20 20 
       00:0F2E: 20 20 20 2D 
       00:0F32: 20 55 6E 
  3770 00:0F35: 64 65 66 69  	db	$64,$65,$66,$69,$6E,$65,$64,$20,$42,$79,
                    $74,$65,$20,$23,$33
       00:0F39: 6E 65 64 20 
       00:0F3D: 42 79 74 65 
       00:0F41: 20 23 33 
  3771 00:0F44: 20 28 75 73  	db	$20,$28,$75,$73,$75,$61,$6C,$6C,$79,$20,
                    $73,$65,$74,$20,$74
       00:0F48: 75 61 6C 6C 
       00:0F4C: 79 20 73 65 
       00:0F50: 74 20 74 
  3772 00:0F53: 6F 20 30 78  	db	$6F,$20,$30,$78,$30,$30,$29,$20,$20,$20,
                    $20,$20,$20,$20,$20
       00:0F57: 30 30 29 20 
       00:0F5B: 20 20 20 20 
       00:0F5F: 20 20 20 
  3773 00:0F62: 20 20 20 20  	db	$20,$20,$20,$20,$20,$20,$20,$3A,$20,$20,
                    $20,$20,$20,$20,$25
       00:0F66: 20 20 20 3A 
       00:0F6A: 20 20 20 20 
       00:0F6E: 20 20 25 
  3774 00:0F71: 30 32 58 0A  	db	$30,$32,$58,$0A,$00,$20,$20,$20,$20,$20,
                    $2D,$20,$55,$6E,$64
       00:0F75: 00 20 20 20 
       00:0F79: 20 20 2D 20 
       00:0F7D: 55 6E 64 
  3775 00:0F80: 65 66 69 6E  	db	$65,$66,$69,$6E,$65,$64,$20,$42,$79,$74,
                    $65,$20,$23,$34,$20
       00:0F84: 65 64 20 42 
       00:0F88: 79 74 65 20 
       00:0F8C: 23 34 20 
  3776 00:0F8F: 28 75 73 75  	db	$28,$75,$73,$75,$61,$6C,$6C,$79,$20,$73,
                    $65,$74,$20,$74,$6F
       00:0F93: 61 6C 6C 79 
       00:0F97: 20 73 65 74 
       00:0F9B: 20 74 6F 
  3777 00:0F9E: 20 30 78 30  	db	$20,$30,$78,$30,$30,$29,$20,$20,$20,$20,
                    $20,$20,$20,$20,$20
       00:0FA2: 30 29 20 20 
  Thu Dec  3 2020 22:25                                                Page 89


       00:0FA6: 20 20 20 20 
       00:0FAA: 20 20 20 
  3778 00:0FAD: 20 20 20 20  	db	$20,$20,$20,$20,$20,$20,$3A,$20,$20,$20,
                    $20,$20,$20,$25,$30
       00:0FB1: 20 20 3A 20 
       00:0FB5: 20 20 20 20 
       00:0FB9: 20 25 30 
  3779 00:0FBC: 32 58 0A 00  	db	$32,$58,$0A,$00,$20,$20,$20,$20,$20,$2D,
                    $20,$55,$6E,$64,$65
       00:0FC0: 20 20 20 20 
       00:0FC4: 20 2D 20 55 
       00:0FC8: 6E 64 65 
  3780 00:0FCB: 66 69 6E 65  	db	$66,$69,$6E,$65,$64,$20,$42,$79,$74,$65,
                    $20,$23,$35,$20,$28
       00:0FCF: 64 20 42 79 
       00:0FD3: 74 65 20 23 
       00:0FD7: 35 20 28 
  3781 00:0FDA: 75 73 75 61  	db	$75,$73,$75,$61,$6C,$6C,$79,$20,$73,$65,
                    $74,$20,$74,$6F,$20
       00:0FDE: 6C 6C 79 20 
       00:0FE2: 73 65 74 20 
       00:0FE6: 74 6F 20 
  3782 00:0FE9: 30 78 30 30  	db	$30,$78,$30,$30,$29,$20,$20,$20,$20,$20,
                    $20,$20,$20,$20,$20
       00:0FED: 29 20 20 20 
       00:0FF1: 20 20 20 20 
       00:0FF5: 20 20 20 
  3783 00:0FF8: 20 20 20 20  	db	$20,$20,$20,$20,$20,$3A,$20,$20,$20,$20,
                    $20,$20,$25,$30,$32
       00:0FFC: 20 3A 20 20 
       00:1000: 20 20 20 20 
       00:1004: 25 30 32 
  3784 00:1007: 58 0A 00 20  	db	$58,$0A,$00,$20,$20,$20,$20,$20,$2D,$20,
                    $55,$6E,$64,$65,$66
       00:100B: 20 20 20 20 
       00:100F: 2D 20 55 6E 
       00:1013: 64 65 66 
  3785 00:1016: 69 6E 65 64  	db	$69,$6E,$65,$64,$20,$42,$79,$74,$65,$20,
                    $23,$36,$20,$28,$75
       00:101A: 20 42 79 74 
       00:101E: 65 20 23 36 
       00:1022: 20 28 75 
  3786 00:1025: 73 75 61 6C  	db	$73,$75,$61,$6C,$6C,$79,$20,$73,$65,$74,
                    $20,$74,$6F,$20,$30
       00:1029: 6C 79 20 73 
       00:102D: 65 74 20 74 
       00:1031: 6F 20 30 
  3787 00:1034: 78 30 30 29  	db	$78,$30,$30,$29,$20,$20,$20,$20,$20,$20,
                    $20,$20,$20,$20,$20
       00:1038: 20 20 20 20 
       00:103C: 20 20 20 20 
       00:1040: 20 20 20 
  3788 00:1043: 20 20 20 20  	db	$20,$20,$20,$20,$3A,$20,$20,$20,$20,$20,
                    $20,$25,$30,$32,$58
       00:1047: 3A 20 20 20 
       00:104B: 20 20 20 25 
       00:104F: 30 32 58 
  3789 00:1052: 0A 00 20 20  	db	$0A,$00,$20,$20,$20,$20,$20,$2D,$20,$55,
  Thu Dec  3 2020 22:25                                                Page 90


                    $6E,$64,$65,$66,$69
       00:1056: 20 20 20 2D 
       00:105A: 20 55 6E 64 
       00:105E: 65 66 69 
  3790 00:1061: 6E 65 64 20  	db	$6E,$65,$64,$20,$42,$79,$74,$65,$20,$23,
                    $37,$20,$28,$75,$73
       00:1065: 42 79 74 65 
       00:1069: 20 23 37 20 
       00:106D: 28 75 73 
  3791 00:1070: 75 61 6C 6C  	db	$75,$61,$6C,$6C,$79,$20,$73,$65,$74,$20,
                    $74,$6F,$20,$30,$78
       00:1074: 79 20 73 65 
       00:1078: 74 20 74 6F 
       00:107C: 20 30 78 
  3792 00:107F: 30 30 29 20  	db	$30,$30,$29,$20,$20,$20,$20,$20,$20,$20,
                    $20,$20,$20,$20,$20
       00:1083: 20 20 20 20 
       00:1087: 20 20 20 20 
       00:108B: 20 20 20 
  3793 00:108E: 20 20 20 3A  	db	$20,$20,$20,$3A,$20,$20,$20,$20,$20,$20,
                    $25,$30,$32,$58,$0A
       00:1092: 20 20 20 20 
       00:1096: 20 20 25 30 
       00:109A: 32 58 0A 
  3794 00:109D: 00 20 20 20  	db	$00,$20,$20,$20,$20,$20,$2D,$20,$53,$65,
                    $67,$6D,$65,$6E,$74
       00:10A1: 20 20 2D 20 
       00:10A5: 53 65 67 6D 
       00:10A9: 65 6E 74 
  3795 00:10AC: 20 4E 61 6D  	db	$20,$4E,$61,$6D,$65,$20,$20,$20,$20,$20,
                    $20,$20,$20,$20,$20
       00:10B0: 65 20 20 20 
       00:10B4: 20 20 20 20 
       00:10B8: 20 20 20 
  3796 00:10BB: 20 20 20 20  	db	$20,$20,$20,$20,$20,$20,$20,$20,$20,$20,
                    $20,$20,$20,$20,$20
       00:10BF: 20 20 20 20 
       00:10C3: 20 20 20 20 
       00:10C7: 20 20 20 
  3797 00:10CA: 20 20 20 20  	db	$20,$20,$20,$20,$20,$20,$20,$20,$20,$20,
                    $20,$20,$20,$20,$20
       00:10CE: 20 20 20 20 
       00:10D2: 20 20 20 20 
       00:10D6: 20 20 20 
  3798 00:10D9: 20 20 3A 20  	db	$20,$20,$3A,$20,$20,$27,$25,$73,$27,$0A,
                    $0A,$00
       00:10DD: 20 27 25 73 
       00:10E1: 27 0A 0A 00 
  3799 00:10E5:              	ends
  3800                        ;
  3801                        ;void processHeader01(FIL* fd, struct omf_segment_
                    header* current_header)
  3802                        ;{
  3803                        	.line	315
  3804                        	.line	316
  3805                        	LOADER
  3806                        	xdef	~~processHeader01
  3807                        	func
  Thu Dec  3 2020 22:25                                                Page 91


  3808                        	.function	316
  3809                        ~~processHeader01:
  3810                        	longa	on
  3811                        	longi	on
  3812 09:E9FF: 3B           	tsc
  3813 09:EA00: 38           	sec
  3814 09:EA01: E9 04 00     	sbc	#L80
  3815 09:EA04: 1B           	tcs
  3816 09:EA05: 0B           	phd
  3817 09:EA06: 5B           	tcd
  3818             00000004   fd_0	set	4
  3819             00000008   current_header_0	set	8
  3820                        	.block	316
  3821                        ;	/* Version 1 */
  3822                        ;	f_printf(fd,
  3823                        	.sym	fd,4,138,6,32,104
  3824                        	.sym	current_header,8,138,6,32,64
  3825                        	.line	318
  3826                        ;			"     - Block Count (Segment Hea
                    der size + Segment Body size) :  %06X %d (512 x %04X)\n",
  3827                        ;			current_header->ByteCnt, current
                    _header->ByteCnt,
  3828                        ;			current_header->BlockCnt);
  3829 09:EA07: A0 0A 00     	ldy	#$a
  3830 09:EA0A: B7 0C        	lda	[<L80+current_header_0],Y
  3831 09:EA0C: 48           	pha
  3832 09:EA0D: A0 08 00     	ldy	#$8
  3833 09:EA10: B7 0C        	lda	[<L80+current_header_0],Y
  3834 09:EA12: 48           	pha
  3835 09:EA13: A0 0E 00     	ldy	#$e
  3836 09:EA16: B7 0C        	lda	[<L80+current_header_0],Y
  3837 09:EA18: 48           	pha
  3838 09:EA19: A0 0C 00     	ldy	#$c
  3839 09:EA1C: B7 0C        	lda	[<L80+current_header_0],Y
  3840 09:EA1E: 48           	pha
  3841 09:EA1F: A0 0E 00     	ldy	#$e
  3842 09:EA22: B7 0C        	lda	[<L80+current_header_0],Y
  3843 09:EA24: 48           	pha
  3844 09:EA25: A0 0C 00     	ldy	#$c
  3845 09:EA28: B7 0C        	lda	[<L80+current_header_0],Y
  3846 09:EA2A: 48           	pha
  3847 09:EA2B: F4 xx xx     	pea	#^L79
  3848 09:EA2E: F4 xx xx     	pea	#<L79
  3849 09:EA31: D4 0A        	pei	<L80+fd_0+2
  3850 09:EA33: D4 08        	pei	<L80+fd_0
  3851 09:EA35: F4 16 00     	pea	#22
  3852 09:EA38: 22 xx xx xx  	jsl	~~f_printf
  3853                        ;	f_printf(fd,
  3854                        	.line	322
  3855                        ;			"     - Number of 0x00 to add at
                     the end of the Segment Body  :  %06X %d\n",
  3856                        ;			current_header->ResSpc, current_
                    header->ResSpc);
  3857 09:EA3C: A0 12 00     	ldy	#$12
  3858 09:EA3F: B7 0C        	lda	[<L80+current_header_0],Y
  3859 09:EA41: 48           	pha
  3860 09:EA42: A0 10 00     	ldy	#$10
  3861 09:EA45: B7 0C        	lda	[<L80+current_header_0],Y
  Thu Dec  3 2020 22:25                                                Page 92


  3862 09:EA47: 48           	pha
  3863 09:EA48: A0 12 00     	ldy	#$12
  3864 09:EA4B: B7 0C        	lda	[<L80+current_header_0],Y
  3865 09:EA4D: 48           	pha
  3866 09:EA4E: A0 10 00     	ldy	#$10
  3867 09:EA51: B7 0C        	lda	[<L80+current_header_0],Y
  3868 09:EA53: 48           	pha
  3869 09:EA54: F4 xx xx     	pea	#^L79+86
  3870 09:EA57: F4 xx xx     	pea	#<L79+86
  3871 09:EA5A: D4 0A        	pei	<L80+fd_0+2
  3872 09:EA5C: D4 08        	pei	<L80+fd_0
  3873 09:EA5E: F4 12 00     	pea	#18
  3874 09:EA61: 22 xx xx xx  	jsl	~~f_printf
  3875                        ;	f_printf(fd,
  3876                        	.line	325
  3877                        ;			"     - Size of the Segment once
                     loaded in Memory             :  %06X %d\n",
  3878                        ;			current_header->Length, current_
                    header->Length);
  3879 09:EA65: A0 16 00     	ldy	#$16
  3880 09:EA68: B7 0C        	lda	[<L80+current_header_0],Y
  3881 09:EA6A: 48           	pha
  3882 09:EA6B: A0 14 00     	ldy	#$14
  3883 09:EA6E: B7 0C        	lda	[<L80+current_header_0],Y
  3884 09:EA70: 48           	pha
  3885 09:EA71: A0 16 00     	ldy	#$16
  3886 09:EA74: B7 0C        	lda	[<L80+current_header_0],Y
  3887 09:EA76: 48           	pha
  3888 09:EA77: A0 14 00     	ldy	#$14
  3889 09:EA7A: B7 0C        	lda	[<L80+current_header_0],Y
  3890 09:EA7C: 48           	pha
  3891 09:EA7D: F4 xx xx     	pea	#^L79+159
  3892 09:EA80: F4 xx xx     	pea	#<L79+159
  3893 09:EA83: D4 0A        	pei	<L80+fd_0+2
  3894 09:EA85: D4 08        	pei	<L80+fd_0
  3895 09:EA87: F4 12 00     	pea	#18
  3896 09:EA8A: 22 xx xx xx  	jsl	~~f_printf
  3897                        ;	f_printf(fd,
  3898                        	.line	328
  3899                        ;			"     - Segment Type + Segment A
                    ttributes                     :    %02X = %s\n",
  3900                        ;			current_header->Type, GetSegment
                    Type(current_header->Type, 0));
  3901 09:EA8E: F4 00 00     	pea	#<$0
  3902 09:EA91: A0 18 00     	ldy	#$18
  3903 09:EA94: B7 0C        	lda	[<L80+current_header_0],Y
  3904 09:EA96: 48           	pha
  3905 09:EA97: 22 0D F0 09  	jsl	~~GetSegmentType
  3906 09:EA9B: 85 01        	sta	<R0
  3907 09:EA9D: 86 03        	stx	<R0+2
  3908 09:EA9F: DA           	phx
  3909 09:EAA0: 48           	pha
  3910 09:EAA1: A0 18 00     	ldy	#$18
  3911 09:EAA4: B7 0C        	lda	[<L80+current_header_0],Y
  3912 09:EAA6: 29 FF 00     	and	#$ff
  3913 09:EAA9: 48           	pha
  3914 09:EAAA: F4 xx xx     	pea	#^L79+232
  3915 09:EAAD: F4 xx xx     	pea	#<L79+232
  Thu Dec  3 2020 22:25                                                Page 93


  3916 09:EAB0: D4 0A        	pei	<L80+fd_0+2
  3917 09:EAB2: D4 08        	pei	<L80+fd_0
  3918 09:EAB4: F4 10 00     	pea	#16
  3919 09:EAB7: 22 xx xx xx  	jsl	~~f_printf
  3920                        ;	f_printf(fd,
  3921                        	.line	331
  3922                        ;			"     - Label Length (usually se
                    t to 0x00 or 0x0A)            :      %02X\n",
  3923                        ;			current_header->LabLen);
  3924 09:EABB: A0 1A 00     	ldy	#$1a
  3925 09:EABE: B7 0C        	lda	[<L80+current_header_0],Y
  3926 09:EAC0: 29 FF 00     	and	#$ff
  3927 09:EAC3: 48           	pha
  3928 09:EAC4: F4 xx xx     	pea	#^L79+309
  3929 09:EAC7: F4 xx xx     	pea	#<L79+309
  3930 09:EACA: D4 0A        	pei	<L80+fd_0+2
  3931 09:EACC: D4 08        	pei	<L80+fd_0
  3932 09:EACE: F4 0C 00     	pea	#12
  3933 09:EAD1: 22 xx xx xx  	jsl	~~f_printf
  3934                        ;	f_printf(fd,
  3935                        	.line	334
  3936                        ;			"     - Number Length (usually s
                    et to 4 bytes)                :      %02X\n",
  3937                        ;			current_header->NumLen);
  3938 09:EAD5: A0 1B 00     	ldy	#$1b
  3939 09:EAD8: B7 0C        	lda	[<L80+current_header_0],Y
  3940 09:EADA: 29 FF 00     	and	#$ff
  3941 09:EADD: 48           	pha
  3942 09:EADE: F4 xx xx     	pea	#^L79+383
  3943 09:EAE1: F4 xx xx     	pea	#<L79+383
  3944 09:EAE4: D4 0A        	pei	<L80+fd_0+2
  3945 09:EAE6: D4 08        	pei	<L80+fd_0
  3946 09:EAE8: F4 0C 00     	pea	#12
  3947 09:EAEB: 22 xx xx xx  	jsl	~~f_printf
  3948                        ;	f_printf(fd,
  3949                        	.line	337
  3950                        ;			"     - Segment OMF Version (sho
                    uld be 0x01 for 1)            :      %02X\n",
  3951                        ;			current_header->Version);
  3952 09:EAEF: A0 1C 00     	ldy	#$1c
  3953 09:EAF2: B7 0C        	lda	[<L80+current_header_0],Y
  3954 09:EAF4: 29 FF 00     	and	#$ff
  3955 09:EAF7: 48           	pha
  3956 09:EAF8: F4 xx xx     	pea	#^L79+457
  3957 09:EAFB: F4 xx xx     	pea	#<L79+457
  3958 09:EAFE: D4 0A        	pei	<L80+fd_0+2
  3959 09:EB00: D4 08        	pei	<L80+fd_0
  3960 09:EB02: F4 0C 00     	pea	#12
  3961 09:EB05: 22 xx xx xx  	jsl	~~f_printf
  3962                        ;	f_printf(fd,
  3963                        	.line	340
  3964                        ;			"     - Bank Size (64 KB for Cod
                    e, 0-64 KB for Data)          :  %06X %d\n",
  3965                        ;			current_header->BankSize, curren
                    t_header->BankSize);
  3966 09:EB09: A0 1F 00     	ldy	#$1f
  3967 09:EB0C: B7 0C        	lda	[<L80+current_header_0],Y
  3968 09:EB0E: 48           	pha
  Thu Dec  3 2020 22:25                                                Page 94


  3969 09:EB0F: A0 1D 00     	ldy	#$1d
  3970 09:EB12: B7 0C        	lda	[<L80+current_header_0],Y
  3971 09:EB14: 48           	pha
  3972 09:EB15: A0 1F 00     	ldy	#$1f
  3973 09:EB18: B7 0C        	lda	[<L80+current_header_0],Y
  3974 09:EB1A: 48           	pha
  3975 09:EB1B: A0 1D 00     	ldy	#$1d
  3976 09:EB1E: B7 0C        	lda	[<L80+current_header_0],Y
  3977 09:EB20: 48           	pha
  3978 09:EB21: F4 xx xx     	pea	#^L79+531
  3979 09:EB24: F4 xx xx     	pea	#<L79+531
  3980 09:EB27: D4 0A        	pei	<L80+fd_0+2
  3981 09:EB29: D4 08        	pei	<L80+fd_0
  3982 09:EB2B: F4 12 00     	pea	#18
  3983 09:EB2E: 22 xx xx xx  	jsl	~~f_printf
  3984                        ;	f_printf(fd,
  3985                        	.line	343
  3986                        ;			"     - Undefined Byte #1 (usual
                    ly set to 0x00)               :      %02X\n",
  3987                        ;			current_header->undefine_1);
  3988 09:EB32: A0 19 00     	ldy	#$19
  3989 09:EB35: B7 0C        	lda	[<L80+current_header_0],Y
  3990 09:EB37: 29 FF 00     	and	#$ff
  3991 09:EB3A: 48           	pha
  3992 09:EB3B: F4 xx xx     	pea	#^L79+604
  3993 09:EB3E: F4 xx xx     	pea	#<L79+604
  3994 09:EB41: D4 0A        	pei	<L80+fd_0+2
  3995 09:EB43: D4 08        	pei	<L80+fd_0
  3996 09:EB45: F4 0C 00     	pea	#12
  3997 09:EB48: 22 xx xx xx  	jsl	~~f_printf
  3998                        ;	f_printf(fd,
  3999                        	.line	346
  4000                        ;			"     - Undefined Byte #2 (usual
                    ly set to 0x00)               :      %02X\n",
  4001                        ;			current_header->undefine_2);
  4002 09:EB4C: A0 23 00     	ldy	#$23
  4003 09:EB4F: B7 0C        	lda	[<L80+current_header_0],Y
  4004 09:EB51: 29 FF 00     	and	#$ff
  4005 09:EB54: 48           	pha
  4006 09:EB55: F4 xx xx     	pea	#^L79+678
  4007 09:EB58: F4 xx xx     	pea	#<L79+678
  4008 09:EB5B: D4 0A        	pei	<L80+fd_0+2
  4009 09:EB5D: D4 08        	pei	<L80+fd_0
  4010 09:EB5F: F4 0C 00     	pea	#12
  4011 09:EB62: 22 xx xx xx  	jsl	~~f_printf
  4012                        ;	f_printf(fd,
  4013                        	.line	349
  4014                        ;			"     - Undefined Byte #3 (usual
                    ly set to 0x00)               :      %02X\n",
  4015                        ;			current_header->undefine_3);
  4016 09:EB66: A0 24 00     	ldy	#$24
  4017 09:EB69: B7 0C        	lda	[<L80+current_header_0],Y
  4018 09:EB6B: 29 FF 00     	and	#$ff
  4019 09:EB6E: 48           	pha
  4020 09:EB6F: F4 xx xx     	pea	#^L79+752
  4021 09:EB72: F4 xx xx     	pea	#<L79+752
  4022 09:EB75: D4 0A        	pei	<L80+fd_0+2
  4023 09:EB77: D4 08        	pei	<L80+fd_0
  Thu Dec  3 2020 22:25                                                Page 95


  4024 09:EB79: F4 0C 00     	pea	#12
  4025 09:EB7C: 22 xx xx xx  	jsl	~~f_printf
  4026                        ;	f_printf(fd,
  4027                        	.line	352
  4028                        ;			"     - Undefined Byte #4 (usual
                    ly set to 0x00)               :      %02X\n",
  4029                        ;			current_header->undefine_4);
  4030 09:EB80: A0 2F 00     	ldy	#$2f
  4031 09:EB83: B7 0C        	lda	[<L80+current_header_0],Y
  4032 09:EB85: 29 FF 00     	and	#$ff
  4033 09:EB88: 48           	pha
  4034 09:EB89: F4 xx xx     	pea	#^L79+826
  4035 09:EB8C: F4 xx xx     	pea	#<L79+826
  4036 09:EB8F: D4 0A        	pei	<L80+fd_0+2
  4037 09:EB91: D4 08        	pei	<L80+fd_0
  4038 09:EB93: F4 0C 00     	pea	#12
  4039 09:EB96: 22 xx xx xx  	jsl	~~f_printf
  4040                        ;	f_printf(fd,
  4041                        	.line	355
  4042                        ;			"     - Org Address to load the 
                    Segment (0x0000 = anywhere)   :  %06X%s\n",
  4043                        ;			current_header->Org,
  4044                        ;			(current_header->Org == 0) ? "" 
                    : " > Beware, unusual value <");
  4045 09:EB9A: A0 25 00     	ldy	#$25
  4046 09:EB9D: B7 0C        	lda	[<L80+current_header_0],Y
  4047 09:EB9F: A0 27 00     	ldy	#$27
  4048 09:EBA2: 17 0C        	ora	[<L80+current_header_0],Y
  4049 09:EBA4: F0 03        	beq	L84
  4050 09:EBA6: 82 09 00     	brl	L83
  4051                        L84:
  4052 09:EBA9: A9 xx xx     	lda	#^L79+972
  4053 09:EBAC: AA           	tax
  4054 09:EBAD: A9 xx xx     	lda	#<L79+972
  4055 09:EBB0: 80 07        	bra	L85
  4056                        L83:
  4057 09:EBB2: A9 xx xx     	lda	#^L79+973
  4058 09:EBB5: AA           	tax
  4059 09:EBB6: A9 xx xx     	lda	#<L79+973
  4060                        L85:
  4061 09:EBB9: 85 01        	sta	<R0
  4062 09:EBBB: 86 03        	stx	<R0+2
  4063 09:EBBD: D4 03        	pei	<R0+2
  4064 09:EBBF: D4 01        	pei	<R0
  4065 09:EBC1: A0 27 00     	ldy	#$27
  4066 09:EBC4: B7 0C        	lda	[<L80+current_header_0],Y
  4067 09:EBC6: 48           	pha
  4068 09:EBC7: A0 25 00     	ldy	#$25
  4069 09:EBCA: B7 0C        	lda	[<L80+current_header_0],Y
  4070 09:EBCC: 48           	pha
  4071 09:EBCD: F4 xx xx     	pea	#^L79+900
  4072 09:EBD0: F4 xx xx     	pea	#<L79+900
  4073 09:EBD3: D4 0A        	pei	<L80+fd_0+2
  4074 09:EBD5: D4 08        	pei	<L80+fd_0
  4075 09:EBD7: F4 12 00     	pea	#18
  4076 09:EBDA: 22 xx xx xx  	jsl	~~f_printf
  4077                        ;	f_printf(fd,
  4078                        	.line	359
  Thu Dec  3 2020 22:25                                                Page 96


  4079                        ;			"     - Boundary for Segment Ali
                    gnment (0, 0x100 or 0x010000) :  %06X = %s\n",
  4080                        ;			current_header->Align, GetSegmen
                    tAlign(current_header->Align));
  4081 09:EBDE: A0 2B 00     	ldy	#$2b
  4082 09:EBE1: B7 0C        	lda	[<L80+current_header_0],Y
  4083 09:EBE3: 48           	pha
  4084 09:EBE4: A0 29 00     	ldy	#$29
  4085 09:EBE7: B7 0C        	lda	[<L80+current_header_0],Y
  4086 09:EBE9: 48           	pha
  4087 09:EBEA: 22 45 F4 09  	jsl	~~GetSegmentAlign
  4088 09:EBEE: 85 01        	sta	<R0
  4089 09:EBF0: 86 03        	stx	<R0+2
  4090 09:EBF2: DA           	phx
  4091 09:EBF3: 48           	pha
  4092 09:EBF4: A0 2B 00     	ldy	#$2b
  4093 09:EBF7: B7 0C        	lda	[<L80+current_header_0],Y
  4094 09:EBF9: 48           	pha
  4095 09:EBFA: A0 29 00     	ldy	#$29
  4096 09:EBFD: B7 0C        	lda	[<L80+current_header_0],Y
  4097 09:EBFF: 48           	pha
  4098 09:EC00: F4 xx xx     	pea	#^L79+1000
  4099 09:EC03: F4 xx xx     	pea	#<L79+1000
  4100 09:EC06: D4 0A        	pei	<L80+fd_0+2
  4101 09:EC08: D4 08        	pei	<L80+fd_0
  4102 09:EC0A: F4 12 00     	pea	#18
  4103 09:EC0D: 22 xx xx xx  	jsl	~~f_printf
  4104                        ;	f_printf(fd,
  4105                        	.line	362
  4106                        ;			"     - Order of the bytes in a 
                    Number (0x00 for the IIgs)    :      %02X\n",
  4107                        ;			current_header->NumSEx);
  4108 09:EC11: A0 2D 00     	ldy	#$2d
  4109 09:EC14: B7 0C        	lda	[<L80+current_header_0],Y
  4110 09:EC16: 29 FF 00     	and	#$ff
  4111 09:EC19: 48           	pha
  4112 09:EC1A: F4 xx xx     	pea	#^L79+1075
  4113 09:EC1D: F4 xx xx     	pea	#<L79+1075
  4114 09:EC20: D4 0A        	pei	<L80+fd_0+2
  4115 09:EC22: D4 08        	pei	<L80+fd_0
  4116 09:EC24: F4 0C 00     	pea	#12
  4117 09:EC27: 22 xx xx xx  	jsl	~~f_printf
  4118                        ;	f_printf(fd,
  4119                        	.line	365
  4120                        ;			"     - Language Card Bank (usua
                    lly unused)                   :      %02X\n",
  4121                        ;			current_header->LCBank);
  4122 09:EC2B: A0 2E 00     	ldy	#$2e
  4123 09:EC2E: B7 0C        	lda	[<L80+current_header_0],Y
  4124 09:EC30: 29 FF 00     	and	#$ff
  4125 09:EC33: 48           	pha
  4126 09:EC34: F4 xx xx     	pea	#^L79+1149
  4127 09:EC37: F4 xx xx     	pea	#<L79+1149
  4128 09:EC3A: D4 0A        	pei	<L80+fd_0+2
  4129 09:EC3C: D4 08        	pei	<L80+fd_0
  4130 09:EC3E: F4 0C 00     	pea	#12
  4131 09:EC41: 22 xx xx xx  	jsl	~~f_printf
  4132                        ;	f_printf(fd,
  Thu Dec  3 2020 22:25                                                Page 97


  4133                        	.line	368
  4134                        ;			"     - Segment Number (1 to N) 
                                                  :    %04X %d\n",
  4135                        ;			current_header->SegNum, current_
                    header->SegNum);
  4136 09:EC45: A0 30 00     	ldy	#$30
  4137 09:EC48: B7 0C        	lda	[<L80+current_header_0],Y
  4138 09:EC4A: 48           	pha
  4139 09:EC4B: A0 30 00     	ldy	#$30
  4140 09:EC4E: B7 0C        	lda	[<L80+current_header_0],Y
  4141 09:EC50: 48           	pha
  4142 09:EC51: F4 xx xx     	pea	#^L79+1223
  4143 09:EC54: F4 xx xx     	pea	#<L79+1223
  4144 09:EC57: D4 0A        	pei	<L80+fd_0+2
  4145 09:EC59: D4 08        	pei	<L80+fd_0
  4146 09:EC5B: F4 0E 00     	pea	#14
  4147 09:EC5E: 22 xx xx xx  	jsl	~~f_printf
  4148                        ;	f_printf(fd,
  4149                        	.line	371
  4150                        ;			"     - Entry Point in the Segme
                    nt                            :  %06X %d\n",
  4151                        ;			current_header->EntryPointOffset
                    , current_header->EntryPointOffset);
  4152 09:EC62: A0 34 00     	ldy	#$34
  4153 09:EC65: B7 0C        	lda	[<L80+current_header_0],Y
  4154 09:EC67: 48           	pha
  4155 09:EC68: A0 32 00     	ldy	#$32
  4156 09:EC6B: B7 0C        	lda	[<L80+current_header_0],Y
  4157 09:EC6D: 48           	pha
  4158 09:EC6E: A0 34 00     	ldy	#$34
  4159 09:EC71: B7 0C        	lda	[<L80+current_header_0],Y
  4160 09:EC73: 48           	pha
  4161 09:EC74: A0 32 00     	ldy	#$32
  4162 09:EC77: B7 0C        	lda	[<L80+current_header_0],Y
  4163 09:EC79: 48           	pha
  4164 09:EC7A: F4 xx xx     	pea	#^L79+1298
  4165 09:EC7D: F4 xx xx     	pea	#<L79+1298
  4166 09:EC80: D4 0A        	pei	<L80+fd_0+2
  4167 09:EC82: D4 08        	pei	<L80+fd_0
  4168 09:EC84: F4 12 00     	pea	#18
  4169 09:EC87: 22 xx xx xx  	jsl	~~f_printf
  4170                        ;	f_printf(fd,
  4171                        	.line	374
  4172                        ;			"     - Load Name               
                                                  :  '%s'\n",
  4173                        ;			current_header->LoadName);
  4174 09:EC8B: 18           	clc
  4175 09:EC8C: A9 3C 08     	lda	#$83c
  4176 09:EC8F: 65 0C        	adc	<L80+current_header_0
  4177 09:EC91: 85 01        	sta	<R0
  4178 09:EC93: A9 00 00     	lda	#$0
  4179 09:EC96: 65 0E        	adc	<L80+current_header_0+2
  4180 09:EC98: 85 03        	sta	<R0+2
  4181 09:EC9A: D4 03        	pei	<R0+2
  4182 09:EC9C: D4 01        	pei	<R0
  4183 09:EC9E: F4 xx xx     	pea	#^L79+1371
  4184 09:ECA1: F4 xx xx     	pea	#<L79+1371
  4185 09:ECA4: D4 0A        	pei	<L80+fd_0+2
  Thu Dec  3 2020 22:25                                                Page 98


  4186 09:ECA6: D4 08        	pei	<L80+fd_0
  4187 09:ECA8: F4 0E 00     	pea	#14
  4188 09:ECAB: 22 xx xx xx  	jsl	~~f_printf
  4189                        ;	f_printf(fd,
  4190                        	.line	377
  4191                        ;			"     - Segment Name            
                                                  :  '%s'\n\n",
  4192                        ;			current_header->SegName);
  4193 09:ECAF: 18           	clc
  4194 09:ECB0: A9 3C 09     	lda	#$93c
  4195 09:ECB3: 65 0C        	adc	<L80+current_header_0
  4196 09:ECB5: 85 01        	sta	<R0
  4197 09:ECB7: A9 00 00     	lda	#$0
  4198 09:ECBA: 65 0E        	adc	<L80+current_header_0+2
  4199 09:ECBC: 85 03        	sta	<R0+2
  4200 09:ECBE: D4 03        	pei	<R0+2
  4201 09:ECC0: D4 01        	pei	<R0
  4202 09:ECC2: F4 xx xx     	pea	#^L79+1441
  4203 09:ECC5: F4 xx xx     	pea	#<L79+1441
  4204 09:ECC8: D4 0A        	pei	<L80+fd_0+2
  4205 09:ECCA: D4 08        	pei	<L80+fd_0
  4206 09:ECCC: F4 0E 00     	pea	#14
  4207 09:ECCF: 22 xx xx xx  	jsl	~~f_printf
  4208                        ;}
  4209                        	.line	380
  4210                        L86:
  4211 09:ECD3: A5 06        	lda	<L80+2
  4212 09:ECD5: 85 0E        	sta	<L80+2+8
  4213 09:ECD7: A5 05        	lda	<L80+1
  4214 09:ECD9: 85 0D        	sta	<L80+1+8
  4215 09:ECDB: 2B           	pld
  4216 09:ECDC: 3B           	tsc
  4217 09:ECDD: 18           	clc
  4218 09:ECDE: 69 0C 00     	adc	#L80+8
  4219 09:ECE1: 1B           	tcs
  4220 09:ECE2: 6B           	rtl
  4221                        	.endblock	380
  4222             00000004   L80	equ	4
  4223             00000005   L81	equ	5
  4224 09:ECE3:              	ends
  4225                        	efunc
  4226                        	.endfunc	380,5,4
  4227                        	.line	380
  4228                        	data
  4229                        L79:
  4230 00:10E5: 20 20 20 20  	db	$20,$20,$20,$20,$20,$2D,$20,$42,$6C,$6F,
                    $63,$6B,$20,$43,$6F
       00:10E9: 20 2D 20 42 
       00:10ED: 6C 6F 63 6B 
       00:10F1: 20 43 6F 
  4231 00:10F4: 75 6E 74 20  	db	$75,$6E,$74,$20,$28,$53,$65,$67,$6D,$65,
                    $6E,$74,$20,$48,$65
       00:10F8: 28 53 65 67 
       00:10FC: 6D 65 6E 74 
       00:1100: 20 48 65 
  4232 00:1103: 61 64 65 72  	db	$61,$64,$65,$72,$20,$73,$69,$7A,$65,$20,
                    $2B,$20,$53,$65,$67
       00:1107: 20 73 69 7A 
  Thu Dec  3 2020 22:25                                                Page 99


       00:110B: 65 20 2B 20 
       00:110F: 53 65 67 
  4233 00:1112: 6D 65 6E 74  	db	$6D,$65,$6E,$74,$20,$42,$6F,$64,$79,$20,
                    $73,$69,$7A,$65,$29
       00:1116: 20 42 6F 64 
       00:111A: 79 20 73 69 
       00:111E: 7A 65 29 
  4234 00:1121: 20 3A 20 20  	db	$20,$3A,$20,$20,$25,$30,$36,$58,$20,$25,
                    $64,$20,$28,$35,$31
       00:1125: 25 30 36 58 
       00:1129: 20 25 64 20 
       00:112D: 28 35 31 
  4235 00:1130: 32 20 78 20  	db	$32,$20,$78,$20,$25,$30,$34,$58,$29,$0A,
                    $00,$20,$20,$20,$20
       00:1134: 25 30 34 58 
       00:1138: 29 0A 00 20 
       00:113C: 20 20 20 
  4236 00:113F: 20 2D 20 4E  	db	$20,$2D,$20,$4E,$75,$6D,$62,$65,$72,$20,
                    $6F,$66,$20,$30,$78
       00:1143: 75 6D 62 65 
       00:1147: 72 20 6F 66 
       00:114B: 20 30 78 
  4237 00:114E: 30 30 20 74  	db	$30,$30,$20,$74,$6F,$20,$61,$64,$64,$20,
                    $61,$74,$20,$74,$68
       00:1152: 6F 20 61 64 
       00:1156: 64 20 61 74 
       00:115A: 20 74 68 
  4238 00:115D: 65 20 65 6E  	db	$65,$20,$65,$6E,$64,$20,$6F,$66,$20,$74,
                    $68,$65,$20,$53,$65
       00:1161: 64 20 6F 66 
       00:1165: 20 74 68 65 
       00:1169: 20 53 65 
  4239 00:116C: 67 6D 65 6E  	db	$67,$6D,$65,$6E,$74,$20,$42,$6F,$64,$79,
                    $20,$20,$3A,$20,$20
       00:1170: 74 20 42 6F 
       00:1174: 64 79 20 20 
       00:1178: 3A 20 20 
  4240 00:117B: 25 30 36 58  	db	$25,$30,$36,$58,$20,$25,$64,$0A,$00,$20,
                    $20,$20,$20,$20,$2D
       00:117F: 20 25 64 0A 
       00:1183: 00 20 20 20 
       00:1187: 20 20 2D 
  4241 00:118A: 20 53 69 7A  	db	$20,$53,$69,$7A,$65,$20,$6F,$66,$20,$74,
                    $68,$65,$20,$53,$65
       00:118E: 65 20 6F 66 
       00:1192: 20 74 68 65 
       00:1196: 20 53 65 
  4242 00:1199: 67 6D 65 6E  	db	$67,$6D,$65,$6E,$74,$20,$6F,$6E,$63,$65,
                    $20,$6C,$6F,$61,$64
       00:119D: 74 20 6F 6E 
       00:11A1: 63 65 20 6C 
       00:11A5: 6F 61 64 
  4243 00:11A8: 65 64 20 69  	db	$65,$64,$20,$69,$6E,$20,$4D,$65,$6D,$6F,
                    $72,$79,$20,$20,$20
       00:11AC: 6E 20 4D 65 
       00:11B0: 6D 6F 72 79 
       00:11B4: 20 20 20 
  4244 00:11B7: 20 20 20 20  	db	$20,$20,$20,$20,$20,$20,$20,$20,$20,$20,
  Thu Dec  3 2020 22:25                                                Page 100


                    $3A,$20,$20,$25,$30
       00:11BB: 20 20 20 20 
       00:11BF: 20 20 3A 20 
       00:11C3: 20 25 30 
  4245 00:11C6: 36 58 20 25  	db	$36,$58,$20,$25,$64,$0A,$00,$20,$20,$20,
                    $20,$20,$2D,$20,$53
       00:11CA: 64 0A 00 20 
       00:11CE: 20 20 20 20 
       00:11D2: 2D 20 53 
  4246 00:11D5: 65 67 6D 65  	db	$65,$67,$6D,$65,$6E,$74,$20,$54,$79,$70,
                    $65,$20,$2B,$20,$53
       00:11D9: 6E 74 20 54 
       00:11DD: 79 70 65 20 
       00:11E1: 2B 20 53 
  4247 00:11E4: 65 67 6D 65  	db	$65,$67,$6D,$65,$6E,$74,$20,$41,$74,$74,
                    $72,$69,$62,$75,$74
       00:11E8: 6E 74 20 41 
       00:11EC: 74 74 72 69 
       00:11F0: 62 75 74 
  4248 00:11F3: 65 73 20 20  	db	$65,$73,$20,$20,$20,$20,$20,$20,$20,$20,
                    $20,$20,$20,$20,$20
       00:11F7: 20 20 20 20 
       00:11FB: 20 20 20 20 
       00:11FF: 20 20 20 
  4249 00:1202: 20 20 20 20  	db	$20,$20,$20,$20,$20,$20,$20,$20,$3A,$20,
                    $20,$20,$20,$25,$30
       00:1206: 20 20 20 20 
       00:120A: 3A 20 20 20 
       00:120E: 20 25 30 
  4250 00:1211: 32 58 20 3D  	db	$32,$58,$20,$3D,$20,$25,$73,$0A,$00,$20,
                    $20,$20,$20,$20,$2D
       00:1215: 20 25 73 0A 
       00:1219: 00 20 20 20 
       00:121D: 20 20 2D 
  4251 00:1220: 20 4C 61 62  	db	$20,$4C,$61,$62,$65,$6C,$20,$4C,$65,$6E,
                    $67,$74,$68,$20,$28
       00:1224: 65 6C 20 4C 
       00:1228: 65 6E 67 74 
       00:122C: 68 20 28 
  4252 00:122F: 75 73 75 61  	db	$75,$73,$75,$61,$6C,$6C,$79,$20,$73,$65,
                    $74,$20,$74,$6F,$20
       00:1233: 6C 6C 79 20 
       00:1237: 73 65 74 20 
       00:123B: 74 6F 20 
  4253 00:123E: 30 78 30 30  	db	$30,$78,$30,$30,$20,$6F,$72,$20,$30,$78,
                    $30,$41,$29,$20,$20
       00:1242: 20 6F 72 20 
       00:1246: 30 78 30 41 
       00:124A: 29 20 20 
  4254 00:124D: 20 20 20 20  	db	$20,$20,$20,$20,$20,$20,$20,$20,$20,$20,
                    $3A,$20,$20,$20,$20
       00:1251: 20 20 20 20 
       00:1255: 20 20 3A 20 
       00:1259: 20 20 20 
  4255 00:125C: 20 20 25 30  	db	$20,$20,$25,$30,$32,$58,$0A,$00,$20,$20,
                    $20,$20,$20,$2D,$20
       00:1260: 32 58 0A 00 
       00:1264: 20 20 20 20 
  Thu Dec  3 2020 22:25                                                Page 101


       00:1268: 20 2D 20 
  4256 00:126B: 4E 75 6D 62  	db	$4E,$75,$6D,$62,$65,$72,$20,$4C,$65,$6E,
                    $67,$74,$68,$20,$28
       00:126F: 65 72 20 4C 
       00:1273: 65 6E 67 74 
       00:1277: 68 20 28 
  4257 00:127A: 75 73 75 61  	db	$75,$73,$75,$61,$6C,$6C,$79,$20,$73,$65,
                    $74,$20,$74,$6F,$20
       00:127E: 6C 6C 79 20 
       00:1282: 73 65 74 20 
       00:1286: 74 6F 20 
  4258 00:1289: 34 20 62 79  	db	$34,$20,$62,$79,$74,$65,$73,$29,$20,$20,
                    $20,$20,$20,$20,$20
       00:128D: 74 65 73 29 
       00:1291: 20 20 20 20 
       00:1295: 20 20 20 
  4259 00:1298: 20 20 20 20  	db	$20,$20,$20,$20,$20,$20,$20,$20,$20,$3A,
                    $20,$20,$20,$20,$20
       00:129C: 20 20 20 20 
       00:12A0: 20 3A 20 20 
       00:12A4: 20 20 20 
  4260 00:12A7: 20 25 30 32  	db	$20,$25,$30,$32,$58,$0A,$00,$20,$20,$20,
                    $20,$20,$2D,$20,$53
       00:12AB: 58 0A 00 20 
       00:12AF: 20 20 20 20 
       00:12B3: 2D 20 53 
  4261 00:12B6: 65 67 6D 65  	db	$65,$67,$6D,$65,$6E,$74,$20,$4F,$4D,$46,
                    $20,$56,$65,$72,$73
       00:12BA: 6E 74 20 4F 
       00:12BE: 4D 46 20 56 
       00:12C2: 65 72 73 
  4262 00:12C5: 69 6F 6E 20  	db	$69,$6F,$6E,$20,$28,$73,$68,$6F,$75,$6C,
                    $64,$20,$62,$65,$20
       00:12C9: 28 73 68 6F 
       00:12CD: 75 6C 64 20 
       00:12D1: 62 65 20 
  4263 00:12D4: 30 78 30 31  	db	$30,$78,$30,$31,$20,$66,$6F,$72,$20,$31,
                    $29,$20,$20,$20,$20
       00:12D8: 20 66 6F 72 
       00:12DC: 20 31 29 20 
       00:12E0: 20 20 20 
  4264 00:12E3: 20 20 20 20  	db	$20,$20,$20,$20,$20,$20,$20,$20,$3A,$20,
                    $20,$20,$20,$20,$20
       00:12E7: 20 20 20 20 
       00:12EB: 3A 20 20 20 
       00:12EF: 20 20 20 
  4265 00:12F2: 25 30 32 58  	db	$25,$30,$32,$58,$0A,$00,$20,$20,$20,$20,
                    $20,$2D,$20,$42,$61
       00:12F6: 0A 00 20 20 
       00:12FA: 20 20 20 2D 
       00:12FE: 20 42 61 
  4266 00:1301: 6E 6B 20 53  	db	$6E,$6B,$20,$53,$69,$7A,$65,$20,$28,$36,
                    $34,$20,$4B,$42,$20
       00:1305: 69 7A 65 20 
       00:1309: 28 36 34 20 
       00:130D: 4B 42 20 
  4267 00:1310: 66 6F 72 20  	db	$66,$6F,$72,$20,$43,$6F,$64,$65,$2C,$20,
                    $30,$2D,$36,$34,$20
  Thu Dec  3 2020 22:25                                                Page 102


       00:1314: 43 6F 64 65 
       00:1318: 2C 20 30 2D 
       00:131C: 36 34 20 
  4268 00:131F: 4B 42 20 66  	db	$4B,$42,$20,$66,$6F,$72,$20,$44,$61,$74,
                    $61,$29,$20,$20,$20
       00:1323: 6F 72 20 44 
       00:1327: 61 74 61 29 
       00:132B: 20 20 20 
  4269 00:132E: 20 20 20 20  	db	$20,$20,$20,$20,$20,$20,$20,$3A,$20,$20,
                    $25,$30,$36,$58,$20
       00:1332: 20 20 20 3A 
       00:1336: 20 20 25 30 
       00:133A: 36 58 20 
  4270 00:133D: 25 64 0A 00  	db	$25,$64,$0A,$00,$20,$20,$20,$20,$20,$2D,
                    $20,$55,$6E,$64,$65
       00:1341: 20 20 20 20 
       00:1345: 20 2D 20 55 
       00:1349: 6E 64 65 
  4271 00:134C: 66 69 6E 65  	db	$66,$69,$6E,$65,$64,$20,$42,$79,$74,$65,
                    $20,$23,$31,$20,$28
       00:1350: 64 20 42 79 
       00:1354: 74 65 20 23 
       00:1358: 31 20 28 
  4272 00:135B: 75 73 75 61  	db	$75,$73,$75,$61,$6C,$6C,$79,$20,$73,$65,
                    $74,$20,$74,$6F,$20
       00:135F: 6C 6C 79 20 
       00:1363: 73 65 74 20 
       00:1367: 74 6F 20 
  4273 00:136A: 30 78 30 30  	db	$30,$78,$30,$30,$29,$20,$20,$20,$20,$20,
                    $20,$20,$20,$20,$20
       00:136E: 29 20 20 20 
       00:1372: 20 20 20 20 
       00:1376: 20 20 20 
  4274 00:1379: 20 20 20 20  	db	$20,$20,$20,$20,$20,$3A,$20,$20,$20,$20,
                    $20,$20,$25,$30,$32
       00:137D: 20 3A 20 20 
       00:1381: 20 20 20 20 
       00:1385: 25 30 32 
  4275 00:1388: 58 0A 00 20  	db	$58,$0A,$00,$20,$20,$20,$20,$20,$2D,$20,
                    $55,$6E,$64,$65,$66
       00:138C: 20 20 20 20 
       00:1390: 2D 20 55 6E 
       00:1394: 64 65 66 
  4276 00:1397: 69 6E 65 64  	db	$69,$6E,$65,$64,$20,$42,$79,$74,$65,$20,
                    $23,$32,$20,$28,$75
       00:139B: 20 42 79 74 
       00:139F: 65 20 23 32 
       00:13A3: 20 28 75 
  4277 00:13A6: 73 75 61 6C  	db	$73,$75,$61,$6C,$6C,$79,$20,$73,$65,$74,
                    $20,$74,$6F,$20,$30
       00:13AA: 6C 79 20 73 
       00:13AE: 65 74 20 74 
       00:13B2: 6F 20 30 
  4278 00:13B5: 78 30 30 29  	db	$78,$30,$30,$29,$20,$20,$20,$20,$20,$20,
                    $20,$20,$20,$20,$20
       00:13B9: 20 20 20 20 
       00:13BD: 20 20 20 20 
       00:13C1: 20 20 20 
  Thu Dec  3 2020 22:25                                                Page 103


  4279 00:13C4: 20 20 20 20  	db	$20,$20,$20,$20,$3A,$20,$20,$20,$20,$20,
                    $20,$25,$30,$32,$58
       00:13C8: 3A 20 20 20 
       00:13CC: 20 20 20 25 
       00:13D0: 30 32 58 
  4280 00:13D3: 0A 00 20 20  	db	$0A,$00,$20,$20,$20,$20,$20,$2D,$20,$55,
                    $6E,$64,$65,$66,$69
       00:13D7: 20 20 20 2D 
       00:13DB: 20 55 6E 64 
       00:13DF: 65 66 69 
  4281 00:13E2: 6E 65 64 20  	db	$6E,$65,$64,$20,$42,$79,$74,$65,$20,$23,
                    $33,$20,$28,$75,$73
       00:13E6: 42 79 74 65 
       00:13EA: 20 23 33 20 
       00:13EE: 28 75 73 
  4282 00:13F1: 75 61 6C 6C  	db	$75,$61,$6C,$6C,$79,$20,$73,$65,$74,$20,
                    $74,$6F,$20,$30,$78
       00:13F5: 79 20 73 65 
       00:13F9: 74 20 74 6F 
       00:13FD: 20 30 78 
  4283 00:1400: 30 30 29 20  	db	$30,$30,$29,$20,$20,$20,$20,$20,$20,$20,
                    $20,$20,$20,$20,$20
       00:1404: 20 20 20 20 
       00:1408: 20 20 20 20 
       00:140C: 20 20 20 
  4284 00:140F: 20 20 20 3A  	db	$20,$20,$20,$3A,$20,$20,$20,$20,$20,$20,
                    $25,$30,$32,$58,$0A
       00:1413: 20 20 20 20 
       00:1417: 20 20 25 30 
       00:141B: 32 58 0A 
  4285 00:141E: 00 20 20 20  	db	$00,$20,$20,$20,$20,$20,$2D,$20,$55,$6E,
                    $64,$65,$66,$69,$6E
       00:1422: 20 20 2D 20 
       00:1426: 55 6E 64 65 
       00:142A: 66 69 6E 
  4286 00:142D: 65 64 20 42  	db	$65,$64,$20,$42,$79,$74,$65,$20,$23,$34,
                    $20,$28,$75,$73,$75
       00:1431: 79 74 65 20 
       00:1435: 23 34 20 28 
       00:1439: 75 73 75 
  4287 00:143C: 61 6C 6C 79  	db	$61,$6C,$6C,$79,$20,$73,$65,$74,$20,$74,
                    $6F,$20,$30,$78,$30
       00:1440: 20 73 65 74 
       00:1444: 20 74 6F 20 
       00:1448: 30 78 30 
  4288 00:144B: 30 29 20 20  	db	$30,$29,$20,$20,$20,$20,$20,$20,$20,$20,
                    $20,$20,$20,$20,$20
       00:144F: 20 20 20 20 
       00:1453: 20 20 20 20 
       00:1457: 20 20 20 
  4289 00:145A: 20 20 3A 20  	db	$20,$20,$3A,$20,$20,$20,$20,$20,$20,$25,
                    $30,$32,$58,$0A,$00
       00:145E: 20 20 20 20 
       00:1462: 20 25 30 32 
       00:1466: 58 0A 00 
  4290 00:1469: 20 20 20 20  	db	$20,$20,$20,$20,$20,$2D,$20,$4F,$72,$67,
                    $20,$41,$64,$64,$72
       00:146D: 20 2D 20 4F 
  Thu Dec  3 2020 22:25                                                Page 104


       00:1471: 72 67 20 41 
       00:1475: 64 64 72 
  4291 00:1478: 65 73 73 20  	db	$65,$73,$73,$20,$74,$6F,$20,$6C,$6F,$61,
                    $64,$20,$74,$68,$65
       00:147C: 74 6F 20 6C 
       00:1480: 6F 61 64 20 
       00:1484: 74 68 65 
  4292 00:1487: 20 53 65 67  	db	$20,$53,$65,$67,$6D,$65,$6E,$74,$20,$28,
                    $30,$78,$30,$30,$30
       00:148B: 6D 65 6E 74 
       00:148F: 20 28 30 78 
       00:1493: 30 30 30 
  4293 00:1496: 30 20 3D 20  	db	$30,$20,$3D,$20,$61,$6E,$79,$77,$68,$65,
                    $72,$65,$29,$20,$20
       00:149A: 61 6E 79 77 
       00:149E: 68 65 72 65 
       00:14A2: 29 20 20 
  4294 00:14A5: 20 3A 20 20  	db	$20,$3A,$20,$20,$25,$30,$36,$58,$25,$73,
                    $0A,$00,$00,$20,$3E
       00:14A9: 25 30 36 58 
       00:14AD: 25 73 0A 00 
       00:14B1: 00 20 3E 
  4295 00:14B4: 20 42 65 77  	db	$20,$42,$65,$77,$61,$72,$65,$2C,$20,$75,
                    $6E,$75,$73,$75,$61
       00:14B8: 61 72 65 2C 
       00:14BC: 20 75 6E 75 
       00:14C0: 73 75 61 
  4296 00:14C3: 6C 20 76 61  	db	$6C,$20,$76,$61,$6C,$75,$65,$20,$3C,$00,
                    $20,$20,$20,$20,$20
       00:14C7: 6C 75 65 20 
       00:14CB: 3C 00 20 20 
       00:14CF: 20 20 20 
  4297 00:14D2: 2D 20 42 6F  	db	$2D,$20,$42,$6F,$75,$6E,$64,$61,$72,$79,
                    $20,$66,$6F,$72,$20
       00:14D6: 75 6E 64 61 
       00:14DA: 72 79 20 66 
       00:14DE: 6F 72 20 
  4298 00:14E1: 53 65 67 6D  	db	$53,$65,$67,$6D,$65,$6E,$74,$20,$41,$6C,
                    $69,$67,$6E,$6D,$65
       00:14E5: 65 6E 74 20 
       00:14E9: 41 6C 69 67 
       00:14ED: 6E 6D 65 
  4299 00:14F0: 6E 74 20 28  	db	$6E,$74,$20,$28,$30,$2C,$20,$30,$78,$31,
                    $30,$30,$20,$6F,$72
       00:14F4: 30 2C 20 30 
       00:14F8: 78 31 30 30 
       00:14FC: 20 6F 72 
  4300 00:14FF: 20 30 78 30  	db	$20,$30,$78,$30,$31,$30,$30,$30,$30,$29,
                    $20,$3A,$20,$20,$25
       00:1503: 31 30 30 30 
       00:1507: 30 29 20 3A 
       00:150B: 20 20 25 
  4301 00:150E: 30 36 58 20  	db	$30,$36,$58,$20,$3D,$20,$25,$73,$0A,$00,
                    $20,$20,$20,$20,$20
       00:1512: 3D 20 25 73 
       00:1516: 0A 00 20 20 
       00:151A: 20 20 20 
  4302 00:151D: 2D 20 4F 72  	db	$2D,$20,$4F,$72,$64,$65,$72,$20,$6F,$66,
  Thu Dec  3 2020 22:25                                                Page 105


                    $20,$74,$68,$65,$20
       00:1521: 64 65 72 20 
       00:1525: 6F 66 20 74 
       00:1529: 68 65 20 
  4303 00:152C: 62 79 74 65  	db	$62,$79,$74,$65,$73,$20,$69,$6E,$20,$61,
                    $20,$4E,$75,$6D,$62
       00:1530: 73 20 69 6E 
       00:1534: 20 61 20 4E 
       00:1538: 75 6D 62 
  4304 00:153B: 65 72 20 28  	db	$65,$72,$20,$28,$30,$78,$30,$30,$20,$66,
                    $6F,$72,$20,$74,$68
       00:153F: 30 78 30 30 
       00:1543: 20 66 6F 72 
       00:1547: 20 74 68 
  4305 00:154A: 65 20 49 49  	db	$65,$20,$49,$49,$67,$73,$29,$20,$20,$20,
                    $20,$3A,$20,$20,$20
       00:154E: 67 73 29 20 
       00:1552: 20 20 20 3A 
       00:1556: 20 20 20 
  4306 00:1559: 20 20 20 25  	db	$20,$20,$20,$25,$30,$32,$58,$0A,$00,$20,
                    $20,$20,$20,$20,$2D
       00:155D: 30 32 58 0A 
       00:1561: 00 20 20 20 
       00:1565: 20 20 2D 
  4307 00:1568: 20 4C 61 6E  	db	$20,$4C,$61,$6E,$67,$75,$61,$67,$65,$20,
                    $43,$61,$72,$64,$20
       00:156C: 67 75 61 67 
       00:1570: 65 20 43 61 
       00:1574: 72 64 20 
  4308 00:1577: 42 61 6E 6B  	db	$42,$61,$6E,$6B,$20,$28,$75,$73,$75,$61,
                    $6C,$6C,$79,$20,$75
       00:157B: 20 28 75 73 
       00:157F: 75 61 6C 6C 
       00:1583: 79 20 75 
  4309 00:1586: 6E 75 73 65  	db	$6E,$75,$73,$65,$64,$29,$20,$20,$20,$20,
                    $20,$20,$20,$20,$20
       00:158A: 64 29 20 20 
       00:158E: 20 20 20 20 
       00:1592: 20 20 20 
  4310 00:1595: 20 20 20 20  	db	$20,$20,$20,$20,$20,$20,$20,$20,$20,$20,
                    $3A,$20,$20,$20,$20
       00:1599: 20 20 20 20 
       00:159D: 20 20 3A 20 
       00:15A1: 20 20 20 
  4311 00:15A4: 20 20 25 30  	db	$20,$20,$25,$30,$32,$58,$0A,$00,$20,$20,
                    $20,$20,$20,$2D,$20
       00:15A8: 32 58 0A 00 
       00:15AC: 20 20 20 20 
       00:15B0: 20 2D 20 
  4312 00:15B3: 53 65 67 6D  	db	$53,$65,$67,$6D,$65,$6E,$74,$20,$4E,$75,
                    $6D,$62,$65,$72,$20
       00:15B7: 65 6E 74 20 
       00:15BB: 4E 75 6D 62 
       00:15BF: 65 72 20 
  4313 00:15C2: 28 31 20 74  	db	$28,$31,$20,$74,$6F,$20,$4E,$29,$20,$20,
                    $20,$20,$20,$20,$20
       00:15C6: 6F 20 4E 29 
       00:15CA: 20 20 20 20 
  Thu Dec  3 2020 22:25                                                Page 106


       00:15CE: 20 20 20 
  4314 00:15D1: 20 20 20 20  	db	$20,$20,$20,$20,$20,$20,$20,$20,$20,$20,
                    $20,$20,$20,$20,$20
       00:15D5: 20 20 20 20 
       00:15D9: 20 20 20 20 
       00:15DD: 20 20 20 
  4315 00:15E0: 20 20 20 20  	db	$20,$20,$20,$20,$20,$20,$20,$20,$20,$3A,
                    $20,$20,$20,$20,$25
       00:15E4: 20 20 20 20 
       00:15E8: 20 3A 20 20 
       00:15EC: 20 20 25 
  4316 00:15EF: 30 34 58 20  	db	$30,$34,$58,$20,$25,$64,$0A,$00,$20,$20,
                    $20,$20,$20,$2D,$20
       00:15F3: 25 64 0A 00 
       00:15F7: 20 20 20 20 
       00:15FB: 20 2D 20 
  4317 00:15FE: 45 6E 74 72  	db	$45,$6E,$74,$72,$79,$20,$50,$6F,$69,$6E,
                    $74,$20,$69,$6E,$20
       00:1602: 79 20 50 6F 
       00:1606: 69 6E 74 20 
       00:160A: 69 6E 20 
  4318 00:160D: 74 68 65 20  	db	$74,$68,$65,$20,$53,$65,$67,$6D,$65,$6E,
                    $74,$20,$20,$20,$20
       00:1611: 53 65 67 6D 
       00:1615: 65 6E 74 20 
       00:1619: 20 20 20 
  4319 00:161C: 20 20 20 20  	db	$20,$20,$20,$20,$20,$20,$20,$20,$20,$20,
                    $20,$20,$20,$20,$20
       00:1620: 20 20 20 20 
       00:1624: 20 20 20 20 
       00:1628: 20 20 20 
  4320 00:162B: 20 20 20 20  	db	$20,$20,$20,$20,$20,$20,$20,$20,$20,$3A,
                    $20,$20,$25,$30,$36
       00:162F: 20 20 20 20 
       00:1633: 20 3A 20 20 
       00:1637: 25 30 36 
  4321 00:163A: 58 20 25 64  	db	$58,$20,$25,$64,$0A,$00,$20,$20,$20,$20,
                    $20,$2D,$20,$4C,$6F
       00:163E: 0A 00 20 20 
       00:1642: 20 20 20 2D 
       00:1646: 20 4C 6F 
  4322 00:1649: 61 64 20 4E  	db	$61,$64,$20,$4E,$61,$6D,$65,$20,$20,$20,
                    $20,$20,$20,$20,$20
       00:164D: 61 6D 65 20 
       00:1651: 20 20 20 20 
       00:1655: 20 20 20 
  4323 00:1658: 20 20 20 20  	db	$20,$20,$20,$20,$20,$20,$20,$20,$20,$20,
                    $20,$20,$20,$20,$20
       00:165C: 20 20 20 20 
       00:1660: 20 20 20 20 
       00:1664: 20 20 20 
  4324 00:1667: 20 20 20 20  	db	$20,$20,$20,$20,$20,$20,$20,$20,$20,$20,
                    $20,$20,$20,$20,$20
       00:166B: 20 20 20 20 
       00:166F: 20 20 20 20 
       00:1673: 20 20 20 
  4325 00:1676: 20 20 20 20  	db	$20,$20,$20,$20,$20,$20,$20,$3A,$20,$20,
                    $27,$25,$73,$27,$0A
  Thu Dec  3 2020 22:25                                                Page 107


       00:167A: 20 20 20 3A 
       00:167E: 20 20 27 25 
       00:1682: 73 27 0A 
  4326 00:1685: 00 20 20 20  	db	$00,$20,$20,$20,$20,$20,$2D,$20,$53,$65,
                    $67,$6D,$65,$6E,$74
       00:1689: 20 20 2D 20 
       00:168D: 53 65 67 6D 
       00:1691: 65 6E 74 
  4327 00:1694: 20 4E 61 6D  	db	$20,$4E,$61,$6D,$65,$20,$20,$20,$20,$20,
                    $20,$20,$20,$20,$20
       00:1698: 65 20 20 20 
       00:169C: 20 20 20 20 
       00:16A0: 20 20 20 
  4328 00:16A3: 20 20 20 20  	db	$20,$20,$20,$20,$20,$20,$20,$20,$20,$20,
                    $20,$20,$20,$20,$20
       00:16A7: 20 20 20 20 
       00:16AB: 20 20 20 20 
       00:16AF: 20 20 20 
  4329 00:16B2: 20 20 20 20  	db	$20,$20,$20,$20,$20,$20,$20,$20,$20,$20,
                    $20,$20,$20,$20,$20
       00:16B6: 20 20 20 20 
       00:16BA: 20 20 20 20 
       00:16BE: 20 20 20 
  4330 00:16C1: 20 20 3A 20  	db	$20,$20,$3A,$20,$20,$27,$25,$73,$27,$0A,
                    $0A,$00
       00:16C5: 20 27 25 73 
       00:16C9: 27 0A 0A 00 
  4331 00:16CD:              	ends
  4332                        ;
  4333                        ;void processHeader02(FIL* fd, struct omf_segment_
                    header* current_header)
  4334                        ;{
  4335                        	.line	382
  4336                        	.line	383
  4337                        	LOADER
  4338                        	xdef	~~processHeader02
  4339                        	func
  4340                        	.function	383
  4341                        ~~processHeader02:
  4342                        	longa	on
  4343                        	longi	on
  4344 09:ECE3: 3B           	tsc
  4345 09:ECE4: 38           	sec
  4346 09:ECE5: E9 04 00     	sbc	#L88
  4347 09:ECE8: 1B           	tcs
  4348 09:ECE9: 0B           	phd
  4349 09:ECEA: 5B           	tcd
  4350             00000004   fd_0	set	4
  4351             00000008   current_header_0	set	8
  4352                        	.block	383
  4353                        ;	/* Version 2.1 */
  4354                        ;	f_printf(fd,
  4355                        	.sym	fd,4,138,6,32,104
  4356                        	.sym	current_header,8,138,6,32,64
  4357                        	.line	385
  4358                        ;			"     - Segment Header size + Se
                    gment Body size               :  %06X %d\n",
  4359                        ;			current_header->ByteCnt, current
  Thu Dec  3 2020 22:25                                                Page 108


                    _header->ByteCnt);
  4360 09:ECEB: A0 0E 00     	ldy	#$e
  4361 09:ECEE: B7 0C        	lda	[<L88+current_header_0],Y
  4362 09:ECF0: 48           	pha
  4363 09:ECF1: A0 0C 00     	ldy	#$c
  4364 09:ECF4: B7 0C        	lda	[<L88+current_header_0],Y
  4365 09:ECF6: 48           	pha
  4366 09:ECF7: A0 0E 00     	ldy	#$e
  4367 09:ECFA: B7 0C        	lda	[<L88+current_header_0],Y
  4368 09:ECFC: 48           	pha
  4369 09:ECFD: A0 0C 00     	ldy	#$c
  4370 09:ED00: B7 0C        	lda	[<L88+current_header_0],Y
  4371 09:ED02: 48           	pha
  4372 09:ED03: F4 xx xx     	pea	#^L87
  4373 09:ED06: F4 xx xx     	pea	#<L87
  4374 09:ED09: D4 0A        	pei	<L88+fd_0+2
  4375 09:ED0B: D4 08        	pei	<L88+fd_0
  4376 09:ED0D: F4 12 00     	pea	#18
  4377 09:ED10: 22 xx xx xx  	jsl	~~f_printf
  4378                        ;	f_printf(fd,
  4379                        	.line	388
  4380                        ;			"     - Number of 0x00 to add at
                     the end of the Segment Body  :  %06X %d\n",
  4381                        ;			current_header->ResSpc, current_
                    header->ResSpc);
  4382 09:ED14: A0 12 00     	ldy	#$12
  4383 09:ED17: B7 0C        	lda	[<L88+current_header_0],Y
  4384 09:ED19: 48           	pha
  4385 09:ED1A: A0 10 00     	ldy	#$10
  4386 09:ED1D: B7 0C        	lda	[<L88+current_header_0],Y
  4387 09:ED1F: 48           	pha
  4388 09:ED20: A0 12 00     	ldy	#$12
  4389 09:ED23: B7 0C        	lda	[<L88+current_header_0],Y
  4390 09:ED25: 48           	pha
  4391 09:ED26: A0 10 00     	ldy	#$10
  4392 09:ED29: B7 0C        	lda	[<L88+current_header_0],Y
  4393 09:ED2B: 48           	pha
  4394 09:ED2C: F4 xx xx     	pea	#^L87+73
  4395 09:ED2F: F4 xx xx     	pea	#<L87+73
  4396 09:ED32: D4 0A        	pei	<L88+fd_0+2
  4397 09:ED34: D4 08        	pei	<L88+fd_0
  4398 09:ED36: F4 12 00     	pea	#18
  4399 09:ED39: 22 xx xx xx  	jsl	~~f_printf
  4400                        ;	f_printf(fd,
  4401                        	.line	391
  4402                        ;			"     - Size of the Segment once
                     loaded in Memory             :  %06X %d\n",
  4403                        ;			current_header->Length, current_
                    header->Length);
  4404 09:ED3D: A0 16 00     	ldy	#$16
  4405 09:ED40: B7 0C        	lda	[<L88+current_header_0],Y
  4406 09:ED42: 48           	pha
  4407 09:ED43: A0 14 00     	ldy	#$14
  4408 09:ED46: B7 0C        	lda	[<L88+current_header_0],Y
  4409 09:ED48: 48           	pha
  4410 09:ED49: A0 16 00     	ldy	#$16
  4411 09:ED4C: B7 0C        	lda	[<L88+current_header_0],Y
  4412 09:ED4E: 48           	pha
  Thu Dec  3 2020 22:25                                                Page 109


  4413 09:ED4F: A0 14 00     	ldy	#$14
  4414 09:ED52: B7 0C        	lda	[<L88+current_header_0],Y
  4415 09:ED54: 48           	pha
  4416 09:ED55: F4 xx xx     	pea	#^L87+146
  4417 09:ED58: F4 xx xx     	pea	#<L87+146
  4418 09:ED5B: D4 0A        	pei	<L88+fd_0+2
  4419 09:ED5D: D4 08        	pei	<L88+fd_0
  4420 09:ED5F: F4 12 00     	pea	#18
  4421 09:ED62: 22 xx xx xx  	jsl	~~f_printf
  4422                        ;	f_printf(fd,
  4423                        	.line	394
  4424                        ;			"     - Undefined Byte #1 (usual
                    ly set to 0x00)               :      %02X\n",
  4425                        ;			current_header->undefine_1);
  4426 09:ED66: A0 19 00     	ldy	#$19
  4427 09:ED69: B7 0C        	lda	[<L88+current_header_0],Y
  4428 09:ED6B: 29 FF 00     	and	#$ff
  4429 09:ED6E: 48           	pha
  4430 09:ED6F: F4 xx xx     	pea	#^L87+219
  4431 09:ED72: F4 xx xx     	pea	#<L87+219
  4432 09:ED75: D4 0A        	pei	<L88+fd_0+2
  4433 09:ED77: D4 08        	pei	<L88+fd_0
  4434 09:ED79: F4 0C 00     	pea	#12
  4435 09:ED7C: 22 xx xx xx  	jsl	~~f_printf
  4436                        ;	f_printf(fd,
  4437                        	.line	397
  4438                        ;			"     - Label Length (usually se
                    t to 0x00 or 0x0A)            :      %02X\n",
  4439                        ;			current_header->LabLen);
  4440 09:ED80: A0 1A 00     	ldy	#$1a
  4441 09:ED83: B7 0C        	lda	[<L88+current_header_0],Y
  4442 09:ED85: 29 FF 00     	and	#$ff
  4443 09:ED88: 48           	pha
  4444 09:ED89: F4 xx xx     	pea	#^L87+293
  4445 09:ED8C: F4 xx xx     	pea	#<L87+293
  4446 09:ED8F: D4 0A        	pei	<L88+fd_0+2
  4447 09:ED91: D4 08        	pei	<L88+fd_0
  4448 09:ED93: F4 0C 00     	pea	#12
  4449 09:ED96: 22 xx xx xx  	jsl	~~f_printf
  4450                        ;	f_printf(fd,
  4451                        	.line	400
  4452                        ;			"     - Number Length (usually s
                    et to 4 bytes)                :      %02X\n",
  4453                        ;			current_header->NumLen);
  4454 09:ED9A: A0 1B 00     	ldy	#$1b
  4455 09:ED9D: B7 0C        	lda	[<L88+current_header_0],Y
  4456 09:ED9F: 29 FF 00     	and	#$ff
  4457 09:EDA2: 48           	pha
  4458 09:EDA3: F4 xx xx     	pea	#^L87+367
  4459 09:EDA6: F4 xx xx     	pea	#<L87+367
  4460 09:EDA9: D4 0A        	pei	<L88+fd_0+2
  4461 09:EDAB: D4 08        	pei	<L88+fd_0
  4462 09:EDAD: F4 0C 00     	pea	#12
  4463 09:EDB0: 22 xx xx xx  	jsl	~~f_printf
  4464                        ;	f_printf(fd,
  4465                        	.line	403
  4466                        ;			"     - Segment OMF Version (sho
                    uld be 0x02 for 2.1)          :      %02X\n",
  Thu Dec  3 2020 22:25                                                Page 110


  4467                        ;			current_header->Version);
  4468 09:EDB4: A0 1C 00     	ldy	#$1c
  4469 09:EDB7: B7 0C        	lda	[<L88+current_header_0],Y
  4470 09:EDB9: 29 FF 00     	and	#$ff
  4471 09:EDBC: 48           	pha
  4472 09:EDBD: F4 xx xx     	pea	#^L87+441
  4473 09:EDC0: F4 xx xx     	pea	#<L87+441
  4474 09:EDC3: D4 0A        	pei	<L88+fd_0+2
  4475 09:EDC5: D4 08        	pei	<L88+fd_0
  4476 09:EDC7: F4 0C 00     	pea	#12
  4477 09:EDCA: 22 xx xx xx  	jsl	~~f_printf
  4478                        ;	f_printf(fd,
  4479                        	.line	406
  4480                        ;			"     - Bank Size (64 KB for Cod
                    e, 0-64 KB for Data)          :  %06X %d\n",
  4481                        ;			current_header->BankSize, curren
                    t_header->BankSize);
  4482 09:EDCE: A0 1F 00     	ldy	#$1f
  4483 09:EDD1: B7 0C        	lda	[<L88+current_header_0],Y
  4484 09:EDD3: 48           	pha
  4485 09:EDD4: A0 1D 00     	ldy	#$1d
  4486 09:EDD7: B7 0C        	lda	[<L88+current_header_0],Y
  4487 09:EDD9: 48           	pha
  4488 09:EDDA: A0 1F 00     	ldy	#$1f
  4489 09:EDDD: B7 0C        	lda	[<L88+current_header_0],Y
  4490 09:EDDF: 48           	pha
  4491 09:EDE0: A0 1D 00     	ldy	#$1d
  4492 09:EDE3: B7 0C        	lda	[<L88+current_header_0],Y
  4493 09:EDE5: 48           	pha
  4494 09:EDE6: F4 xx xx     	pea	#^L87+515
  4495 09:EDE9: F4 xx xx     	pea	#<L87+515
  4496 09:EDEC: D4 0A        	pei	<L88+fd_0+2
  4497 09:EDEE: D4 08        	pei	<L88+fd_0
  4498 09:EDF0: F4 12 00     	pea	#18
  4499 09:EDF3: 22 xx xx xx  	jsl	~~f_printf
  4500                        ;	f_printf(fd,
  4501                        	.line	409
  4502                        ;			"     - Segment Type + Segment A
                    ttributes                     :    %04X = %s\n",
  4503                        ;			current_header->Kind, GetSegment
                    Kind(current_header->Kind, 0));
  4504 09:EDF7: F4 00 00     	pea	#<$0
  4505 09:EDFA: A0 21 00     	ldy	#$21
  4506 09:EDFD: B7 0C        	lda	[<L88+current_header_0],Y
  4507 09:EDFF: 48           	pha
  4508 09:EE00: 22 04 F2 09  	jsl	~~GetSegmentKind
  4509 09:EE04: 85 01        	sta	<R0
  4510 09:EE06: 86 03        	stx	<R0+2
  4511 09:EE08: DA           	phx
  4512 09:EE09: 48           	pha
  4513 09:EE0A: A0 21 00     	ldy	#$21
  4514 09:EE0D: B7 0C        	lda	[<L88+current_header_0],Y
  4515 09:EE0F: 48           	pha
  4516 09:EE10: F4 xx xx     	pea	#^L87+588
  4517 09:EE13: F4 xx xx     	pea	#<L87+588
  4518 09:EE16: D4 0A        	pei	<L88+fd_0+2
  4519 09:EE18: D4 08        	pei	<L88+fd_0
  4520 09:EE1A: F4 10 00     	pea	#16
  Thu Dec  3 2020 22:25                                                Page 111


  4521 09:EE1D: 22 xx xx xx  	jsl	~~f_printf
  4522                        ;	f_printf(fd,
  4523                        	.line	412
  4524                        ;			"     - Undefined Byte #2 (usual
                    ly set to 0x00)               :      %02X\n",
  4525                        ;			current_header->undefine_2);
  4526 09:EE21: A0 23 00     	ldy	#$23
  4527 09:EE24: B7 0C        	lda	[<L88+current_header_0],Y
  4528 09:EE26: 29 FF 00     	and	#$ff
  4529 09:EE29: 48           	pha
  4530 09:EE2A: F4 xx xx     	pea	#^L87+665
  4531 09:EE2D: F4 xx xx     	pea	#<L87+665
  4532 09:EE30: D4 0A        	pei	<L88+fd_0+2
  4533 09:EE32: D4 08        	pei	<L88+fd_0
  4534 09:EE34: F4 0C 00     	pea	#12
  4535 09:EE37: 22 xx xx xx  	jsl	~~f_printf
  4536                        ;	f_printf(fd,
  4537                        	.line	415
  4538                        ;			"     - Undefined Byte #3 (usual
                    ly set to 0x00)               :      %02X\n",
  4539                        ;			current_header->undefine_3);
  4540 09:EE3B: A0 24 00     	ldy	#$24
  4541 09:EE3E: B7 0C        	lda	[<L88+current_header_0],Y
  4542 09:EE40: 29 FF 00     	and	#$ff
  4543 09:EE43: 48           	pha
  4544 09:EE44: F4 xx xx     	pea	#^L87+739
  4545 09:EE47: F4 xx xx     	pea	#<L87+739
  4546 09:EE4A: D4 0A        	pei	<L88+fd_0+2
  4547 09:EE4C: D4 08        	pei	<L88+fd_0
  4548 09:EE4E: F4 0C 00     	pea	#12
  4549 09:EE51: 22 xx xx xx  	jsl	~~f_printf
  4550                        ;	f_printf(fd,
  4551                        	.line	418
  4552                        ;			"     - Org Address to load the 
                    Segment (0x0000 = anywhere)   :  %06X%s\n",
  4553                        ;			current_header->Org,
  4554                        ;			(current_header->Org == 0) ? "" 
                    : " > Beware, unusual value <");
  4555 09:EE55: A0 25 00     	ldy	#$25
  4556 09:EE58: B7 0C        	lda	[<L88+current_header_0],Y
  4557 09:EE5A: A0 27 00     	ldy	#$27
  4558 09:EE5D: 17 0C        	ora	[<L88+current_header_0],Y
  4559 09:EE5F: F0 03        	beq	L92
  4560 09:EE61: 82 09 00     	brl	L91
  4561                        L92:
  4562 09:EE64: A9 xx xx     	lda	#^L87+885
  4563 09:EE67: AA           	tax
  4564 09:EE68: A9 xx xx     	lda	#<L87+885
  4565 09:EE6B: 80 07        	bra	L93
  4566                        L91:
  4567 09:EE6D: A9 xx xx     	lda	#^L87+886
  4568 09:EE70: AA           	tax
  4569 09:EE71: A9 xx xx     	lda	#<L87+886
  4570                        L93:
  4571 09:EE74: 85 01        	sta	<R0
  4572 09:EE76: 86 03        	stx	<R0+2
  4573 09:EE78: D4 03        	pei	<R0+2
  4574 09:EE7A: D4 01        	pei	<R0
  Thu Dec  3 2020 22:25                                                Page 112


  4575 09:EE7C: A0 27 00     	ldy	#$27
  4576 09:EE7F: B7 0C        	lda	[<L88+current_header_0],Y
  4577 09:EE81: 48           	pha
  4578 09:EE82: A0 25 00     	ldy	#$25
  4579 09:EE85: B7 0C        	lda	[<L88+current_header_0],Y
  4580 09:EE87: 48           	pha
  4581 09:EE88: F4 xx xx     	pea	#^L87+813
  4582 09:EE8B: F4 xx xx     	pea	#<L87+813
  4583 09:EE8E: D4 0A        	pei	<L88+fd_0+2
  4584 09:EE90: D4 08        	pei	<L88+fd_0
  4585 09:EE92: F4 12 00     	pea	#18
  4586 09:EE95: 22 xx xx xx  	jsl	~~f_printf
  4587                        ;	f_printf(fd,
  4588                        	.line	422
  4589                        ;			"     - Boundary for Segment Ali
                    gnment (0, 0x100 or 0x010000) :  %06X = %s\n",
  4590                        ;			current_header->Align, GetSegmen
                    tAlign(current_header->Align));
  4591 09:EE99: A0 2B 00     	ldy	#$2b
  4592 09:EE9C: B7 0C        	lda	[<L88+current_header_0],Y
  4593 09:EE9E: 48           	pha
  4594 09:EE9F: A0 29 00     	ldy	#$29
  4595 09:EEA2: B7 0C        	lda	[<L88+current_header_0],Y
  4596 09:EEA4: 48           	pha
  4597 09:EEA5: 22 45 F4 09  	jsl	~~GetSegmentAlign
  4598 09:EEA9: 85 01        	sta	<R0
  4599 09:EEAB: 86 03        	stx	<R0+2
  4600 09:EEAD: DA           	phx
  4601 09:EEAE: 48           	pha
  4602 09:EEAF: A0 2B 00     	ldy	#$2b
  4603 09:EEB2: B7 0C        	lda	[<L88+current_header_0],Y
  4604 09:EEB4: 48           	pha
  4605 09:EEB5: A0 29 00     	ldy	#$29
  4606 09:EEB8: B7 0C        	lda	[<L88+current_header_0],Y
  4607 09:EEBA: 48           	pha
  4608 09:EEBB: F4 xx xx     	pea	#^L87+913
  4609 09:EEBE: F4 xx xx     	pea	#<L87+913
  4610 09:EEC1: D4 0A        	pei	<L88+fd_0+2
  4611 09:EEC3: D4 08        	pei	<L88+fd_0
  4612 09:EEC5: F4 12 00     	pea	#18
  4613 09:EEC8: 22 xx xx xx  	jsl	~~f_printf
  4614                        ;	f_printf(fd,
  4615                        	.line	425
  4616                        ;			"     - Order of the bytes in a 
                    Number (0x00 for the IIgs)    :      %02X\n",
  4617                        ;			current_header->NumSEx);
  4618 09:EECC: A0 2D 00     	ldy	#$2d
  4619 09:EECF: B7 0C        	lda	[<L88+current_header_0],Y
  4620 09:EED1: 29 FF 00     	and	#$ff
  4621 09:EED4: 48           	pha
  4622 09:EED5: F4 xx xx     	pea	#^L87+988
  4623 09:EED8: F4 xx xx     	pea	#<L87+988
  4624 09:EEDB: D4 0A        	pei	<L88+fd_0+2
  4625 09:EEDD: D4 08        	pei	<L88+fd_0
  4626 09:EEDF: F4 0C 00     	pea	#12
  4627 09:EEE2: 22 xx xx xx  	jsl	~~f_printf
  4628                        ;	f_printf(fd,
  4629                        	.line	428
  Thu Dec  3 2020 22:25                                                Page 113


  4630                        ;			"     - Undefined Byte #4 (usual
                    ly set to 0x00)               :      %02X\n",
  4631                        ;			current_header->undefine_4);
  4632 09:EEE6: A0 2F 00     	ldy	#$2f
  4633 09:EEE9: B7 0C        	lda	[<L88+current_header_0],Y
  4634 09:EEEB: 29 FF 00     	and	#$ff
  4635 09:EEEE: 48           	pha
  4636 09:EEEF: F4 xx xx     	pea	#^L87+1062
  4637 09:EEF2: F4 xx xx     	pea	#<L87+1062
  4638 09:EEF5: D4 0A        	pei	<L88+fd_0+2
  4639 09:EEF7: D4 08        	pei	<L88+fd_0
  4640 09:EEF9: F4 0C 00     	pea	#12
  4641 09:EEFC: 22 xx xx xx  	jsl	~~f_printf
  4642                        ;	f_printf(fd,
  4643                        	.line	431
  4644                        ;			"     - Segment Number (1 to N) 
                                                  :    %04X %d\n",
  4645                        ;			current_header->SegNum, current_
                    header->SegNum);
  4646 09:EF00: A0 30 00     	ldy	#$30
  4647 09:EF03: B7 0C        	lda	[<L88+current_header_0],Y
  4648 09:EF05: 48           	pha
  4649 09:EF06: A0 30 00     	ldy	#$30
  4650 09:EF09: B7 0C        	lda	[<L88+current_header_0],Y
  4651 09:EF0B: 48           	pha
  4652 09:EF0C: F4 xx xx     	pea	#^L87+1136
  4653 09:EF0F: F4 xx xx     	pea	#<L87+1136
  4654 09:EF12: D4 0A        	pei	<L88+fd_0+2
  4655 09:EF14: D4 08        	pei	<L88+fd_0
  4656 09:EF16: F4 0E 00     	pea	#14
  4657 09:EF19: 22 xx xx xx  	jsl	~~f_printf
  4658                        ;	f_printf(fd,
  4659                        	.line	434
  4660                        ;			"     - Entry Point in the Segme
                    nt                            :  %06X %d\n",
  4661                        ;			current_header->EntryPointOffset
                    , current_header->EntryPointOffset);
  4662 09:EF1D: A0 34 00     	ldy	#$34
  4663 09:EF20: B7 0C        	lda	[<L88+current_header_0],Y
  4664 09:EF22: 48           	pha
  4665 09:EF23: A0 32 00     	ldy	#$32
  4666 09:EF26: B7 0C        	lda	[<L88+current_header_0],Y
  4667 09:EF28: 48           	pha
  4668 09:EF29: A0 34 00     	ldy	#$34
  4669 09:EF2C: B7 0C        	lda	[<L88+current_header_0],Y
  4670 09:EF2E: 48           	pha
  4671 09:EF2F: A0 32 00     	ldy	#$32
  4672 09:EF32: B7 0C        	lda	[<L88+current_header_0],Y
  4673 09:EF34: 48           	pha
  4674 09:EF35: F4 xx xx     	pea	#^L87+1211
  4675 09:EF38: F4 xx xx     	pea	#<L87+1211
  4676 09:EF3B: D4 0A        	pei	<L88+fd_0+2
  4677 09:EF3D: D4 08        	pei	<L88+fd_0
  4678 09:EF3F: F4 12 00     	pea	#18
  4679 09:EF42: 22 xx xx xx  	jsl	~~f_printf
  4680                        ;	f_printf(fd,
  4681                        	.line	437
  4682                        ;			"     - Load Name               
  Thu Dec  3 2020 22:25                                                Page 114


                                                  :  '%s'\n",
  4683                        ;			current_header->LoadName);
  4684 09:EF46: 18           	clc
  4685 09:EF47: A9 3C 08     	lda	#$83c
  4686 09:EF4A: 65 0C        	adc	<L88+current_header_0
  4687 09:EF4C: 85 01        	sta	<R0
  4688 09:EF4E: A9 00 00     	lda	#$0
  4689 09:EF51: 65 0E        	adc	<L88+current_header_0+2
  4690 09:EF53: 85 03        	sta	<R0+2
  4691 09:EF55: D4 03        	pei	<R0+2
  4692 09:EF57: D4 01        	pei	<R0
  4693 09:EF59: F4 xx xx     	pea	#^L87+1284
  4694 09:EF5C: F4 xx xx     	pea	#<L87+1284
  4695 09:EF5F: D4 0A        	pei	<L88+fd_0+2
  4696 09:EF61: D4 08        	pei	<L88+fd_0
  4697 09:EF63: F4 0E 00     	pea	#14
  4698 09:EF66: 22 xx xx xx  	jsl	~~f_printf
  4699                        ;	f_printf(fd,
  4700                        	.line	440
  4701                        ;			"     - Segment Name            
                                                  :  '%s'\n\n",
  4702                        ;			current_header->SegName);
  4703 09:EF6A: 18           	clc
  4704 09:EF6B: A9 3C 09     	lda	#$93c
  4705 09:EF6E: 65 0C        	adc	<L88+current_header_0
  4706 09:EF70: 85 01        	sta	<R0
  4707 09:EF72: A9 00 00     	lda	#$0
  4708 09:EF75: 65 0E        	adc	<L88+current_header_0+2
  4709 09:EF77: 85 03        	sta	<R0+2
  4710 09:EF79: D4 03        	pei	<R0+2
  4711 09:EF7B: D4 01        	pei	<R0
  4712 09:EF7D: F4 xx xx     	pea	#^L87+1354
  4713 09:EF80: F4 xx xx     	pea	#<L87+1354
  4714 09:EF83: D4 0A        	pei	<L88+fd_0+2
  4715 09:EF85: D4 08        	pei	<L88+fd_0
  4716 09:EF87: F4 0E 00     	pea	#14
  4717 09:EF8A: 22 xx xx xx  	jsl	~~f_printf
  4718                        ;}
  4719                        	.line	443
  4720                        L94:
  4721 09:EF8E: A5 06        	lda	<L88+2
  4722 09:EF90: 85 0E        	sta	<L88+2+8
  4723 09:EF92: A5 05        	lda	<L88+1
  4724 09:EF94: 85 0D        	sta	<L88+1+8
  4725 09:EF96: 2B           	pld
  4726 09:EF97: 3B           	tsc
  4727 09:EF98: 18           	clc
  4728 09:EF99: 69 0C 00     	adc	#L88+8
  4729 09:EF9C: 1B           	tcs
  4730 09:EF9D: 6B           	rtl
  4731                        	.endblock	443
  4732             00000004   L88	equ	4
  4733             00000005   L89	equ	5
  4734 09:EF9E:              	ends
  4735                        	efunc
  4736                        	.endfunc	443,5,4
  4737                        	.line	443
  4738                        	data
  Thu Dec  3 2020 22:25                                                Page 115


  4739                        L87:
  4740 00:16CD: 20 20 20 20  	db	$20,$20,$20,$20,$20,$2D,$20,$53,$65,$67,
                    $6D,$65,$6E,$74,$20
       00:16D1: 20 2D 20 53 
       00:16D5: 65 67 6D 65 
       00:16D9: 6E 74 20 
  4741 00:16DC: 48 65 61 64  	db	$48,$65,$61,$64,$65,$72,$20,$73,$69,$7A,
                    $65,$20,$2B,$20,$53
       00:16E0: 65 72 20 73 
       00:16E4: 69 7A 65 20 
       00:16E8: 2B 20 53 
  4742 00:16EB: 65 67 6D 65  	db	$65,$67,$6D,$65,$6E,$74,$20,$42,$6F,$64,
                    $79,$20,$73,$69,$7A
       00:16EF: 6E 74 20 42 
       00:16F3: 6F 64 79 20 
       00:16F7: 73 69 7A 
  4743 00:16FA: 65 20 20 20  	db	$65,$20,$20,$20,$20,$20,$20,$20,$20,$20,
                    $20,$20,$20,$20,$20
       00:16FE: 20 20 20 20 
       00:1702: 20 20 20 20 
       00:1706: 20 20 20 
  4744 00:1709: 20 3A 20 20  	db	$20,$3A,$20,$20,$25,$30,$36,$58,$20,$25,
                    $64,$0A,$00,$20,$20
       00:170D: 25 30 36 58 
       00:1711: 20 25 64 0A 
       00:1715: 00 20 20 
  4745 00:1718: 20 20 20 2D  	db	$20,$20,$20,$2D,$20,$4E,$75,$6D,$62,$65,
                    $72,$20,$6F,$66,$20
       00:171C: 20 4E 75 6D 
       00:1720: 62 65 72 20 
       00:1724: 6F 66 20 
  4746 00:1727: 30 78 30 30  	db	$30,$78,$30,$30,$20,$74,$6F,$20,$61,$64,
                    $64,$20,$61,$74,$20
       00:172B: 20 74 6F 20 
       00:172F: 61 64 64 20 
       00:1733: 61 74 20 
  4747 00:1736: 74 68 65 20  	db	$74,$68,$65,$20,$65,$6E,$64,$20,$6F,$66,
                    $20,$74,$68,$65,$20
       00:173A: 65 6E 64 20 
       00:173E: 6F 66 20 74 
       00:1742: 68 65 20 
  4748 00:1745: 53 65 67 6D  	db	$53,$65,$67,$6D,$65,$6E,$74,$20,$42,$6F,
                    $64,$79,$20,$20,$3A
       00:1749: 65 6E 74 20 
       00:174D: 42 6F 64 79 
       00:1751: 20 20 3A 
  4749 00:1754: 20 20 25 30  	db	$20,$20,$25,$30,$36,$58,$20,$25,$64,$0A,
                    $00,$20,$20,$20,$20
       00:1758: 36 58 20 25 
       00:175C: 64 0A 00 20 
       00:1760: 20 20 20 
  4750 00:1763: 20 2D 20 53  	db	$20,$2D,$20,$53,$69,$7A,$65,$20,$6F,$66,
                    $20,$74,$68,$65,$20
       00:1767: 69 7A 65 20 
       00:176B: 6F 66 20 74 
       00:176F: 68 65 20 
  4751 00:1772: 53 65 67 6D  	db	$53,$65,$67,$6D,$65,$6E,$74,$20,$6F,$6E,
                    $63,$65,$20,$6C,$6F
  Thu Dec  3 2020 22:25                                                Page 116


       00:1776: 65 6E 74 20 
       00:177A: 6F 6E 63 65 
       00:177E: 20 6C 6F 
  4752 00:1781: 61 64 65 64  	db	$61,$64,$65,$64,$20,$69,$6E,$20,$4D,$65,
                    $6D,$6F,$72,$79,$20
       00:1785: 20 69 6E 20 
       00:1789: 4D 65 6D 6F 
       00:178D: 72 79 20 
  4753 00:1790: 20 20 20 20  	db	$20,$20,$20,$20,$20,$20,$20,$20,$20,$20,
                    $20,$20,$3A,$20,$20
       00:1794: 20 20 20 20 
       00:1798: 20 20 20 20 
       00:179C: 3A 20 20 
  4754 00:179F: 25 30 36 58  	db	$25,$30,$36,$58,$20,$25,$64,$0A,$00,$20,
                    $20,$20,$20,$20,$2D
       00:17A3: 20 25 64 0A 
       00:17A7: 00 20 20 20 
       00:17AB: 20 20 2D 
  4755 00:17AE: 20 55 6E 64  	db	$20,$55,$6E,$64,$65,$66,$69,$6E,$65,$64,
                    $20,$42,$79,$74,$65
       00:17B2: 65 66 69 6E 
       00:17B6: 65 64 20 42 
       00:17BA: 79 74 65 
  4756 00:17BD: 20 23 31 20  	db	$20,$23,$31,$20,$28,$75,$73,$75,$61,$6C,
                    $6C,$79,$20,$73,$65
       00:17C1: 28 75 73 75 
       00:17C5: 61 6C 6C 79 
       00:17C9: 20 73 65 
  4757 00:17CC: 74 20 74 6F  	db	$74,$20,$74,$6F,$20,$30,$78,$30,$30,$29,
                    $20,$20,$20,$20,$20
       00:17D0: 20 30 78 30 
       00:17D4: 30 29 20 20 
       00:17D8: 20 20 20 
  4758 00:17DB: 20 20 20 20  	db	$20,$20,$20,$20,$20,$20,$20,$20,$20,$20,
                    $3A,$20,$20,$20,$20
       00:17DF: 20 20 20 20 
       00:17E3: 20 20 3A 20 
       00:17E7: 20 20 20 
  4759 00:17EA: 20 20 25 30  	db	$20,$20,$25,$30,$32,$58,$0A,$00,$20,$20,
                    $20,$20,$20,$2D,$20
       00:17EE: 32 58 0A 00 
       00:17F2: 20 20 20 20 
       00:17F6: 20 2D 20 
  4760 00:17F9: 4C 61 62 65  	db	$4C,$61,$62,$65,$6C,$20,$4C,$65,$6E,$67,
                    $74,$68,$20,$28,$75
       00:17FD: 6C 20 4C 65 
       00:1801: 6E 67 74 68 
       00:1805: 20 28 75 
  4761 00:1808: 73 75 61 6C  	db	$73,$75,$61,$6C,$6C,$79,$20,$73,$65,$74,
                    $20,$74,$6F,$20,$30
       00:180C: 6C 79 20 73 
       00:1810: 65 74 20 74 
       00:1814: 6F 20 30 
  4762 00:1817: 78 30 30 20  	db	$78,$30,$30,$20,$6F,$72,$20,$30,$78,$30,
                    $41,$29,$20,$20,$20
       00:181B: 6F 72 20 30 
       00:181F: 78 30 41 29 
       00:1823: 20 20 20 
  Thu Dec  3 2020 22:25                                                Page 117


  4763 00:1826: 20 20 20 20  	db	$20,$20,$20,$20,$20,$20,$20,$20,$20,$3A,
                    $20,$20,$20,$20,$20
       00:182A: 20 20 20 20 
       00:182E: 20 3A 20 20 
       00:1832: 20 20 20 
  4764 00:1835: 20 25 30 32  	db	$20,$25,$30,$32,$58,$0A,$00,$20,$20,$20,
                    $20,$20,$2D,$20,$4E
       00:1839: 58 0A 00 20 
       00:183D: 20 20 20 20 
       00:1841: 2D 20 4E 
  4765 00:1844: 75 6D 62 65  	db	$75,$6D,$62,$65,$72,$20,$4C,$65,$6E,$67,
                    $74,$68,$20,$28,$75
       00:1848: 72 20 4C 65 
       00:184C: 6E 67 74 68 
       00:1850: 20 28 75 
  4766 00:1853: 73 75 61 6C  	db	$73,$75,$61,$6C,$6C,$79,$20,$73,$65,$74,
                    $20,$74,$6F,$20,$34
       00:1857: 6C 79 20 73 
       00:185B: 65 74 20 74 
       00:185F: 6F 20 34 
  4767 00:1862: 20 62 79 74  	db	$20,$62,$79,$74,$65,$73,$29,$20,$20,$20,
                    $20,$20,$20,$20,$20
       00:1866: 65 73 29 20 
       00:186A: 20 20 20 20 
       00:186E: 20 20 20 
  4768 00:1871: 20 20 20 20  	db	$20,$20,$20,$20,$20,$20,$20,$20,$3A,$20,
                    $20,$20,$20,$20,$20
       00:1875: 20 20 20 20 
       00:1879: 3A 20 20 20 
       00:187D: 20 20 20 
  4769 00:1880: 25 30 32 58  	db	$25,$30,$32,$58,$0A,$00,$20,$20,$20,$20,
                    $20,$2D,$20,$53,$65
       00:1884: 0A 00 20 20 
       00:1888: 20 20 20 2D 
       00:188C: 20 53 65 
  4770 00:188F: 67 6D 65 6E  	db	$67,$6D,$65,$6E,$74,$20,$4F,$4D,$46,$20,
                    $56,$65,$72,$73,$69
       00:1893: 74 20 4F 4D 
       00:1897: 46 20 56 65 
       00:189B: 72 73 69 
  4771 00:189E: 6F 6E 20 28  	db	$6F,$6E,$20,$28,$73,$68,$6F,$75,$6C,$64,
                    $20,$62,$65,$20,$30
       00:18A2: 73 68 6F 75 
       00:18A6: 6C 64 20 62 
       00:18AA: 65 20 30 
  4772 00:18AD: 78 30 32 20  	db	$78,$30,$32,$20,$66,$6F,$72,$20,$32,$2E,
                    $31,$29,$20,$20,$20
       00:18B1: 66 6F 72 20 
       00:18B5: 32 2E 31 29 
       00:18B9: 20 20 20 
  4773 00:18BC: 20 20 20 20  	db	$20,$20,$20,$20,$20,$20,$20,$3A,$20,$20,
                    $20,$20,$20,$20,$25
       00:18C0: 20 20 20 3A 
       00:18C4: 20 20 20 20 
       00:18C8: 20 20 25 
  4774 00:18CB: 30 32 58 0A  	db	$30,$32,$58,$0A,$00,$20,$20,$20,$20,$20,
                    $2D,$20,$42,$61,$6E
       00:18CF: 00 20 20 20 
  Thu Dec  3 2020 22:25                                                Page 118


       00:18D3: 20 20 2D 20 
       00:18D7: 42 61 6E 
  4775 00:18DA: 6B 20 53 69  	db	$6B,$20,$53,$69,$7A,$65,$20,$28,$36,$34,
                    $20,$4B,$42,$20,$66
       00:18DE: 7A 65 20 28 
       00:18E2: 36 34 20 4B 
       00:18E6: 42 20 66 
  4776 00:18E9: 6F 72 20 43  	db	$6F,$72,$20,$43,$6F,$64,$65,$2C,$20,$30,
                    $2D,$36,$34,$20,$4B
       00:18ED: 6F 64 65 2C 
       00:18F1: 20 30 2D 36 
       00:18F5: 34 20 4B 
  4777 00:18F8: 42 20 66 6F  	db	$42,$20,$66,$6F,$72,$20,$44,$61,$74,$61,
                    $29,$20,$20,$20,$20
       00:18FC: 72 20 44 61 
       00:1900: 74 61 29 20 
       00:1904: 20 20 20 
  4778 00:1907: 20 20 20 20  	db	$20,$20,$20,$20,$20,$20,$3A,$20,$20,$25,
                    $30,$36,$58,$20,$25
       00:190B: 20 20 3A 20 
       00:190F: 20 25 30 36 
       00:1913: 58 20 25 
  4779 00:1916: 64 0A 00 20  	db	$64,$0A,$00,$20,$20,$20,$20,$20,$2D,$20,
                    $53,$65,$67,$6D,$65
       00:191A: 20 20 20 20 
       00:191E: 2D 20 53 65 
       00:1922: 67 6D 65 
  4780 00:1925: 6E 74 20 54  	db	$6E,$74,$20,$54,$79,$70,$65,$20,$2B,$20,
                    $53,$65,$67,$6D,$65
       00:1929: 79 70 65 20 
       00:192D: 2B 20 53 65 
       00:1931: 67 6D 65 
  4781 00:1934: 6E 74 20 41  	db	$6E,$74,$20,$41,$74,$74,$72,$69,$62,$75,
                    $74,$65,$73,$20,$20
       00:1938: 74 74 72 69 
       00:193C: 62 75 74 65 
       00:1940: 73 20 20 
  4782 00:1943: 20 20 20 20  	db	$20,$20,$20,$20,$20,$20,$20,$20,$20,$20,
                    $20,$20,$20,$20,$20
       00:1947: 20 20 20 20 
       00:194B: 20 20 20 20 
       00:194F: 20 20 20 
  4783 00:1952: 20 20 20 20  	db	$20,$20,$20,$20,$3A,$20,$20,$20,$20,$25,
                    $30,$34,$58,$20,$3D
       00:1956: 3A 20 20 20 
       00:195A: 20 25 30 34 
       00:195E: 58 20 3D 
  4784 00:1961: 20 25 73 0A  	db	$20,$25,$73,$0A,$00,$20,$20,$20,$20,$20,
                    $2D,$20,$55,$6E,$64
       00:1965: 00 20 20 20 
       00:1969: 20 20 2D 20 
       00:196D: 55 6E 64 
  4785 00:1970: 65 66 69 6E  	db	$65,$66,$69,$6E,$65,$64,$20,$42,$79,$74,
                    $65,$20,$23,$32,$20
       00:1974: 65 64 20 42 
       00:1978: 79 74 65 20 
       00:197C: 23 32 20 
  4786 00:197F: 28 75 73 75  	db	$28,$75,$73,$75,$61,$6C,$6C,$79,$20,$73,
  Thu Dec  3 2020 22:25                                                Page 119


                    $65,$74,$20,$74,$6F
       00:1983: 61 6C 6C 79 
       00:1987: 20 73 65 74 
       00:198B: 20 74 6F 
  4787 00:198E: 20 30 78 30  	db	$20,$30,$78,$30,$30,$29,$20,$20,$20,$20,
                    $20,$20,$20,$20,$20
       00:1992: 30 29 20 20 
       00:1996: 20 20 20 20 
       00:199A: 20 20 20 
  4788 00:199D: 20 20 20 20  	db	$20,$20,$20,$20,$20,$20,$3A,$20,$20,$20,
                    $20,$20,$20,$25,$30
       00:19A1: 20 20 3A 20 
       00:19A5: 20 20 20 20 
       00:19A9: 20 25 30 
  4789 00:19AC: 32 58 0A 00  	db	$32,$58,$0A,$00,$20,$20,$20,$20,$20,$2D,
                    $20,$55,$6E,$64,$65
       00:19B0: 20 20 20 20 
       00:19B4: 20 2D 20 55 
       00:19B8: 6E 64 65 
  4790 00:19BB: 66 69 6E 65  	db	$66,$69,$6E,$65,$64,$20,$42,$79,$74,$65,
                    $20,$23,$33,$20,$28
       00:19BF: 64 20 42 79 
       00:19C3: 74 65 20 23 
       00:19C7: 33 20 28 
  4791 00:19CA: 75 73 75 61  	db	$75,$73,$75,$61,$6C,$6C,$79,$20,$73,$65,
                    $74,$20,$74,$6F,$20
       00:19CE: 6C 6C 79 20 
       00:19D2: 73 65 74 20 
       00:19D6: 74 6F 20 
  4792 00:19D9: 30 78 30 30  	db	$30,$78,$30,$30,$29,$20,$20,$20,$20,$20,
                    $20,$20,$20,$20,$20
       00:19DD: 29 20 20 20 
       00:19E1: 20 20 20 20 
       00:19E5: 20 20 20 
  4793 00:19E8: 20 20 20 20  	db	$20,$20,$20,$20,$20,$3A,$20,$20,$20,$20,
                    $20,$20,$25,$30,$32
       00:19EC: 20 3A 20 20 
       00:19F0: 20 20 20 20 
       00:19F4: 25 30 32 
  4794 00:19F7: 58 0A 00 20  	db	$58,$0A,$00,$20,$20,$20,$20,$20,$2D,$20,
                    $4F,$72,$67,$20,$41
       00:19FB: 20 20 20 20 
       00:19FF: 2D 20 4F 72 
       00:1A03: 67 20 41 
  4795 00:1A06: 64 64 72 65  	db	$64,$64,$72,$65,$73,$73,$20,$74,$6F,$20,
                    $6C,$6F,$61,$64,$20
       00:1A0A: 73 73 20 74 
       00:1A0E: 6F 20 6C 6F 
       00:1A12: 61 64 20 
  4796 00:1A15: 74 68 65 20  	db	$74,$68,$65,$20,$53,$65,$67,$6D,$65,$6E,
                    $74,$20,$28,$30,$78
       00:1A19: 53 65 67 6D 
       00:1A1D: 65 6E 74 20 
       00:1A21: 28 30 78 
  4797 00:1A24: 30 30 30 30  	db	$30,$30,$30,$30,$20,$3D,$20,$61,$6E,$79,
                    $77,$68,$65,$72,$65
       00:1A28: 20 3D 20 61 
       00:1A2C: 6E 79 77 68 
  Thu Dec  3 2020 22:25                                                Page 120


       00:1A30: 65 72 65 
  4798 00:1A33: 29 20 20 20  	db	$29,$20,$20,$20,$3A,$20,$20,$25,$30,$36,
                    $58,$25,$73,$0A,$00
       00:1A37: 3A 20 20 25 
       00:1A3B: 30 36 58 25 
       00:1A3F: 73 0A 00 
  4799 00:1A42: 00 20 3E 20  	db	$00,$20,$3E,$20,$42,$65,$77,$61,$72,$65,
                    $2C,$20,$75,$6E,$75
       00:1A46: 42 65 77 61 
       00:1A4A: 72 65 2C 20 
       00:1A4E: 75 6E 75 
  4800 00:1A51: 73 75 61 6C  	db	$73,$75,$61,$6C,$20,$76,$61,$6C,$75,$65,
                    $20,$3C,$00,$20,$20
       00:1A55: 20 76 61 6C 
       00:1A59: 75 65 20 3C 
       00:1A5D: 00 20 20 
  4801 00:1A60: 20 20 20 2D  	db	$20,$20,$20,$2D,$20,$42,$6F,$75,$6E,$64,
                    $61,$72,$79,$20,$66
       00:1A64: 20 42 6F 75 
       00:1A68: 6E 64 61 72 
       00:1A6C: 79 20 66 
  4802 00:1A6F: 6F 72 20 53  	db	$6F,$72,$20,$53,$65,$67,$6D,$65,$6E,$74,
                    $20,$41,$6C,$69,$67
       00:1A73: 65 67 6D 65 
       00:1A77: 6E 74 20 41 
       00:1A7B: 6C 69 67 
  4803 00:1A7E: 6E 6D 65 6E  	db	$6E,$6D,$65,$6E,$74,$20,$28,$30,$2C,$20,
                    $30,$78,$31,$30,$30
       00:1A82: 74 20 28 30 
       00:1A86: 2C 20 30 78 
       00:1A8A: 31 30 30 
  4804 00:1A8D: 20 6F 72 20  	db	$20,$6F,$72,$20,$30,$78,$30,$31,$30,$30,
                    $30,$30,$29,$20,$3A
       00:1A91: 30 78 30 31 
       00:1A95: 30 30 30 30 
       00:1A99: 29 20 3A 
  4805 00:1A9C: 20 20 25 30  	db	$20,$20,$25,$30,$36,$58,$20,$3D,$20,$25,
                    $73,$0A,$00,$20,$20
       00:1AA0: 36 58 20 3D 
       00:1AA4: 20 25 73 0A 
       00:1AA8: 00 20 20 
  4806 00:1AAB: 20 20 20 2D  	db	$20,$20,$20,$2D,$20,$4F,$72,$64,$65,$72,
                    $20,$6F,$66,$20,$74
       00:1AAF: 20 4F 72 64 
       00:1AB3: 65 72 20 6F 
       00:1AB7: 66 20 74 
  4807 00:1ABA: 68 65 20 62  	db	$68,$65,$20,$62,$79,$74,$65,$73,$20,$69,
                    $6E,$20,$61,$20,$4E
       00:1ABE: 79 74 65 73 
       00:1AC2: 20 69 6E 20 
       00:1AC6: 61 20 4E 
  4808 00:1AC9: 75 6D 62 65  	db	$75,$6D,$62,$65,$72,$20,$28,$30,$78,$30,
                    $30,$20,$66,$6F,$72
       00:1ACD: 72 20 28 30 
       00:1AD1: 78 30 30 20 
       00:1AD5: 66 6F 72 
  4809 00:1AD8: 20 74 68 65  	db	$20,$74,$68,$65,$20,$49,$49,$67,$73,$29,
                    $20,$20,$20,$20,$3A
  Thu Dec  3 2020 22:25                                                Page 121


       00:1ADC: 20 49 49 67 
       00:1AE0: 73 29 20 20 
       00:1AE4: 20 20 3A 
  4810 00:1AE7: 20 20 20 20  	db	$20,$20,$20,$20,$20,$20,$25,$30,$32,$58,
                    $0A,$00,$20,$20,$20
       00:1AEB: 20 20 25 30 
       00:1AEF: 32 58 0A 00 
       00:1AF3: 20 20 20 
  4811 00:1AF6: 20 20 2D 20  	db	$20,$20,$2D,$20,$55,$6E,$64,$65,$66,$69,
                    $6E,$65,$64,$20,$42
       00:1AFA: 55 6E 64 65 
       00:1AFE: 66 69 6E 65 
       00:1B02: 64 20 42 
  4812 00:1B05: 79 74 65 20  	db	$79,$74,$65,$20,$23,$34,$20,$28,$75,$73,
                    $75,$61,$6C,$6C,$79
       00:1B09: 23 34 20 28 
       00:1B0D: 75 73 75 61 
       00:1B11: 6C 6C 79 
  4813 00:1B14: 20 73 65 74  	db	$20,$73,$65,$74,$20,$74,$6F,$20,$30,$78,
                    $30,$30,$29,$20,$20
       00:1B18: 20 74 6F 20 
       00:1B1C: 30 78 30 30 
       00:1B20: 29 20 20 
  4814 00:1B23: 20 20 20 20  	db	$20,$20,$20,$20,$20,$20,$20,$20,$20,$20,
                    $20,$20,$20,$3A,$20
       00:1B27: 20 20 20 20 
       00:1B2B: 20 20 20 20 
       00:1B2F: 20 3A 20 
  4815 00:1B32: 20 20 20 20  	db	$20,$20,$20,$20,$20,$25,$30,$32,$58,$0A,
                    $00,$20,$20,$20,$20
       00:1B36: 20 25 30 32 
       00:1B3A: 58 0A 00 20 
       00:1B3E: 20 20 20 
  4816 00:1B41: 20 2D 20 53  	db	$20,$2D,$20,$53,$65,$67,$6D,$65,$6E,$74,
                    $20,$4E,$75,$6D,$62
       00:1B45: 65 67 6D 65 
       00:1B49: 6E 74 20 4E 
       00:1B4D: 75 6D 62 
  4817 00:1B50: 65 72 20 28  	db	$65,$72,$20,$28,$31,$20,$74,$6F,$20,$4E,
                    $29,$20,$20,$20,$20
       00:1B54: 31 20 74 6F 
       00:1B58: 20 4E 29 20 
       00:1B5C: 20 20 20 
  4818 00:1B5F: 20 20 20 20  	db	$20,$20,$20,$20,$20,$20,$20,$20,$20,$20,
                    $20,$20,$20,$20,$20
       00:1B63: 20 20 20 20 
       00:1B67: 20 20 20 20 
       00:1B6B: 20 20 20 
  4819 00:1B6E: 20 20 20 20  	db	$20,$20,$20,$20,$20,$20,$20,$20,$20,$20,
                    $20,$20,$3A,$20,$20
       00:1B72: 20 20 20 20 
       00:1B76: 20 20 20 20 
       00:1B7A: 3A 20 20 
  4820 00:1B7D: 20 20 25 30  	db	$20,$20,$25,$30,$34,$58,$20,$25,$64,$0A,
                    $00,$20,$20,$20,$20
       00:1B81: 34 58 20 25 
       00:1B85: 64 0A 00 20 
       00:1B89: 20 20 20 
  Thu Dec  3 2020 22:25                                                Page 122


  4821 00:1B8C: 20 2D 20 45  	db	$20,$2D,$20,$45,$6E,$74,$72,$79,$20,$50,
                    $6F,$69,$6E,$74,$20
       00:1B90: 6E 74 72 79 
       00:1B94: 20 50 6F 69 
       00:1B98: 6E 74 20 
  4822 00:1B9B: 69 6E 20 74  	db	$69,$6E,$20,$74,$68,$65,$20,$53,$65,$67,
                    $6D,$65,$6E,$74,$20
       00:1B9F: 68 65 20 53 
       00:1BA3: 65 67 6D 65 
       00:1BA7: 6E 74 20 
  4823 00:1BAA: 20 20 20 20  	db	$20,$20,$20,$20,$20,$20,$20,$20,$20,$20,
                    $20,$20,$20,$20,$20
       00:1BAE: 20 20 20 20 
       00:1BB2: 20 20 20 20 
       00:1BB6: 20 20 20 
  4824 00:1BB9: 20 20 20 20  	db	$20,$20,$20,$20,$20,$20,$20,$20,$20,$20,
                    $20,$20,$3A,$20,$20
       00:1BBD: 20 20 20 20 
       00:1BC1: 20 20 20 20 
       00:1BC5: 3A 20 20 
  4825 00:1BC8: 25 30 36 58  	db	$25,$30,$36,$58,$20,$25,$64,$0A,$00,$20,
                    $20,$20,$20,$20,$2D
       00:1BCC: 20 25 64 0A 
       00:1BD0: 00 20 20 20 
       00:1BD4: 20 20 2D 
  4826 00:1BD7: 20 4C 6F 61  	db	$20,$4C,$6F,$61,$64,$20,$4E,$61,$6D,$65,
                    $20,$20,$20,$20,$20
       00:1BDB: 64 20 4E 61 
       00:1BDF: 6D 65 20 20 
       00:1BE3: 20 20 20 
  4827 00:1BE6: 20 20 20 20  	db	$20,$20,$20,$20,$20,$20,$20,$20,$20,$20,
                    $20,$20,$20,$20,$20
       00:1BEA: 20 20 20 20 
       00:1BEE: 20 20 20 20 
       00:1BF2: 20 20 20 
  4828 00:1BF5: 20 20 20 20  	db	$20,$20,$20,$20,$20,$20,$20,$20,$20,$20,
                    $20,$20,$20,$20,$20
       00:1BF9: 20 20 20 20 
       00:1BFD: 20 20 20 20 
       00:1C01: 20 20 20 
  4829 00:1C04: 20 20 20 20  	db	$20,$20,$20,$20,$20,$20,$20,$20,$20,$20,
                    $3A,$20,$20,$27,$25
       00:1C08: 20 20 20 20 
       00:1C0C: 20 20 3A 20 
       00:1C10: 20 27 25 
  4830 00:1C13: 73 27 0A 00  	db	$73,$27,$0A,$00,$20,$20,$20,$20,$20,$2D,
                    $20,$53,$65,$67,$6D
       00:1C17: 20 20 20 20 
       00:1C1B: 20 2D 20 53 
       00:1C1F: 65 67 6D 
  4831 00:1C22: 65 6E 74 20  	db	$65,$6E,$74,$20,$4E,$61,$6D,$65,$20,$20,
                    $20,$20,$20,$20,$20
       00:1C26: 4E 61 6D 65 
       00:1C2A: 20 20 20 20 
       00:1C2E: 20 20 20 
  4832 00:1C31: 20 20 20 20  	db	$20,$20,$20,$20,$20,$20,$20,$20,$20,$20,
                    $20,$20,$20,$20,$20
       00:1C35: 20 20 20 20 
  Thu Dec  3 2020 22:25                                                Page 123


       00:1C39: 20 20 20 20 
       00:1C3D: 20 20 20 
  4833 00:1C40: 20 20 20 20  	db	$20,$20,$20,$20,$20,$20,$20,$20,$20,$20,
                    $20,$20,$20,$20,$20
       00:1C44: 20 20 20 20 
       00:1C48: 20 20 20 20 
       00:1C4C: 20 20 20 
  4834 00:1C4F: 20 20 20 20  	db	$20,$20,$20,$20,$20,$3A,$20,$20,$27,$25,
                    $73,$27,$0A,$0A,$00
       00:1C53: 20 3A 20 20 
       00:1C57: 27 25 73 27 
       00:1C5B: 0A 0A 00 
  4835 00:1C5E:              	ends
  4836                        ;
  4837                        ;/*
  4838                        ;static void DumpExpressLoadData(struct omf_segmen
                    t *current_segment, FIL *fd)
  4839                        ;{
  4840                        ;  DWORD value_dwd;
  4841                        ;  WORD value_wd;
  4842                        ;  BYTE value_byte;
  4843                        ;  int i, nb_segment, length, offset, label_length
                    ;
  4844                        ;  unsigned char *data;
  4845                        ;  unsigned char zero_12[12] = {0x00,0x00,0x00,0x0
                    0,0x00,0x00,0x00,0x00,0x00,0x00,0x00,0x00};
  4846                        ;  char name[256];
  4847                        ;
  4848                        ;  offset = 0;
  4849                        ;  length = current_segment->data_length;
  4850                        ;  data = current_segment->data;
  4851                        ;
  4852                        ;   f_printf(fd,"     - ExpressLoad Segment Data\n
                    ");
  4853                        ;  memcpy(&value_dwd,&data[offset],sizeof(DWORD));
  4854                        ;  f_printf(fd,"        %04X   %08X           ; Re
                    served\n",offset,value_dwd);
  4855                        ;  offset += sizeof(DWORD);
  4856                        ;  memcpy(&value_wd,&data[offset],sizeof(WORD));
  4857                        ;  f_printf(fd,"        %04X   %04X               
                    ; #Segment - 1\n\n",offset,value_wd);
  4858                        ;  offset += sizeof(WORD);
  4859                        ;
  4860                        ;  f_printf(fd,"     - Header entry table\n");
  4861                        ;  nb_segment = (int) value_wd + 1;
  4862                        ;  for(i=0; i<nb_segment; i++)
  4863                        ;    {
  4864                        ;      memcpy(&value_wd,&data[offset],sizeof(WORD)
                    );
  4865                        ;      f_printf(fd,"        %04X + %04X = %04X    
                        ; Offset to Segment #%02X Header Table Entry\n",offset,v
                    alue_wd,offset+value_wd,i+2);
  4866                        ;      offset += sizeof(WORD);
  4867                        ;
  4868                        ;      memcpy(&value_wd,&data[offset],sizeof(WORD)
                    );
  4869                        ;      f_printf(fd,"        %04X   %04X           
                        ; Reserved\n",offset,value_wd);
  Thu Dec  3 2020 22:25                                                Page 124


  4870                        ;      offset += sizeof(WORD);
  4871                        ;
  4872                        ;      memcpy(&value_dwd,&data[offset],sizeof(DWOR
                    D));
  4873                        ;      f_printf(fd,"        %04X   %08X           
                    ; Reserved\n\n",offset,value_dwd);
  4874                        ;      offset += sizeof(DWORD);
  4875                        ;    }
  4876                        ;
  4877                        ;  f_printf(fd,"     - Segment Number Conversion T
                    able\n");
  4878                        ;  for(i=0; i<nb_segment; i++)
  4879                        ;    {
  4880                        ;      memcpy(&value_wd,&data[offset],sizeof(WORD)
                    );
  4881                        ;      f_printf(fd,"        %04X   %04X           
                        ; Actual file Segment Number for Original Segment #%02X\
                    n",offset,value_wd,i+2);
  4882                        ;      offset += sizeof(WORD);
  4883                        ;    }
  4884                        ;
  4885                        ;  f_printf(fd,"\n     - Segment Header Table\n");
  4886                        ;  for(i=0; i<nb_segment; i++)
  4887                        ;    {
  4888                        ;      memcpy(&value_dwd,&data[offset],sizeof(DWOR
                    D));
  4889                        ;      f_printf(fd,"        %04X   %08X           
                    ; File Mark for Segment #%02X LConst Record\n",offset,value_
                    dwd,i+2);
  4890                        ;      offset += sizeof(DWORD);
  4891                        ;
  4892                        ;      memcpy(&value_dwd,&data[offset],sizeof(DWOR
                    D));
  4893                        ;      f_printf(fd,"        %04X   %08X           
                    ; Number of bytes in Segment #%02X LConst Record\n",offset,v
                    alue_dwd,i+2);
  4894                        ;      offset += sizeof(DWORD);
  4895                        ;
  4896                        ;      memcpy(&value_dwd,&data[offset],sizeof(DWOR
                    D));
  4897                        ;      f_printf(fd,"        %04X   %08X           
                    ; File Mark for Segment #%02X Relocation Dictionary\n",offse
                    t,value_dwd,i+2);
  4898                        ;      offset += sizeof(DWORD);
  4899                        ;
  4900                        ;      memcpy(&value_dwd,&data[offset],sizeof(DWOR
                    D));
  4901                        ;      f_printf(fd,"        %04X   %08X           
                    ; Number of bytes in Segment #%02X Relocation Dictionary\n",
                    offset,value_dwd,i+2);
  4902                        ;      offset += sizeof(DWORD);
  4903                        ;
  4904                        ;      value_byte = data[offset];
  4905                        ;      f_printf(fd,"        %04X   %02X           
                          ; Reserved\n",offset,value_byte);
  4906                        ;      offset += sizeof(BYTE);
  4907                        ;
  4908                        ;      value_byte = data[offset];
  Thu Dec  3 2020 22:25                                                Page 125


  4909                        ;      f_printf(fd,"        %04X   %02X           
                          ; Label Length (usually set to 0x00 or 0x0A)\n",offset
                    ,value_byte);
  4910                        ;      offset += sizeof(BYTE);
  4911                        ;      label_length = (int) value_byte;
  4912                        ;
  4913                        ;      value_byte = data[offset];
  4914                        ;      f_printf(fd,"        %04X   %02X           
                          ; Number Length (usually set to 4 bytes)\n",offset,val
                    ue_byte);
  4915                        ;      offset += sizeof(BYTE);
  4916                        ;
  4917                        ;      value_byte = data[offset];
  4918                        ;      f_printf(fd,"        %04X   %02X           
                          ; Segment OMF Version (should be 0x02 for 2.1)\n",offs
                    et,value_byte);
  4919                        ;      offset += sizeof(BYTE);
  4920                        ;
  4921                        ;      memcpy(&value_dwd,&data[offset],sizeof(DWOR
                    D));
  4922                        ;      f_printf(fd,"        %04X   %08X           
                    ; Bank Size (64 KB for Code, 0-64 KB for Data)\n",offset,val
                    ue_dwd);
  4923                        ;      offset += sizeof(DWORD);
  4924                        ;
  4925                        ;      memcpy(&value_wd,&data[offset],sizeof(WORD)
                    );
  4926                        ;      f_printf(fd,"        %04X   %04X           
                        ; Segment Type + Segment Attributes\n",offset,value_wd);
  4927                        ;      offset += sizeof(WORD);
  4928                        ;
  4929                        ;      memcpy(&value_wd,&data[offset],sizeof(WORD)
                    );
  4930                        ;      f_printf(fd,"        %04X   %04X           
                        ; Reserved\n",offset,value_wd);
  4931                        ;      offset += sizeof(WORD);
  4932                        ;
  4933                        ;      memcpy(&value_dwd,&data[offset],sizeof(DWOR
                    D));
  4934                        ;      f_printf(fd,"        %04X   %08X           
                    ; Org Address to load the Segment (0x0000 = anywhere)\n",off
                    set,value_dwd);
  4935                        ;      offset += sizeof(DWORD);
  4936                        ;
  4937                        ;      memcpy(&value_dwd,&data[offset],sizeof(DWOR
                    D));
  4938                        ;      f_printf(fd,"        %04X   %08X           
                    ; Boundary for Segment Alignment (0, 0x100 or 0x010000)\n",o
                    ffset,value_dwd);
  4939                        ;      offset += sizeof(DWORD);
  4940                        ;
  4941                        ;      value_byte = data[offset];
  4942                        ;      f_printf(fd,"        %04X   %02X           
                          ; Order of the bytes in a Number (0x00 for the IIgs)\n
                    ",offset,value_byte);
  4943                        ;      offset += sizeof(BYTE);
  4944                        ;
  4945                        ;      value_byte = data[offset];
  Thu Dec  3 2020 22:25                                                Page 126


  4946                        ;      f_printf(fd,"        %04X   %02X           
                          ; Reserved\n",offset,value_byte);
  4947                        ;      offset += sizeof(BYTE);
  4948                        ;
  4949                        ;      memcpy(&value_wd,&data[offset],sizeof(WORD)
                    );
  4950                        ;      f_printf(fd,"        %04X   %04X           
                        ; Segment Number (1 to N)\n",offset,value_wd);
  4951                        ;      offset += sizeof(WORD);
  4952                        ;
  4953                        ;      memcpy(&value_dwd,&data[offset],sizeof(DWOR
                    D));
  4954                        ;      f_printf(fd,"        %04X   %08X           
                    ; Entry Point in the Segment\n",offset,value_dwd);
  4955                        ;
  4956                        ;      memcpy(&value_wd,&data[offset],sizeof(WORD)
                    );
  4957                        ;      f_printf(fd,"        %04X   %04X           
                        ; Displacement to Names (usually 0x2C)\n",offset,value_w
                    d);
  4958                        ;      offset += sizeof(WORD);
  4959                        ;
  4960                        ;      if(!memcmp(&data[offset],zero_12,12))
  4961                        ;        {
  4962                        ;          f_printf(fd,"        %04X   00000000000
                    0000000000000\n",offset);
  4963                        ;          offset += 12;
  4964                        ;        }
  4965                        ;      else
  4966                        ;        {
  4967                        ;          memcpy(&value_wd,&data[offset],sizeof(W
                    ORD));
  4968                        ;          f_printf(fd,"        %04X   %04X       
                            ; Displacement to Data (usually 0x40)\n",offset,valu
                    e_wd);
  4969                        ;          offset += sizeof(WORD);
  4970                        ;
  4971                        ;          memset(name,' ',32);
  4972                        ;          memcpy(name,&data[offset],10);
  4973                        ;          name[19] = '\0';
  4974                        ;          f_printf(fd,"        %04X   %s; Load Na
                    me\n",offset,name);
  4975                        ;          offset += 10;
  4976                        ;        }
  4977                        ;      if(label_length == 0)
  4978                        ;        {
  4979                        ;          value_byte = data[offset];
  4980                        ;          f_printf(fd,"        %04X   %02X       
                              ; Segment Name Length\n",offset,value_byte);
  4981                        ;          offset += sizeof(BYTE);
  4982                        ;
  4983                        ;          memset(name,' ',32);
  4984                        ;          memcpy(name,&data[offset],(int)value_by
                    te);
  4985                        ;          name[19] = '\0';
  4986                        ;          f_printf(fd,"        %04X   %s; Segment
                     Name\n",offset,name);
  4987                        ;          offset += (int) value_byte;
  Thu Dec  3 2020 22:25                                                Page 127


  4988                        ;        }
  4989                        ;      else
  4990                        ;        {
  4991                        ;          memset(name,' ',32);
  4992                        ;          memcpy(name,&data[offset],label_length)
                    ;
  4993                        ;          name[19] = '\0';
  4994                        ;          f_printf(fd,"        %04X   %s; Segment
                     Name\n",offset,name);
  4995                        ;          offset += label_length;
  4996                        ;        }
  4997                        ;
  4998                        ;      f_printf(fd,"\n");
  4999                        ;    }
  5000                        ;}
  5001                        ;*/
  5002                        ;
  5003                        ;
  5004                        ;/*
  5005                        ;  BYTE record_super_type;
  5006                        ;    struct omf_body_record *current_record;
  5007                        ;for(i=1,current_record=current_segment->first_rec
                    ord; current_record; current_record=current_record->next,i++
                    )
  5008                        ;  {
  5009                        ;    /* Information du Record *
  5010                        ;    record_super_type = (current_record->operatio
                    n_code == 0xF7) ? ((struct record_SUPER *)current_record->re
                    cord_data)->RecordType : 0;
  5011                        ;    f_printf(fd,"\n  %06X  %02X  %06X   Length=%0
                    4X   Record #%04X   Operation Code=%02X  %s\n",current_recor
                    d->FileOffset,current_segment->header.SegNum,current_record-
                    >SegmentOffset,current_record->length,
  5012                        ;                                                 
                                                                 i,current_recor
                    d->operation_code,GetRecordName(current_record->operation_co
                    de,record_super_type));
  5013                        ;
  5014                        ;    /* Dtail du Record *
  5015                        ;    if(current_record->operation_code == 0xE2)
  5016                        ;      DumpRELOCRecord(current_record,fd,current_s
                    egment->header.SegNum);
  5017                        ;    else if(current_record->operation_code == 0xE
                    3)
  5018                        ;      DumpINTERSEGRecord(current_record,fd,curren
                    t_segment->header.SegNum);             
  5019                        ;    else if(current_record->operation_code == 0xF
                    2)
  5020                        ;      DumpLCONSTRecord(current_record,fd,current_
                    segment->header.SegNum);
  5021                        ;    else if(current_record->operation_code == 0xF
                    5)
  5022                        ;      DumpcRELOCRecord(current_record,fd,current_
                    segment->header.SegNum);
  5023                        ;    else if(current_record->operation_code == 0xF
                    6)
  5024                        ;      DumpcINTERSEGRecord(current_record,fd,curre
                    nt_segment->header.SegNum);             
  Thu Dec  3 2020 22:25                                                Page 128


  5025                        ;    else if(current_record->operation_code == 0xF
                    7)
  5026                        ;      DumpSUPERRecord(current_record,fd,current_s
                    egment->header.SegNum);                         
  5027                        ;  }
  5028                        ;*/
  5029                        ;
  5030                        ;/************************************************
                    ********/
  5031                        ;/*  DumpSegmentHeader() :  Dump le Header d'un Se
                    gment. */
  5032                        ;/************************************************
                    ********/
  5033                        ;static void DumpSegmentHeader(struct omf_segment_
                    header *current_header, FIL *fd)
  5034                        ;{
  5035                        	.line	641
  5036                        	.line	642
  5037                        	LOADER
  5038                        	func
  5039                        	.function	642
  5040                        ~~DumpSegmentHeader:
  5041                        	longa	on
  5042                        	longi	on
  5043 09:EF9E: 3B           	tsc
  5044 09:EF9F: 38           	sec
  5045 09:EFA0: E9 00 00     	sbc	#L96
  5046 09:EFA3: 1B           	tcs
  5047 09:EFA4: 0B           	phd
  5048 09:EFA5: 5B           	tcd
  5049             00000004   current_header_0	set	4
  5050             00000008   fd_0	set	8
  5051                        	.block	642
  5052                        ;  if(current_header->Version == 0x00)
  5053                        	.sym	current_header,4,138,6,32,64
  5054                        	.sym	fd,8,138,6,32,104
  5055                        	.line	643
  5056                        ;    {
  5057 09:EFA6: A0 1C 00     	ldy	#$1c
  5058 09:EFA9: B7 04        	lda	[<L96+current_header_0],Y
  5059 09:EFAB: 29 FF 00     	and	#$ff
  5060 09:EFAE: F0 03        	beq	L99
  5061 09:EFB0: 82 0F 00     	brl	L10047
  5062                        L99:
  5063                        	.line	644
  5064                        ;      /* Version 0 */
  5065                        ;		processHeader00(fd, current_header);
  5066                        	.line	646
  5067 09:EFB3: D4 06        	pei	<L96+current_header_0+2
  5068 09:EFB5: D4 04        	pei	<L96+current_header_0
  5069 09:EFB7: D4 0A        	pei	<L96+fd_0+2
  5070 09:EFB9: D4 08        	pei	<L96+fd_0
  5071 09:EFBB: 22 2A E7 09  	jsl	~~processHeader00
  5072                        ;    }
  5073                        	.line	647
  5074                        ;  else if(current_header->Version == 0x01)
  5075 09:EFBF: 82 3B 00     	brl	L10048
  5076                        L10047:
  Thu Dec  3 2020 22:25                                                Page 129


  5077                        	.line	648
  5078                        ;    {
  5079 09:EFC2: E2 20        	sep	#$20
  5080                        	longa	off
  5081 09:EFC4: A0 1C 00     	ldy	#$1c
  5082 09:EFC7: B7 04        	lda	[<L96+current_header_0],Y
  5083 09:EFC9: C9 01        	cmp	#<$1
  5084 09:EFCB: C2 20        	rep	#$20
  5085                        	longa	on
  5086 09:EFCD: F0 03        	beq	L100
  5087 09:EFCF: 82 0F 00     	brl	L10049
  5088                        L100:
  5089                        	.line	649
  5090                        ;      /* Version 1 */
  5091                        ;		processHeader01(fd, current_header);
  5092                        	.line	651
  5093 09:EFD2: D4 06        	pei	<L96+current_header_0+2
  5094 09:EFD4: D4 04        	pei	<L96+current_header_0
  5095 09:EFD6: D4 0A        	pei	<L96+fd_0+2
  5096 09:EFD8: D4 08        	pei	<L96+fd_0
  5097 09:EFDA: 22 FF E9 09  	jsl	~~processHeader01
  5098                        ;    }
  5099                        	.line	652
  5100                        ;  else if(current_header->Version == 0x02)
  5101 09:EFDE: 82 1C 00     	brl	L10050
  5102                        L10049:
  5103                        	.line	653
  5104                        ;    {
  5105 09:EFE1: E2 20        	sep	#$20
  5106                        	longa	off
  5107 09:EFE3: A0 1C 00     	ldy	#$1c
  5108 09:EFE6: B7 04        	lda	[<L96+current_header_0],Y
  5109 09:EFE8: C9 02        	cmp	#<$2
  5110 09:EFEA: C2 20        	rep	#$20
  5111                        	longa	on
  5112 09:EFEC: F0 03        	beq	L101
  5113 09:EFEE: 82 0C 00     	brl	L10051
  5114                        L101:
  5115                        	.line	654
  5116                        ;      /* Version 2.1 */
  5117                        ;		processHeader02(fd, current_header);
  5118                        	.line	656
  5119 09:EFF1: D4 06        	pei	<L96+current_header_0+2
  5120 09:EFF3: D4 04        	pei	<L96+current_header_0
  5121 09:EFF5: D4 0A        	pei	<L96+fd_0+2
  5122 09:EFF7: D4 08        	pei	<L96+fd_0
  5123 09:EFF9: 22 E3 EC 09  	jsl	~~processHeader02
  5124                        ;    }
  5125                        	.line	657
  5126                        ;}
  5127                        L10051:
  5128                        L10050:
  5129                        L10048:
  5130                        	.line	658
  5131                        L102:
  5132 09:EFFD: A5 02        	lda	<L96+2
  5133 09:EFFF: 85 0A        	sta	<L96+2+8
  5134 09:F001: A5 01        	lda	<L96+1
  Thu Dec  3 2020 22:25                                                Page 130


  5135 09:F003: 85 09        	sta	<L96+1+8
  5136 09:F005: 2B           	pld
  5137 09:F006: 3B           	tsc
  5138 09:F007: 18           	clc
  5139 09:F008: 69 08 00     	adc	#L96+8
  5140 09:F00B: 1B           	tcs
  5141 09:F00C: 6B           	rtl
  5142                        	.endblock	658
  5143             00000000   L96	equ	0
  5144             00000001   L97	equ	1
  5145 09:F00D:              	ends
  5146                        	efunc
  5147                        	.endfunc	658,1,0
  5148                        	.line	658
  5149                        ;
  5150                        ;
  5151                        ;/************************************************
                    ************************/
  5152                        ;/*  GetSegmentType() :  Dcode les diffrentes va
                    leurs pour le Type V1. */
  5153                        ;/************************************************
                    ************************/
  5154                        ;static char *GetSegmentType(BYTE Type, int type_o
                    nly)
  5155                        ;{
  5156                        	.line	664
  5157                        	.line	665
  5158                        	LOADER
  5159                        	func
  5160                        	.function	665
  5161                        ~~GetSegmentType:
  5162                        	longa	on
  5163                        	longi	on
  5164 09:F00D: 3B           	tsc
  5165 09:F00E: 38           	sec
  5166 09:F00F: E9 0C 00     	sbc	#L103
  5167 09:F012: 1B           	tcs
  5168 09:F013: 0B           	phd
  5169 09:F014: 5B           	tcd
  5170             00000004   Type_0	set	4
  5171             00000006   type_only_0	set	6
  5172                        	.block	665
  5173                        ;  //static char type_txt[1024];
  5174                        ;  //char attributes_txt[512] = "";
  5175                        ;
  5176                        ;
  5177                        ;	LPSTR type_txt = k_calloc(1,1024);
  5178                        ;	LPSTR attributes_txt = k_calloc(1,512);
  5179                        ;	  //char attributes_txt[512] = "";
  5180                        ;
  5181                        ;
  5182                        ;  /** Dcode le Type + Attributs **/
  5183                        ;  if((Type & 0x1F) == 0x00)
  5184             00000000   type_txt_1	set	0
  5185             00000004   attributes_txt_1	set	4
  5186                        	.sym	type_txt,0,142,1,32
  5187                        	.sym	attributes_txt,4,142,1,32
  5188                        	.sym	Type,4,14,6,8
  Thu Dec  3 2020 22:25                                                Page 131


  5189                        	.sym	type_only,6,5,6,16
  5190 09:F015: F4 00 04     	pea	#<$400
  5191 09:F018: F4 01 00     	pea	#<$1
  5192 09:F01B: 22 xx xx xx  	jsl	~~k_calloc
  5193 09:F01F: 85 05        	sta	<L104+type_txt_1
  5194 09:F021: 86 07        	stx	<L104+type_txt_1+2
  5195 09:F023: F4 00 02     	pea	#<$200
  5196 09:F026: F4 01 00     	pea	#<$1
  5197 09:F029: 22 xx xx xx  	jsl	~~k_calloc
  5198 09:F02D: 85 09        	sta	<L104+attributes_txt_1
  5199 09:F02F: 86 0B        	stx	<L104+attributes_txt_1+2
  5200                        	.line	676
  5201                        ;    k_strcpy(type_txt,"Code");
  5202 09:F031: E2 20        	sep	#$20
  5203                        	longa	off
  5204 09:F033: A5 10        	lda	<L103+Type_0
  5205 09:F035: 29 1F        	and	#<$1f
  5206 09:F037: C2 20        	rep	#$20
  5207                        	longa	on
  5208 09:F039: F0 03        	beq	L106
  5209 09:F03B: 82 11 00     	brl	L10052
  5210                        L106:
  5211                        	.line	677
  5212 09:F03E: F4 xx xx     	pea	#^L95
  5213 09:F041: F4 xx xx     	pea	#<L95
  5214 09:F044: D4 07        	pei	<L104+type_txt_1+2
  5215 09:F046: D4 05        	pei	<L104+type_txt_1
  5216 09:F048: 22 xx xx xx  	jsl	~~k_strcpy
  5217                        ;  else if((Type & 0x1F) == 0x01)
  5218 09:F04C: 82 FC 00     	brl	L10053
  5219                        L10052:
  5220                        	.line	678
  5221                        ;    k_strcpy(type_txt,"Data");
  5222 09:F04F: A5 10        	lda	<L103+Type_0
  5223 09:F051: 29 1F 00     	and	#<$1f
  5224 09:F054: 85 01        	sta	<R0
  5225 09:F056: A5 01        	lda	<R0
  5226 09:F058: C9 01 00     	cmp	#<$1
  5227 09:F05B: F0 03        	beq	L107
  5228 09:F05D: 82 11 00     	brl	L10054
  5229                        L107:
  5230                        	.line	679
  5231 09:F060: F4 xx xx     	pea	#^L95+5
  5232 09:F063: F4 xx xx     	pea	#<L95+5
  5233 09:F066: D4 07        	pei	<L104+type_txt_1+2
  5234 09:F068: D4 05        	pei	<L104+type_txt_1
  5235 09:F06A: 22 xx xx xx  	jsl	~~k_strcpy
  5236                        ;  else if((Type & 0x1F) == 0x02)
  5237 09:F06E: 82 DA 00     	brl	L10055
  5238                        L10054:
  5239                        	.line	680
  5240                        ;    k_strcpy(type_txt,"Jump Table");
  5241 09:F071: A5 10        	lda	<L103+Type_0
  5242 09:F073: 29 1F 00     	and	#<$1f
  5243 09:F076: 85 01        	sta	<R0
  5244 09:F078: A5 01        	lda	<R0
  5245 09:F07A: C9 02 00     	cmp	#<$2
  5246 09:F07D: F0 03        	beq	L108
  Thu Dec  3 2020 22:25                                                Page 132


  5247 09:F07F: 82 11 00     	brl	L10056
  5248                        L108:
  5249                        	.line	681
  5250 09:F082: F4 xx xx     	pea	#^L95+10
  5251 09:F085: F4 xx xx     	pea	#<L95+10
  5252 09:F088: D4 07        	pei	<L104+type_txt_1+2
  5253 09:F08A: D4 05        	pei	<L104+type_txt_1
  5254 09:F08C: 22 xx xx xx  	jsl	~~k_strcpy
  5255                        ;  else if((Type & 0x1F) == 0x04)
  5256 09:F090: 82 B8 00     	brl	L10057
  5257                        L10056:
  5258                        	.line	682
  5259                        ;    k_strcpy(type_txt,"PathName");
  5260 09:F093: A5 10        	lda	<L103+Type_0
  5261 09:F095: 29 1F 00     	and	#<$1f
  5262 09:F098: 85 01        	sta	<R0
  5263 09:F09A: A5 01        	lda	<R0
  5264 09:F09C: C9 04 00     	cmp	#<$4
  5265 09:F09F: F0 03        	beq	L109
  5266 09:F0A1: 82 11 00     	brl	L10058
  5267                        L109:
  5268                        	.line	683
  5269 09:F0A4: F4 xx xx     	pea	#^L95+21
  5270 09:F0A7: F4 xx xx     	pea	#<L95+21
  5271 09:F0AA: D4 07        	pei	<L104+type_txt_1+2
  5272 09:F0AC: D4 05        	pei	<L104+type_txt_1
  5273 09:F0AE: 22 xx xx xx  	jsl	~~k_strcpy
  5274                        ;  else if((Type & 0x1F) == 0x08)
  5275 09:F0B2: 82 96 00     	brl	L10059
  5276                        L10058:
  5277                        	.line	684
  5278                        ;    k_strcpy(type_txt,"Lib Dictionnary");
  5279 09:F0B5: A5 10        	lda	<L103+Type_0
  5280 09:F0B7: 29 1F 00     	and	#<$1f
  5281 09:F0BA: 85 01        	sta	<R0
  5282 09:F0BC: A5 01        	lda	<R0
  5283 09:F0BE: C9 08 00     	cmp	#<$8
  5284 09:F0C1: F0 03        	beq	L110
  5285 09:F0C3: 82 11 00     	brl	L10060
  5286                        L110:
  5287                        	.line	685
  5288 09:F0C6: F4 xx xx     	pea	#^L95+30
  5289 09:F0C9: F4 xx xx     	pea	#<L95+30
  5290 09:F0CC: D4 07        	pei	<L104+type_txt_1+2
  5291 09:F0CE: D4 05        	pei	<L104+type_txt_1
  5292 09:F0D0: 22 xx xx xx  	jsl	~~k_strcpy
  5293                        ;  else if((Type & 0x1F) == 0x10)
  5294 09:F0D4: 82 74 00     	brl	L10061
  5295                        L10060:
  5296                        	.line	686
  5297                        ;    k_strcpy(type_txt,"Init");
  5298 09:F0D7: A5 10        	lda	<L103+Type_0
  5299 09:F0D9: 29 1F 00     	and	#<$1f
  5300 09:F0DC: 85 01        	sta	<R0
  5301 09:F0DE: A5 01        	lda	<R0
  5302 09:F0E0: C9 10 00     	cmp	#<$10
  5303 09:F0E3: F0 03        	beq	L111
  5304 09:F0E5: 82 11 00     	brl	L10062
  Thu Dec  3 2020 22:25                                                Page 133


  5305                        L111:
  5306                        	.line	687
  5307 09:F0E8: F4 xx xx     	pea	#^L95+46
  5308 09:F0EB: F4 xx xx     	pea	#<L95+46
  5309 09:F0EE: D4 07        	pei	<L104+type_txt_1+2
  5310 09:F0F0: D4 05        	pei	<L104+type_txt_1
  5311 09:F0F2: 22 xx xx xx  	jsl	~~k_strcpy
  5312                        ;  else if((Type & 0x1F) == 0x11)
  5313 09:F0F6: 82 52 00     	brl	L10063
  5314                        L10062:
  5315                        	.line	688
  5316                        ;    k_strcpy(type_txt,"Absolute Bank");
  5317 09:F0F9: A5 10        	lda	<L103+Type_0
  5318 09:F0FB: 29 1F 00     	and	#<$1f
  5319 09:F0FE: 85 01        	sta	<R0
  5320 09:F100: A5 01        	lda	<R0
  5321 09:F102: C9 11 00     	cmp	#<$11
  5322 09:F105: F0 03        	beq	L112
  5323 09:F107: 82 11 00     	brl	L10064
  5324                        L112:
  5325                        	.line	689
  5326 09:F10A: F4 xx xx     	pea	#^L95+51
  5327 09:F10D: F4 xx xx     	pea	#<L95+51
  5328 09:F110: D4 07        	pei	<L104+type_txt_1+2
  5329 09:F112: D4 05        	pei	<L104+type_txt_1
  5330 09:F114: 22 xx xx xx  	jsl	~~k_strcpy
  5331                        ;  else if((Type & 0x1F) == 0x12)
  5332 09:F118: 82 30 00     	brl	L10065
  5333                        L10064:
  5334                        	.line	690
  5335                        ;    k_strcpy(type_txt,"DP / Stack");
  5336 09:F11B: A5 10        	lda	<L103+Type_0
  5337 09:F11D: 29 1F 00     	and	#<$1f
  5338 09:F120: 85 01        	sta	<R0
  5339 09:F122: A5 01        	lda	<R0
  5340 09:F124: C9 12 00     	cmp	#<$12
  5341 09:F127: F0 03        	beq	L113
  5342 09:F129: 82 11 00     	brl	L10066
  5343                        L113:
  5344                        	.line	691
  5345 09:F12C: F4 xx xx     	pea	#^L95+65
  5346 09:F12F: F4 xx xx     	pea	#<L95+65
  5347 09:F132: D4 07        	pei	<L104+type_txt_1+2
  5348 09:F134: D4 05        	pei	<L104+type_txt_1
  5349 09:F136: 22 xx xx xx  	jsl	~~k_strcpy
  5350                        ;  else
  5351 09:F13A: 82 0E 00     	brl	L10067
  5352                        L10066:
  5353                        ;    k_strcpy(type_txt,"Unknown Type");
  5354                        	.line	693
  5355 09:F13D: F4 xx xx     	pea	#^L95+76
  5356 09:F140: F4 xx xx     	pea	#<L95+76
  5357 09:F143: D4 07        	pei	<L104+type_txt_1+2
  5358 09:F145: D4 05        	pei	<L104+type_txt_1
  5359 09:F147: 22 xx xx xx  	jsl	~~k_strcpy
  5360                        L10067:
  5361                        L10065:
  5362                        L10063:
  Thu Dec  3 2020 22:25                                                Page 134


  5363                        L10061:
  5364                        L10059:
  5365                        L10057:
  5366                        L10055:
  5367                        L10053:
  5368                        ;  if(type_only == 1)
  5369                        	.line	694
  5370                        ;    return(&type_txt[0]);
  5371 09:F14B: A5 12        	lda	<L103+type_only_0
  5372 09:F14D: C9 01 00     	cmp	#<$1
  5373 09:F150: F0 03        	beq	L114
  5374 09:F152: 82 16 00     	brl	L10068
  5375                        L114:
  5376                        	.line	695
  5377 09:F155: A6 07        	ldx	<L104+type_txt_1+2
  5378 09:F157: A5 05        	lda	<L104+type_txt_1
  5379                        L115:
  5380 09:F159: A8           	tay
  5381 09:F15A: A5 0E        	lda	<L103+2
  5382 09:F15C: 85 12        	sta	<L103+2+4
  5383 09:F15E: A5 0D        	lda	<L103+1
  5384 09:F160: 85 11        	sta	<L103+1+4
  5385 09:F162: 2B           	pld
  5386 09:F163: 3B           	tsc
  5387 09:F164: 18           	clc
  5388 09:F165: 69 10 00     	adc	#L103+4
  5389 09:F168: 1B           	tcs
  5390 09:F169: 98           	tya
  5391 09:F16A: 6B           	rtl
  5392                        ;
  5393                        ;  /** Attributs **/
  5394                        ;  if((Type & 0x80) == 0x00)
  5395                        L10068:
  5396                        	.line	698
  5397                        ;    k_strcpy(attributes_txt,"Static");
  5398 09:F16B: E2 20        	sep	#$20
  5399                        	longa	off
  5400 09:F16D: A5 10        	lda	<L103+Type_0
  5401 09:F16F: 29 80        	and	#<$80
  5402 09:F171: C2 20        	rep	#$20
  5403                        	longa	on
  5404 09:F173: F0 03        	beq	L116
  5405 09:F175: 82 11 00     	brl	L10069
  5406                        L116:
  5407                        	.line	699
  5408 09:F178: F4 xx xx     	pea	#^L95+89
  5409 09:F17B: F4 xx xx     	pea	#<L95+89
  5410 09:F17E: D4 0B        	pei	<L104+attributes_txt_1+2
  5411 09:F180: D4 09        	pei	<L104+attributes_txt_1
  5412 09:F182: 22 xx xx xx  	jsl	~~k_strcpy
  5413                        ;  else
  5414 09:F186: 82 0E 00     	brl	L10070
  5415                        L10069:
  5416                        ;    k_strcpy(attributes_txt,"Dynamic");
  5417                        	.line	701
  5418 09:F189: F4 xx xx     	pea	#^L95+96
  5419 09:F18C: F4 xx xx     	pea	#<L95+96
  5420 09:F18F: D4 0B        	pei	<L104+attributes_txt_1+2
  Thu Dec  3 2020 22:25                                                Page 135


  5421 09:F191: D4 09        	pei	<L104+attributes_txt_1
  5422 09:F193: 22 xx xx xx  	jsl	~~k_strcpy
  5423                        L10070:
  5424                        ;  if((Type & 0x40))
  5425                        	.line	702
  5426                        ;    k_strcat(attributes_txt," + Private");
  5427 09:F197: E2 20        	sep	#$20
  5428                        	longa	off
  5429 09:F199: A5 10        	lda	<L103+Type_0
  5430 09:F19B: 29 40        	and	#<$40
  5431 09:F19D: C2 20        	rep	#$20
  5432                        	longa	on
  5433 09:F19F: D0 03        	bne	L117
  5434 09:F1A1: 82 0E 00     	brl	L10071
  5435                        L117:
  5436                        	.line	703
  5437 09:F1A4: F4 xx xx     	pea	#^L95+104
  5438 09:F1A7: F4 xx xx     	pea	#<L95+104
  5439 09:F1AA: D4 0B        	pei	<L104+attributes_txt_1+2
  5440 09:F1AC: D4 09        	pei	<L104+attributes_txt_1
  5441 09:F1AE: 22 xx xx xx  	jsl	~~k_strcat
  5442                        ;  if((Type & 0x20))
  5443                        L10071:
  5444                        	.line	704
  5445                        ;    k_strcat(attributes_txt," + Position independ
                    ent");
  5446 09:F1B2: E2 20        	sep	#$20
  5447                        	longa	off
  5448 09:F1B4: A5 10        	lda	<L103+Type_0
  5449 09:F1B6: 29 20        	and	#<$20
  5450 09:F1B8: C2 20        	rep	#$20
  5451                        	longa	on
  5452 09:F1BA: D0 03        	bne	L118
  5453 09:F1BC: 82 0E 00     	brl	L10072
  5454                        L118:
  5455                        	.line	705
  5456 09:F1BF: F4 xx xx     	pea	#^L95+115
  5457 09:F1C2: F4 xx xx     	pea	#<L95+115
  5458 09:F1C5: D4 0B        	pei	<L104+attributes_txt_1+2
  5459 09:F1C7: D4 09        	pei	<L104+attributes_txt_1
  5460 09:F1C9: 22 xx xx xx  	jsl	~~k_strcat
  5461                        ;
  5462                        ;  /* Ajoute les attributs */
  5463                        ;  k_strcat(type_txt,"  (");
  5464                        L10072:
  5465                        	.line	708
  5466 09:F1CD: F4 xx xx     	pea	#^L95+139
  5467 09:F1D0: F4 xx xx     	pea	#<L95+139
  5468 09:F1D3: D4 07        	pei	<L104+type_txt_1+2
  5469 09:F1D5: D4 05        	pei	<L104+type_txt_1
  5470 09:F1D7: 22 xx xx xx  	jsl	~~k_strcat
  5471                        ;  k_strcat(type_txt,attributes_txt);
  5472                        	.line	709
  5473 09:F1DB: D4 0B        	pei	<L104+attributes_txt_1+2
  5474 09:F1DD: D4 09        	pei	<L104+attributes_txt_1
  5475 09:F1DF: D4 07        	pei	<L104+type_txt_1+2
  5476 09:F1E1: D4 05        	pei	<L104+type_txt_1
  5477 09:F1E3: 22 xx xx xx  	jsl	~~k_strcat
  Thu Dec  3 2020 22:25                                                Page 136


  5478                        ;  k_strcat(type_txt,")");
  5479                        	.line	710
  5480 09:F1E7: F4 xx xx     	pea	#^L95+143
  5481 09:F1EA: F4 xx xx     	pea	#<L95+143
  5482 09:F1ED: D4 07        	pei	<L104+type_txt_1+2
  5483 09:F1EF: D4 05        	pei	<L104+type_txt_1
  5484 09:F1F1: 22 xx xx xx  	jsl	~~k_strcat
  5485                        ;
  5486                        ;  k_free(attributes_txt);
  5487                        	.line	712
  5488 09:F1F5: D4 0B        	pei	<L104+attributes_txt_1+2
  5489 09:F1F7: D4 09        	pei	<L104+attributes_txt_1
  5490 09:F1F9: 22 xx xx xx  	jsl	~~k_free
  5491                        ;
  5492                        ;  /* Renvoi le Texte */
  5493                        ;  return(type_txt);
  5494                        	.line	715
  5495 09:F1FD: A6 07        	ldx	<L104+type_txt_1+2
  5496 09:F1FF: A5 05        	lda	<L104+type_txt_1
  5497 09:F201: 82 55 FF     	brl	L115
  5498                        ;}
  5499                        	.line	716
  5500                        	.endblock	716
  5501             0000000C   L103	equ	12
  5502             00000005   L104	equ	5
  5503 09:F204:              	ends
  5504                        	efunc
  5505                        	.endfunc	716,5,12
  5506                        	.line	716
  5507                        	data
  5508                        L95:
  5509 00:1C5E: 43 6F 64 65  	db	$43,$6F,$64,$65,$00,$44,$61,$74,$61,$00,
                    $4A,$75,$6D,$70,$20
       00:1C62: 00 44 61 74 
       00:1C66: 61 00 4A 75 
       00:1C6A: 6D 70 20 
  5510 00:1C6D: 54 61 62 6C  	db	$54,$61,$62,$6C,$65,$00,$50,$61,$74,$68,
                    $4E,$61,$6D,$65,$00
       00:1C71: 65 00 50 61 
       00:1C75: 74 68 4E 61 
       00:1C79: 6D 65 00 
  5511 00:1C7C: 4C 69 62 20  	db	$4C,$69,$62,$20,$44,$69,$63,$74,$69,$6F,
                    $6E,$6E,$61,$72,$79
       00:1C80: 44 69 63 74 
       00:1C84: 69 6F 6E 6E 
       00:1C88: 61 72 79 
  5512 00:1C8B: 00 49 6E 69  	db	$00,$49,$6E,$69,$74,$00,$41,$62,$73,$6F,
                    $6C,$75,$74,$65,$20
       00:1C8F: 74 00 41 62 
       00:1C93: 73 6F 6C 75 
       00:1C97: 74 65 20 
  5513 00:1C9A: 42 61 6E 6B  	db	$42,$61,$6E,$6B,$00,$44,$50,$20,$2F,$20,
                    $53,$74,$61,$63,$6B
       00:1C9E: 00 44 50 20 
       00:1CA2: 2F 20 53 74 
       00:1CA6: 61 63 6B 
  5514 00:1CA9: 00 55 6E 6B  	db	$00,$55,$6E,$6B,$6E,$6F,$77,$6E,$20,$54,
                    $79,$70,$65,$00,$53
  Thu Dec  3 2020 22:25                                                Page 137


       00:1CAD: 6E 6F 77 6E 
       00:1CB1: 20 54 79 70 
       00:1CB5: 65 00 53 
  5515 00:1CB8: 74 61 74 69  	db	$74,$61,$74,$69,$63,$00,$44,$79,$6E,$61,
                    $6D,$69,$63,$00,$20
       00:1CBC: 63 00 44 79 
       00:1CC0: 6E 61 6D 69 
       00:1CC4: 63 00 20 
  5516 00:1CC7: 2B 20 50 72  	db	$2B,$20,$50,$72,$69,$76,$61,$74,$65,$00,
                    $20,$2B,$20,$50,$6F
       00:1CCB: 69 76 61 74 
       00:1CCF: 65 00 20 2B 
       00:1CD3: 20 50 6F 
  5517 00:1CD6: 73 69 74 69  	db	$73,$69,$74,$69,$6F,$6E,$20,$69,$6E,$64,
                    $65,$70,$65,$6E,$64
       00:1CDA: 6F 6E 20 69 
       00:1CDE: 6E 64 65 70 
       00:1CE2: 65 6E 64 
  5518 00:1CE5: 65 6E 74 00  	db	$65,$6E,$74,$00,$20,$20,$28,$00,$29,$00
       00:1CE9: 20 20 28 00 
       00:1CED: 29 00 
  5519 00:1CEF:              	ends
  5520                        ;
  5521                        ;
  5522                        ;/************************************************
                    ************************/
  5523                        ;/*  GetSegmentKind() :  Dcode les diffrentes va
                    leurs pour le Type V2. */
  5524                        ;/************************************************
                    ************************/
  5525                        ;static char *GetSegmentKind(WORD Type, int type_o
                    nly)
  5526                        ;{
  5527                        	.line	722
  5528                        	.line	723
  5529                        	LOADER
  5530                        	func
  5531                        	.function	723
  5532                        ~~GetSegmentKind:
  5533                        	longa	on
  5534                        	longi	on
  5535 09:F204: 3B           	tsc
  5536 09:F205: 38           	sec
  5537 09:F206: E9 0C 00     	sbc	#L120
  5538 09:F209: 1B           	tcs
  5539 09:F20A: 0B           	phd
  5540 09:F20B: 5B           	tcd
  5541             00000004   Type_0	set	4
  5542             00000006   type_only_0	set	6
  5543                        	.block	723
  5544                        ;	  //static char type_txt[1024];
  5545                        ;	  //char attributes_txt[512] = "";
  5546                        ;
  5547                        ;
  5548                        ;	LPSTR type_txt = k_calloc(1,1024);
  5549                        ;	LPSTR attributes_txt = k_calloc(1,512);
  5550                        ;
  5551                        ;  /** Dcode le Type + Attributs **/
  Thu Dec  3 2020 22:25                                                Page 138


  5552                        ;  if((Type & 0x001F) == 0x0000)
  5553             00000000   type_txt_1	set	0
  5554             00000004   attributes_txt_1	set	4
  5555                        	.sym	type_txt,0,142,1,32
  5556                        	.sym	attributes_txt,4,142,1,32
  5557                        	.sym	Type,4,5,6,16
  5558                        	.sym	type_only,6,5,6,16
  5559 09:F20C: F4 00 04     	pea	#<$400
  5560 09:F20F: F4 01 00     	pea	#<$1
  5561 09:F212: 22 xx xx xx  	jsl	~~k_calloc
  5562 09:F216: 85 05        	sta	<L121+type_txt_1
  5563 09:F218: 86 07        	stx	<L121+type_txt_1+2
  5564 09:F21A: F4 00 02     	pea	#<$200
  5565 09:F21D: F4 01 00     	pea	#<$1
  5566 09:F220: 22 xx xx xx  	jsl	~~k_calloc
  5567 09:F224: 85 09        	sta	<L121+attributes_txt_1
  5568 09:F226: 86 0B        	stx	<L121+attributes_txt_1+2
  5569                        	.line	732
  5570                        ;    k_strcpy(type_txt,"Code");
  5571 09:F228: A5 10        	lda	<L120+Type_0
  5572 09:F22A: 29 1F 00     	and	#<$1f
  5573 09:F22D: F0 03        	beq	L123
  5574 09:F22F: 82 11 00     	brl	L10073
  5575                        L123:
  5576                        	.line	733
  5577 09:F232: F4 xx xx     	pea	#^L119
  5578 09:F235: F4 xx xx     	pea	#<L119
  5579 09:F238: D4 07        	pei	<L121+type_txt_1+2
  5580 09:F23A: D4 05        	pei	<L121+type_txt_1
  5581 09:F23C: 22 xx xx xx  	jsl	~~k_strcpy
  5582                        ;  else if((Type & 0x001F) == 0x0001)
  5583 09:F240: 82 DA 00     	brl	L10074
  5584                        L10073:
  5585                        	.line	734
  5586                        ;    k_strcpy(type_txt,"Data");
  5587 09:F243: A5 10        	lda	<L120+Type_0
  5588 09:F245: 29 1F 00     	and	#<$1f
  5589 09:F248: 85 01        	sta	<R0
  5590 09:F24A: A5 01        	lda	<R0
  5591 09:F24C: C9 01 00     	cmp	#<$1
  5592 09:F24F: F0 03        	beq	L124
  5593 09:F251: 82 11 00     	brl	L10075
  5594                        L124:
  5595                        	.line	735
  5596 09:F254: F4 xx xx     	pea	#^L119+5
  5597 09:F257: F4 xx xx     	pea	#<L119+5
  5598 09:F25A: D4 07        	pei	<L121+type_txt_1+2
  5599 09:F25C: D4 05        	pei	<L121+type_txt_1
  5600 09:F25E: 22 xx xx xx  	jsl	~~k_strcpy
  5601                        ;  else if((Type & 0x001F) == 0x0002)
  5602 09:F262: 82 B8 00     	brl	L10076
  5603                        L10075:
  5604                        	.line	736
  5605                        ;    k_strcpy(type_txt,"Jump Table");
  5606 09:F265: A5 10        	lda	<L120+Type_0
  5607 09:F267: 29 1F 00     	and	#<$1f
  5608 09:F26A: 85 01        	sta	<R0
  5609 09:F26C: A5 01        	lda	<R0
  Thu Dec  3 2020 22:25                                                Page 139


  5610 09:F26E: C9 02 00     	cmp	#<$2
  5611 09:F271: F0 03        	beq	L125
  5612 09:F273: 82 11 00     	brl	L10077
  5613                        L125:
  5614                        	.line	737
  5615 09:F276: F4 xx xx     	pea	#^L119+10
  5616 09:F279: F4 xx xx     	pea	#<L119+10
  5617 09:F27C: D4 07        	pei	<L121+type_txt_1+2
  5618 09:F27E: D4 05        	pei	<L121+type_txt_1
  5619 09:F280: 22 xx xx xx  	jsl	~~k_strcpy
  5620                        ;  else if((Type & 0x001F) == 0x0004)
  5621 09:F284: 82 96 00     	brl	L10078
  5622                        L10077:
  5623                        	.line	738
  5624                        ;    k_strcpy(type_txt,"PathName");
  5625 09:F287: A5 10        	lda	<L120+Type_0
  5626 09:F289: 29 1F 00     	and	#<$1f
  5627 09:F28C: 85 01        	sta	<R0
  5628 09:F28E: A5 01        	lda	<R0
  5629 09:F290: C9 04 00     	cmp	#<$4
  5630 09:F293: F0 03        	beq	L126
  5631 09:F295: 82 11 00     	brl	L10079
  5632                        L126:
  5633                        	.line	739
  5634 09:F298: F4 xx xx     	pea	#^L119+21
  5635 09:F29B: F4 xx xx     	pea	#<L119+21
  5636 09:F29E: D4 07        	pei	<L121+type_txt_1+2
  5637 09:F2A0: D4 05        	pei	<L121+type_txt_1
  5638 09:F2A2: 22 xx xx xx  	jsl	~~k_strcpy
  5639                        ;  else if((Type & 0x001F) == 0x0008)
  5640 09:F2A6: 82 74 00     	brl	L10080
  5641                        L10079:
  5642                        	.line	740
  5643                        ;    k_strcpy(type_txt,"Lib Dictionnary");
  5644 09:F2A9: A5 10        	lda	<L120+Type_0
  5645 09:F2AB: 29 1F 00     	and	#<$1f
  5646 09:F2AE: 85 01        	sta	<R0
  5647 09:F2B0: A5 01        	lda	<R0
  5648 09:F2B2: C9 08 00     	cmp	#<$8
  5649 09:F2B5: F0 03        	beq	L127
  5650 09:F2B7: 82 11 00     	brl	L10081
  5651                        L127:
  5652                        	.line	741
  5653 09:F2BA: F4 xx xx     	pea	#^L119+30
  5654 09:F2BD: F4 xx xx     	pea	#<L119+30
  5655 09:F2C0: D4 07        	pei	<L121+type_txt_1+2
  5656 09:F2C2: D4 05        	pei	<L121+type_txt_1
  5657 09:F2C4: 22 xx xx xx  	jsl	~~k_strcpy
  5658                        ;  else if((Type & 0x001F) == 0x0010)
  5659 09:F2C8: 82 52 00     	brl	L10082
  5660                        L10081:
  5661                        	.line	742
  5662                        ;    k_strcpy(type_txt,"Init");
  5663 09:F2CB: A5 10        	lda	<L120+Type_0
  5664 09:F2CD: 29 1F 00     	and	#<$1f
  5665 09:F2D0: 85 01        	sta	<R0
  5666 09:F2D2: A5 01        	lda	<R0
  5667 09:F2D4: C9 10 00     	cmp	#<$10
  Thu Dec  3 2020 22:25                                                Page 140


  5668 09:F2D7: F0 03        	beq	L128
  5669 09:F2D9: 82 11 00     	brl	L10083
  5670                        L128:
  5671                        	.line	743
  5672 09:F2DC: F4 xx xx     	pea	#^L119+46
  5673 09:F2DF: F4 xx xx     	pea	#<L119+46
  5674 09:F2E2: D4 07        	pei	<L121+type_txt_1+2
  5675 09:F2E4: D4 05        	pei	<L121+type_txt_1
  5676 09:F2E6: 22 xx xx xx  	jsl	~~k_strcpy
  5677                        ;  else if((Type & 0x001F) == 0x0012)
  5678 09:F2EA: 82 30 00     	brl	L10084
  5679                        L10083:
  5680                        	.line	744
  5681                        ;    k_strcpy(type_txt,"DP / Stack");
  5682 09:F2ED: A5 10        	lda	<L120+Type_0
  5683 09:F2EF: 29 1F 00     	and	#<$1f
  5684 09:F2F2: 85 01        	sta	<R0
  5685 09:F2F4: A5 01        	lda	<R0
  5686 09:F2F6: C9 12 00     	cmp	#<$12
  5687 09:F2F9: F0 03        	beq	L129
  5688 09:F2FB: 82 11 00     	brl	L10085
  5689                        L129:
  5690                        	.line	745
  5691 09:F2FE: F4 xx xx     	pea	#^L119+51
  5692 09:F301: F4 xx xx     	pea	#<L119+51
  5693 09:F304: D4 07        	pei	<L121+type_txt_1+2
  5694 09:F306: D4 05        	pei	<L121+type_txt_1
  5695 09:F308: 22 xx xx xx  	jsl	~~k_strcpy
  5696                        ;  else
  5697 09:F30C: 82 0E 00     	brl	L10086
  5698                        L10085:
  5699                        ;    k_strcpy(type_txt,"Unknown Type");
  5700                        	.line	747
  5701 09:F30F: F4 xx xx     	pea	#^L119+62
  5702 09:F312: F4 xx xx     	pea	#<L119+62
  5703 09:F315: D4 07        	pei	<L121+type_txt_1+2
  5704 09:F317: D4 05        	pei	<L121+type_txt_1
  5705 09:F319: 22 xx xx xx  	jsl	~~k_strcpy
  5706                        L10086:
  5707                        L10084:
  5708                        L10082:
  5709                        L10080:
  5710                        L10078:
  5711                        L10076:
  5712                        L10074:
  5713                        ;  if(type_only == 1)
  5714                        	.line	748
  5715                        ;    return(&type_txt[0]);
  5716 09:F31D: A5 12        	lda	<L120+type_only_0
  5717 09:F31F: C9 01 00     	cmp	#<$1
  5718 09:F322: F0 03        	beq	L130
  5719 09:F324: 82 16 00     	brl	L10087
  5720                        L130:
  5721                        	.line	749
  5722 09:F327: A6 07        	ldx	<L121+type_txt_1+2
  5723 09:F329: A5 05        	lda	<L121+type_txt_1
  5724                        L131:
  5725 09:F32B: A8           	tay
  Thu Dec  3 2020 22:25                                                Page 141


  5726 09:F32C: A5 0E        	lda	<L120+2
  5727 09:F32E: 85 12        	sta	<L120+2+4
  5728 09:F330: A5 0D        	lda	<L120+1
  5729 09:F332: 85 11        	sta	<L120+1+4
  5730 09:F334: 2B           	pld
  5731 09:F335: 3B           	tsc
  5732 09:F336: 18           	clc
  5733 09:F337: 69 10 00     	adc	#L120+4
  5734 09:F33A: 1B           	tcs
  5735 09:F33B: 98           	tya
  5736 09:F33C: 6B           	rtl
  5737                        ;
  5738                        ;  /** Attributs **/
  5739                        ;  if((Type & 0x8000) == 0x0000)
  5740                        L10087:
  5741                        	.line	752
  5742                        ;    k_strcpy(attributes_txt,"Static");
  5743 09:F33D: A5 10        	lda	<L120+Type_0
  5744 09:F33F: 29 00 80     	and	#<$8000
  5745 09:F342: F0 03        	beq	L132
  5746 09:F344: 82 11 00     	brl	L10088
  5747                        L132:
  5748                        	.line	753
  5749 09:F347: F4 xx xx     	pea	#^L119+75
  5750 09:F34A: F4 xx xx     	pea	#<L119+75
  5751 09:F34D: D4 0B        	pei	<L121+attributes_txt_1+2
  5752 09:F34F: D4 09        	pei	<L121+attributes_txt_1
  5753 09:F351: 22 xx xx xx  	jsl	~~k_strcpy
  5754                        ;  else
  5755 09:F355: 82 0E 00     	brl	L10089
  5756                        L10088:
  5757                        ;    k_strcpy(attributes_txt,"Dynamic");
  5758                        	.line	755
  5759 09:F358: F4 xx xx     	pea	#^L119+82
  5760 09:F35B: F4 xx xx     	pea	#<L119+82
  5761 09:F35E: D4 0B        	pei	<L121+attributes_txt_1+2
  5762 09:F360: D4 09        	pei	<L121+attributes_txt_1
  5763 09:F362: 22 xx xx xx  	jsl	~~k_strcpy
  5764                        L10089:
  5765                        ;  if((Type & 0x4000))
  5766                        	.line	756
  5767                        ;    k_strcat(attributes_txt," + Private");
  5768 09:F366: A5 10        	lda	<L120+Type_0
  5769 09:F368: 29 00 40     	and	#<$4000
  5770 09:F36B: D0 03        	bne	L133
  5771 09:F36D: 82 0E 00     	brl	L10090
  5772                        L133:
  5773                        	.line	757
  5774 09:F370: F4 xx xx     	pea	#^L119+90
  5775 09:F373: F4 xx xx     	pea	#<L119+90
  5776 09:F376: D4 0B        	pei	<L121+attributes_txt_1+2
  5777 09:F378: D4 09        	pei	<L121+attributes_txt_1
  5778 09:F37A: 22 xx xx xx  	jsl	~~k_strcat
  5779                        ;  if((Type & 0x2000))
  5780                        L10090:
  5781                        	.line	758
  5782                        ;    k_strcat(attributes_txt," + Position independ
                    ent");
  Thu Dec  3 2020 22:25                                                Page 142


  5783 09:F37E: A5 10        	lda	<L120+Type_0
  5784 09:F380: 29 00 20     	and	#<$2000
  5785 09:F383: D0 03        	bne	L134
  5786 09:F385: 82 0E 00     	brl	L10091
  5787                        L134:
  5788                        	.line	759
  5789 09:F388: F4 xx xx     	pea	#^L119+101
  5790 09:F38B: F4 xx xx     	pea	#<L119+101
  5791 09:F38E: D4 0B        	pei	<L121+attributes_txt_1+2
  5792 09:F390: D4 09        	pei	<L121+attributes_txt_1
  5793 09:F392: 22 xx xx xx  	jsl	~~k_strcat
  5794                        ;  if((Type & 0x1000) == 0x0000)
  5795                        L10091:
  5796                        	.line	760
  5797                        ;    k_strcat(attributes_txt," + Can be loaded in 
                    Special Memory");
  5798 09:F396: A5 10        	lda	<L120+Type_0
  5799 09:F398: 29 00 10     	and	#<$1000
  5800 09:F39B: F0 03        	beq	L135
  5801 09:F39D: 82 0E 00     	brl	L10092
  5802                        L135:
  5803                        	.line	761
  5804 09:F3A0: F4 xx xx     	pea	#^L119+125
  5805 09:F3A3: F4 xx xx     	pea	#<L119+125
  5806 09:F3A6: D4 0B        	pei	<L121+attributes_txt_1+2
  5807 09:F3A8: D4 09        	pei	<L121+attributes_txt_1
  5808 09:F3AA: 22 xx xx xx  	jsl	~~k_strcat
  5809                        ;  if((Type & 0x0800))
  5810                        L10092:
  5811                        	.line	762
  5812                        ;    k_strcat(attributes_txt," + Absolute Bank");
  5813 09:F3AE: A5 10        	lda	<L120+Type_0
  5814 09:F3B0: 29 00 08     	and	#<$800
  5815 09:F3B3: D0 03        	bne	L136
  5816 09:F3B5: 82 0E 00     	brl	L10093
  5817                        L136:
  5818                        	.line	763
  5819 09:F3B8: F4 xx xx     	pea	#^L119+160
  5820 09:F3BB: F4 xx xx     	pea	#<L119+160
  5821 09:F3BE: D4 0B        	pei	<L121+attributes_txt_1+2
  5822 09:F3C0: D4 09        	pei	<L121+attributes_txt_1
  5823 09:F3C2: 22 xx xx xx  	jsl	~~k_strcat
  5824                        ;  if((Type & 0x0400))
  5825                        L10093:
  5826                        	.line	764
  5827                        ;    k_strcat(attributes_txt," + Reload");
  5828 09:F3C6: A5 10        	lda	<L120+Type_0
  5829 09:F3C8: 29 00 04     	and	#<$400
  5830 09:F3CB: D0 03        	bne	L137
  5831 09:F3CD: 82 0E 00     	brl	L10094
  5832                        L137:
  5833                        	.line	765
  5834 09:F3D0: F4 xx xx     	pea	#^L119+177
  5835 09:F3D3: F4 xx xx     	pea	#<L119+177
  5836 09:F3D6: D4 0B        	pei	<L121+attributes_txt_1+2
  5837 09:F3D8: D4 09        	pei	<L121+attributes_txt_1
  5838 09:F3DA: 22 xx xx xx  	jsl	~~k_strcat
  5839                        ;  if((Type & 0x0200))
  Thu Dec  3 2020 22:25                                                Page 143


  5840                        L10094:
  5841                        	.line	766
  5842                        ;    k_strcat(attributes_txt," + Skip");
  5843 09:F3DE: A5 10        	lda	<L120+Type_0
  5844 09:F3E0: 29 00 02     	and	#<$200
  5845 09:F3E3: D0 03        	bne	L138
  5846 09:F3E5: 82 0E 00     	brl	L10095
  5847                        L138:
  5848                        	.line	767
  5849 09:F3E8: F4 xx xx     	pea	#^L119+187
  5850 09:F3EB: F4 xx xx     	pea	#<L119+187
  5851 09:F3EE: D4 0B        	pei	<L121+attributes_txt_1+2
  5852 09:F3F0: D4 09        	pei	<L121+attributes_txt_1
  5853 09:F3F2: 22 xx xx xx  	jsl	~~k_strcat
  5854                        ;  if((Type & 0x0100))
  5855                        L10095:
  5856                        	.line	768
  5857                        ;    k_strcat(attributes_txt," + Bank Relative");
  5858 09:F3F6: A5 10        	lda	<L120+Type_0
  5859 09:F3F8: 29 00 01     	and	#<$100
  5860 09:F3FB: D0 03        	bne	L139
  5861 09:F3FD: 82 0E 00     	brl	L10096
  5862                        L139:
  5863                        	.line	769
  5864 09:F400: F4 xx xx     	pea	#^L119+195
  5865 09:F403: F4 xx xx     	pea	#<L119+195
  5866 09:F406: D4 0B        	pei	<L121+attributes_txt_1+2
  5867 09:F408: D4 09        	pei	<L121+attributes_txt_1
  5868 09:F40A: 22 xx xx xx  	jsl	~~k_strcat
  5869                        ;
  5870                        ;  /* Ajoute les attributs */
  5871                        ;  k_strcat(type_txt,"  (");
  5872                        L10096:
  5873                        	.line	772
  5874 09:F40E: F4 xx xx     	pea	#^L119+212
  5875 09:F411: F4 xx xx     	pea	#<L119+212
  5876 09:F414: D4 07        	pei	<L121+type_txt_1+2
  5877 09:F416: D4 05        	pei	<L121+type_txt_1
  5878 09:F418: 22 xx xx xx  	jsl	~~k_strcat
  5879                        ;  k_strcat(type_txt,attributes_txt);
  5880                        	.line	773
  5881 09:F41C: D4 0B        	pei	<L121+attributes_txt_1+2
  5882 09:F41E: D4 09        	pei	<L121+attributes_txt_1
  5883 09:F420: D4 07        	pei	<L121+type_txt_1+2
  5884 09:F422: D4 05        	pei	<L121+type_txt_1
  5885 09:F424: 22 xx xx xx  	jsl	~~k_strcat
  5886                        ;  k_strcat(type_txt,")");
  5887                        	.line	774
  5888 09:F428: F4 xx xx     	pea	#^L119+216
  5889 09:F42B: F4 xx xx     	pea	#<L119+216
  5890 09:F42E: D4 07        	pei	<L121+type_txt_1+2
  5891 09:F430: D4 05        	pei	<L121+type_txt_1
  5892 09:F432: 22 xx xx xx  	jsl	~~k_strcat
  5893                        ;
  5894                        ;  k_free(attributes_txt);
  5895                        	.line	776
  5896 09:F436: D4 0B        	pei	<L121+attributes_txt_1+2
  5897 09:F438: D4 09        	pei	<L121+attributes_txt_1
  Thu Dec  3 2020 22:25                                                Page 144


  5898 09:F43A: 22 xx xx xx  	jsl	~~k_free
  5899                        ;
  5900                        ;  /* Renvoi le Texte */
  5901                        ;  return(type_txt);
  5902                        	.line	779
  5903 09:F43E: A6 07        	ldx	<L121+type_txt_1+2
  5904 09:F440: A5 05        	lda	<L121+type_txt_1
  5905 09:F442: 82 E6 FE     	brl	L131
  5906                        ;}
  5907                        	.line	780
  5908                        	.endblock	780
  5909             0000000C   L120	equ	12
  5910             00000005   L121	equ	5
  5911 09:F445:              	ends
  5912                        	efunc
  5913                        	.endfunc	780,5,12
  5914                        	.line	780
  5915                        	data
  5916                        L119:
  5917 00:1CEF: 43 6F 64 65  	db	$43,$6F,$64,$65,$00,$44,$61,$74,$61,$00,
                    $4A,$75,$6D,$70,$20
       00:1CF3: 00 44 61 74 
       00:1CF7: 61 00 4A 75 
       00:1CFB: 6D 70 20 
  5918 00:1CFE: 54 61 62 6C  	db	$54,$61,$62,$6C,$65,$00,$50,$61,$74,$68,
                    $4E,$61,$6D,$65,$00
       00:1D02: 65 00 50 61 
       00:1D06: 74 68 4E 61 
       00:1D0A: 6D 65 00 
  5919 00:1D0D: 4C 69 62 20  	db	$4C,$69,$62,$20,$44,$69,$63,$74,$69,$6F,
                    $6E,$6E,$61,$72,$79
       00:1D11: 44 69 63 74 
       00:1D15: 69 6F 6E 6E 
       00:1D19: 61 72 79 
  5920 00:1D1C: 00 49 6E 69  	db	$00,$49,$6E,$69,$74,$00,$44,$50,$20,$2F,
                    $20,$53,$74,$61,$63
       00:1D20: 74 00 44 50 
       00:1D24: 20 2F 20 53 
       00:1D28: 74 61 63 
  5921 00:1D2B: 6B 00 55 6E  	db	$6B,$00,$55,$6E,$6B,$6E,$6F,$77,$6E,$20,
                    $54,$79,$70,$65,$00
       00:1D2F: 6B 6E 6F 77 
       00:1D33: 6E 20 54 79 
       00:1D37: 70 65 00 
  5922 00:1D3A: 53 74 61 74  	db	$53,$74,$61,$74,$69,$63,$00,$44,$79,$6E,
                    $61,$6D,$69,$63,$00
       00:1D3E: 69 63 00 44 
       00:1D42: 79 6E 61 6D 
       00:1D46: 69 63 00 
  5923 00:1D49: 20 2B 20 50  	db	$20,$2B,$20,$50,$72,$69,$76,$61,$74,$65,
                    $00,$20,$2B,$20,$50
       00:1D4D: 72 69 76 61 
       00:1D51: 74 65 00 20 
       00:1D55: 2B 20 50 
  5924 00:1D58: 6F 73 69 74  	db	$6F,$73,$69,$74,$69,$6F,$6E,$20,$69,$6E,
                    $64,$65,$70,$65,$6E
       00:1D5C: 69 6F 6E 20 
       00:1D60: 69 6E 64 65 
  Thu Dec  3 2020 22:25                                                Page 145


       00:1D64: 70 65 6E 
  5925 00:1D67: 64 65 6E 74  	db	$64,$65,$6E,$74,$00,$20,$2B,$20,$43,$61,
                    $6E,$20,$62,$65,$20
       00:1D6B: 00 20 2B 20 
       00:1D6F: 43 61 6E 20 
       00:1D73: 62 65 20 
  5926 00:1D76: 6C 6F 61 64  	db	$6C,$6F,$61,$64,$65,$64,$20,$69,$6E,$20,
                    $53,$70,$65,$63,$69
       00:1D7A: 65 64 20 69 
       00:1D7E: 6E 20 53 70 
       00:1D82: 65 63 69 
  5927 00:1D85: 61 6C 20 4D  	db	$61,$6C,$20,$4D,$65,$6D,$6F,$72,$79,$00,
                    $20,$2B,$20,$41,$62
       00:1D89: 65 6D 6F 72 
       00:1D8D: 79 00 20 2B 
       00:1D91: 20 41 62 
  5928 00:1D94: 73 6F 6C 75  	db	$73,$6F,$6C,$75,$74,$65,$20,$42,$61,$6E,
                    $6B,$00,$20,$2B,$20
       00:1D98: 74 65 20 42 
       00:1D9C: 61 6E 6B 00 
       00:1DA0: 20 2B 20 
  5929 00:1DA3: 52 65 6C 6F  	db	$52,$65,$6C,$6F,$61,$64,$00,$20,$2B,$20,
                    $53,$6B,$69,$70,$00
       00:1DA7: 61 64 00 20 
       00:1DAB: 2B 20 53 6B 
       00:1DAF: 69 70 00 
  5930 00:1DB2: 20 2B 20 42  	db	$20,$2B,$20,$42,$61,$6E,$6B,$20,$52,$65,
                    $6C,$61,$74,$69,$76
       00:1DB6: 61 6E 6B 20 
       00:1DBA: 52 65 6C 61 
       00:1DBE: 74 69 76 
  5931 00:1DC1: 65 00 20 20  	db	$65,$00,$20,$20,$28,$00,$29,$00
       00:1DC5: 28 00 29 00 
  5932 00:1DC9:              	ends
  5933                        ;
  5934                        ;
  5935                        ;/************************************************
                    ***************************/
  5936                        ;/*  GetSegmentAlign() :  Dcode les diffrentes v
                    aleurs pour l'alignement. */
  5937                        ;/************************************************
                    ***************************/
  5938                        ;static char *GetSegmentAlign(DWORD Align)
  5939                        ;{
  5940                        	.line	786
  5941                        	.line	787
  5942                        	LOADER
  5943                        	func
  5944                        	.function	787
  5945                        ~~GetSegmentAlign:
  5946                        	longa	on
  5947                        	longi	on
  5948 09:F445: 3B           	tsc
  5949 09:F446: 38           	sec
  5950 09:F447: E9 04 00     	sbc	#L141
  5951 09:F44A: 1B           	tcs
  5952 09:F44B: 0B           	phd
  5953 09:F44C: 5B           	tcd
  Thu Dec  3 2020 22:25                                                Page 146


  5954             00000004   Align_0	set	4
  5955                        	.block	787
  5956                        ;  LPSTR align_txt = k_calloc(1,256);
  5957                        ;
  5958                        ;  /** Dcode l'alignement **/
  5959                        ;  if(Align == 0)
  5960             00000000   align_txt_1	set	0
  5961                        	.sym	align_txt,0,142,1,32
  5962                        	.sym	Align,4,18,6,32
  5963 09:F44D: F4 00 01     	pea	#<$100
  5964 09:F450: F4 01 00     	pea	#<$1
  5965 09:F453: 22 xx xx xx  	jsl	~~k_calloc
  5966 09:F457: 85 01        	sta	<L142+align_txt_1
  5967 09:F459: 86 03        	stx	<L142+align_txt_1+2
  5968                        	.line	791
  5969                        ;    k_strcpy(align_txt,"No alignment needed");
  5970 09:F45B: A5 08        	lda	<L141+Align_0
  5971 09:F45D: 05 0A        	ora	<L141+Align_0+2
  5972 09:F45F: F0 03        	beq	L144
  5973 09:F461: 82 11 00     	brl	L10097
  5974                        L144:
  5975                        	.line	792
  5976 09:F464: F4 xx xx     	pea	#^L140
  5977 09:F467: F4 xx xx     	pea	#<L140
  5978 09:F46A: D4 03        	pei	<L142+align_txt_1+2
  5979 09:F46C: D4 01        	pei	<L142+align_txt_1
  5980 09:F46E: 22 xx xx xx  	jsl	~~k_strcpy
  5981                        ;  else if(Align == 0x100)
  5982 09:F472: 82 52 00     	brl	L10098
  5983                        L10097:
  5984                        	.line	793
  5985                        ;    k_strcpy(align_txt,"Page boundary alignment")
                    ;
  5986 09:F475: A5 08        	lda	<L141+Align_0
  5987 09:F477: C9 00 01     	cmp	#<$100
  5988 09:F47A: D0 05        	bne	L145
  5989 09:F47C: A5 0A        	lda	<L141+Align_0+2
  5990 09:F47E: C9 00 00     	cmp	#^$100
  5991                        L145:
  5992 09:F481: F0 03        	beq	L146
  5993 09:F483: 82 11 00     	brl	L10099
  5994                        L146:
  5995                        	.line	794
  5996 09:F486: F4 xx xx     	pea	#^L140+20
  5997 09:F489: F4 xx xx     	pea	#<L140+20
  5998 09:F48C: D4 03        	pei	<L142+align_txt_1+2
  5999 09:F48E: D4 01        	pei	<L142+align_txt_1
  6000 09:F490: 22 xx xx xx  	jsl	~~k_strcpy
  6001                        ;  else if(Align == 0x010000)
  6002 09:F494: 82 30 00     	brl	L10100
  6003                        L10099:
  6004                        	.line	795
  6005                        ;    k_strcpy(align_txt,"Bank boundary alignment")
                    ;
  6006 09:F497: A5 08        	lda	<L141+Align_0
  6007 09:F499: C9 00 00     	cmp	#<$10000
  6008 09:F49C: D0 05        	bne	L147
  6009 09:F49E: A5 0A        	lda	<L141+Align_0+2
  Thu Dec  3 2020 22:25                                                Page 147


  6010 09:F4A0: C9 01 00     	cmp	#^$10000
  6011                        L147:
  6012 09:F4A3: F0 03        	beq	L148
  6013 09:F4A5: 82 11 00     	brl	L10101
  6014                        L148:
  6015                        	.line	796
  6016 09:F4A8: F4 xx xx     	pea	#^L140+44
  6017 09:F4AB: F4 xx xx     	pea	#<L140+44
  6018 09:F4AE: D4 03        	pei	<L142+align_txt_1+2
  6019 09:F4B0: D4 01        	pei	<L142+align_txt_1
  6020 09:F4B2: 22 xx xx xx  	jsl	~~k_strcpy
  6021                        ;  else
  6022 09:F4B6: 82 0E 00     	brl	L10102
  6023                        L10101:
  6024                        ;    k_strcpy(align_txt,"Unknown alignment");
  6025                        	.line	798
  6026 09:F4B9: F4 xx xx     	pea	#^L140+68
  6027 09:F4BC: F4 xx xx     	pea	#<L140+68
  6028 09:F4BF: D4 03        	pei	<L142+align_txt_1+2
  6029 09:F4C1: D4 01        	pei	<L142+align_txt_1
  6030 09:F4C3: 22 xx xx xx  	jsl	~~k_strcpy
  6031                        L10102:
  6032                        L10100:
  6033                        L10098:
  6034                        ;
  6035                        ;  /* Renvoi le Texte */
  6036                        ;  return(align_txt);
  6037                        	.line	801
  6038 09:F4C7: A6 03        	ldx	<L142+align_txt_1+2
  6039 09:F4C9: A5 01        	lda	<L142+align_txt_1
  6040                        L149:
  6041 09:F4CB: A8           	tay
  6042 09:F4CC: A5 06        	lda	<L141+2
  6043 09:F4CE: 85 0A        	sta	<L141+2+4
  6044 09:F4D0: A5 05        	lda	<L141+1
  6045 09:F4D2: 85 09        	sta	<L141+1+4
  6046 09:F4D4: 2B           	pld
  6047 09:F4D5: 3B           	tsc
  6048 09:F4D6: 18           	clc
  6049 09:F4D7: 69 08 00     	adc	#L141+4
  6050 09:F4DA: 1B           	tcs
  6051 09:F4DB: 98           	tya
  6052 09:F4DC: 6B           	rtl
  6053                        ;}
  6054                        	.line	802
  6055                        	.endblock	802
  6056             00000004   L141	equ	4
  6057             00000001   L142	equ	1
  6058 09:F4DD:              	ends
  6059                        	efunc
  6060                        	.endfunc	802,1,4
  6061                        	.line	802
  6062                        	data
  6063                        L140:
  6064 00:1DC9: 4E 6F 20 61  	db	$4E,$6F,$20,$61,$6C,$69,$67,$6E,$6D,$65,
                    $6E,$74,$20,$6E,$65
       00:1DCD: 6C 69 67 6E 
       00:1DD1: 6D 65 6E 74 
  Thu Dec  3 2020 22:25                                                Page 148


       00:1DD5: 20 6E 65 
  6065 00:1DD8: 65 64 65 64  	db	$65,$64,$65,$64,$00,$50,$61,$67,$65,$20,
                    $62,$6F,$75,$6E,$64
       00:1DDC: 00 50 61 67 
       00:1DE0: 65 20 62 6F 
       00:1DE4: 75 6E 64 
  6066 00:1DE7: 61 72 79 20  	db	$61,$72,$79,$20,$61,$6C,$69,$67,$6E,$6D,
                    $65,$6E,$74,$00,$42
       00:1DEB: 61 6C 69 67 
       00:1DEF: 6E 6D 65 6E 
       00:1DF3: 74 00 42 
  6067 00:1DF6: 61 6E 6B 20  	db	$61,$6E,$6B,$20,$62,$6F,$75,$6E,$64,$61,
                    $72,$79,$20,$61,$6C
       00:1DFA: 62 6F 75 6E 
       00:1DFE: 64 61 72 79 
       00:1E02: 20 61 6C 
  6068 00:1E05: 69 67 6E 6D  	db	$69,$67,$6E,$6D,$65,$6E,$74,$00,$55,$6E,
                    $6B,$6E,$6F,$77,$6E
       00:1E09: 65 6E 74 00 
       00:1E0D: 55 6E 6B 6E 
       00:1E11: 6F 77 6E 
  6069 00:1E14: 20 61 6C 69  	db	$20,$61,$6C,$69,$67,$6E,$6D,$65,$6E,$74,
                    $00
       00:1E18: 67 6E 6D 65 
       00:1E1C: 6E 74 00 
  6070 00:1E1F:              	ends
  6071                        ;
  6072                        ;
  6073                        ;/************************************************
                    ***************/
  6074                        ;/*  GetRecordList() :  Extrait la liste des Recor
                    d du Segment. */
  6075                        ;/************************************************
                    ***************/
  6076                        ;static char *GetRecordList(struct omf_segment *cu
                    rrent_segment)
  6077                        ;{
  6078                        	.line	808
  6079                        	.line	809
  6080                        	LOADER
  6081                        	func
  6082                        	.function	809
  6083                        ~~GetRecordList:
  6084                        	longa	on
  6085                        	longi	on
  6086 09:F4DD: 3B           	tsc
  6087 09:F4DE: 38           	sec
  6088 09:F4DF: E9 12 00     	sbc	#L151
  6089 09:F4E2: 1B           	tcs
  6090 09:F4E3: 0B           	phd
  6091 09:F4E4: 5B           	tcd
  6092             00000004   current_segment_0	set	4
  6093                        	.block	809
  6094                        ;  int nb_found;
  6095                        ;  struct omf_body_record *current_record;
  6096                        ;  struct omf_body_record *next_record;
  6097                        ;
  6098                        ;  LPSTR record_list = k_calloc(1,2048);
  Thu Dec  3 2020 22:25                                                Page 149


  6099                        ;
  6100                        ;  /* Init */
  6101                        ;  k_strcpy(record_list,"");
  6102             00000000   nb_found_1	set	0
  6103             00000002   current_record_1	set	2
  6104             00000006   next_record_1	set	6
  6105             0000000A   record_list_1	set	10
  6106                        	.sym	nb_found,0,5,1,16
  6107                        	.sym	current_record,2,138,1,32,67
  6108                        	.sym	next_record,6,138,1,32,67
  6109                        	.sym	record_list,10,142,1,32
  6110                        	.sym	current_segment,4,138,6,32,65
  6111 09:F4E5: F4 00 08     	pea	#<$800
  6112 09:F4E8: F4 01 00     	pea	#<$1
  6113 09:F4EB: 22 xx xx xx  	jsl	~~k_calloc
  6114 09:F4EF: 85 0F        	sta	<L152+record_list_1
  6115 09:F4F1: 86 11        	stx	<L152+record_list_1+2
  6116                        	.line	817
  6117 09:F4F3: F4 xx xx     	pea	#^L150
  6118 09:F4F6: F4 xx xx     	pea	#<L150
  6119 09:F4F9: D4 11        	pei	<L152+record_list_1+2
  6120 09:F4FB: D4 0F        	pei	<L152+record_list_1
  6121 09:F4FD: 22 xx xx xx  	jsl	~~k_strcpy
  6122                        ;  for(current_record=current_segment->first_recor
                    d; current_record; current_record=current_record->next)
  6123                        	.line	818
  6124 09:F501: A0 41 0A     	ldy	#$a41
  6125 09:F504: B7 16        	lda	[<L151+current_segment_0],Y
  6126 09:F506: 85 07        	sta	<L152+current_record_1
  6127 09:F508: A0 43 0A     	ldy	#$a43
  6128 09:F50B: B7 16        	lda	[<L151+current_segment_0],Y
  6129 09:F50D: 85 09        	sta	<L152+current_record_1+2
  6130 09:F50F: 82 1E 00     	brl	L10106
  6131                        L10105:
  6132                        ;    current_record->processed = 0;
  6133                        	.line	819
  6134 09:F512: A9 00 00     	lda	#$0
  6135 09:F515: A0 0F 00     	ldy	#$f
  6136 09:F518: 97 07        	sta	[<L152+current_record_1],Y
  6137                        L10103:
  6138 09:F51A: A0 11 00     	ldy	#$11
  6139 09:F51D: B7 07        	lda	[<L152+current_record_1],Y
  6140 09:F51F: 85 01        	sta	<R0
  6141 09:F521: A0 13 00     	ldy	#$13
  6142 09:F524: B7 07        	lda	[<L152+current_record_1],Y
  6143 09:F526: 85 03        	sta	<R0+2
  6144 09:F528: A5 01        	lda	<R0
  6145 09:F52A: 85 07        	sta	<L152+current_record_1
  6146 09:F52C: A5 03        	lda	<R0+2
  6147 09:F52E: 85 09        	sta	<L152+current_record_1+2
  6148                        L10106:
  6149 09:F530: A5 07        	lda	<L152+current_record_1
  6150 09:F532: 05 09        	ora	<L152+current_record_1+2
  6151 09:F534: F0 03        	beq	L154
  6152 09:F536: 82 D9 FF     	brl	L10105
  6153                        L154:
  6154                        L10104:
  6155                        ;
  Thu Dec  3 2020 22:25                                                Page 150


  6156                        ;  /** Passe tous les Record en revue **/
  6157                        ;  for(current_record=current_segment->first_recor
                    d; current_record; current_record=current_record->next)
  6158                        	.line	822
  6159 09:F539: A0 41 0A     	ldy	#$a41
  6160 09:F53C: B7 16        	lda	[<L151+current_segment_0],Y
  6161 09:F53E: 85 07        	sta	<L152+current_record_1
  6162 09:F540: A0 43 0A     	ldy	#$a43
  6163 09:F543: B7 16        	lda	[<L151+current_segment_0],Y
  6164 09:F545: 85 09        	sta	<L152+current_record_1+2
  6165 09:F547: 82 D4 00     	brl	L10110
  6166                        L10109:
  6167                        ;    {
  6168                        	.line	823
  6169                        ;      /* Dj traite ? */
  6170                        ;      if(current_record->processed == 1)
  6171                        	.line	825
  6172                        ;        continue;
  6173 09:F54A: A0 0F 00     	ldy	#$f
  6174 09:F54D: B7 07        	lda	[<L152+current_record_1],Y
  6175 09:F54F: C9 01 00     	cmp	#<$1
  6176 09:F552: D0 03        	bne	L155
  6177 09:F554: 82 B1 00     	brl	L10107
  6178                        L155:
  6179                        ;
  6180                        ;      /** Ajoute celui l **/
  6181                        ;      if(strlen(record_list) > 0)
  6182                        	.line	829
  6183                        ;        k_strcat(record_list," + ");
  6184 09:F557: D4 11        	pei	<L152+record_list_1+2
  6185 09:F559: D4 0F        	pei	<L152+record_list_1
  6186 09:F55B: 22 xx xx xx  	jsl	~~strlen
  6187 09:F55F: 85 01        	sta	<R0
  6188 09:F561: A9 00 00     	lda	#$0
  6189 09:F564: C5 01        	cmp	<R0
  6190 09:F566: 90 03        	bcc	L156
  6191 09:F568: 82 0E 00     	brl	L10111
  6192                        L156:
  6193                        	.line	830
  6194 09:F56B: F4 xx xx     	pea	#^L150+1
  6195 09:F56E: F4 xx xx     	pea	#<L150+1
  6196 09:F571: D4 11        	pei	<L152+record_list_1+2
  6197 09:F573: D4 0F        	pei	<L152+record_list_1
  6198 09:F575: 22 xx xx xx  	jsl	~~k_strcat
  6199                        ;      k_strcat(record_list,GetRecordName(current_
                    record->operation_code,0xFF));
  6200                        L10111:
  6201                        	.line	831
  6202 09:F579: F4 FF 00     	pea	#<$ff
  6203 09:F57C: A0 08 00     	ldy	#$8
  6204 09:F57F: B7 07        	lda	[<L152+current_record_1],Y
  6205 09:F581: 48           	pha
  6206 09:F582: 22 xx xx xx  	jsl	~~GetRecordName
  6207 09:F586: 85 01        	sta	<R0
  6208 09:F588: 86 03        	stx	<R0+2
  6209 09:F58A: DA           	phx
  6210 09:F58B: 48           	pha
  6211 09:F58C: D4 11        	pei	<L152+record_list_1+2
  Thu Dec  3 2020 22:25                                                Page 151


  6212 09:F58E: D4 0F        	pei	<L152+record_list_1
  6213 09:F590: 22 xx xx xx  	jsl	~~k_strcat
  6214                        ;      current_record->processed = 1;
  6215                        	.line	832
  6216 09:F594: A9 01 00     	lda	#$1
  6217 09:F597: A0 0F 00     	ldy	#$f
  6218 09:F59A: 97 07        	sta	[<L152+current_record_1],Y
  6219                        ;
  6220                        ;      /* Combien du mme type ? */
  6221                        ;      for(nb_found=1,next_record=current_record->
                    next; next_record; next_record=next_record->next)
  6222                        	.line	835
  6223 09:F59C: A9 01 00     	lda	#$1
  6224 09:F59F: 85 05        	sta	<L152+nb_found_1
  6225 09:F5A1: A0 11 00     	ldy	#$11
  6226 09:F5A4: B7 07        	lda	[<L152+current_record_1],Y
  6227 09:F5A6: 85 0B        	sta	<L152+next_record_1
  6228 09:F5A8: A0 13 00     	ldy	#$13
  6229 09:F5AB: B7 07        	lda	[<L152+current_record_1],Y
  6230 09:F5AD: 85 0D        	sta	<L152+next_record_1+2
  6231 09:F5AF: 82 3D 00     	brl	L10115
  6232                        L10114:
  6233                        ;        if(next_record->processed == 0)
  6234                        	.line	836
  6235                        ;          if(next_record->operation_code == curre
                    nt_record->operation_code)
  6236 09:F5B2: A0 0F 00     	ldy	#$f
  6237 09:F5B5: B7 0B        	lda	[<L152+next_record_1],Y
  6238 09:F5B7: F0 03        	beq	L157
  6239 09:F5B9: 82 1D 00     	brl	L10116
  6240                        L157:
  6241                        	.line	837
  6242                        ;            {
  6243 09:F5BC: E2 20        	sep	#$20
  6244                        	longa	off
  6245 09:F5BE: A0 08 00     	ldy	#$8
  6246 09:F5C1: B7 0B        	lda	[<L152+next_record_1],Y
  6247 09:F5C3: A0 08 00     	ldy	#$8
  6248 09:F5C6: D7 07        	cmp	[<L152+current_record_1],Y
  6249 09:F5C8: C2 20        	rep	#$20
  6250                        	longa	on
  6251 09:F5CA: F0 03        	beq	L158
  6252 09:F5CC: 82 0A 00     	brl	L10117
  6253                        L158:
  6254                        	.line	838
  6255                        ;              nb_found++;
  6256                        	.line	839
  6257 09:F5CF: E6 05        	inc	<L152+nb_found_1
  6258                        ;              next_record->processed = 1;
  6259                        	.line	840
  6260 09:F5D1: A9 01 00     	lda	#$1
  6261 09:F5D4: A0 0F 00     	ldy	#$f
  6262 09:F5D7: 97 0B        	sta	[<L152+next_record_1],Y
  6263                        ;            }
  6264                        	.line	841
  6265                        ;
  6266                        ;      /* On met le nombre si + de 1 */
  6267                        ;      if(nb_found > 1)
  Thu Dec  3 2020 22:25                                                Page 152


  6268                        L10117:
  6269                        L10116:
  6270                        L10112:
  6271 09:F5D9: A0 11 00     	ldy	#$11
  6272 09:F5DC: B7 0B        	lda	[<L152+next_record_1],Y
  6273 09:F5DE: 85 01        	sta	<R0
  6274 09:F5E0: A0 13 00     	ldy	#$13
  6275 09:F5E3: B7 0B        	lda	[<L152+next_record_1],Y
  6276 09:F5E5: 85 03        	sta	<R0+2
  6277 09:F5E7: A5 01        	lda	<R0
  6278 09:F5E9: 85 0B        	sta	<L152+next_record_1
  6279 09:F5EB: A5 03        	lda	<R0+2
  6280 09:F5ED: 85 0D        	sta	<L152+next_record_1+2
  6281                        L10115:
  6282 09:F5EF: A5 0B        	lda	<L152+next_record_1
  6283 09:F5F1: 05 0D        	ora	<L152+next_record_1+2
  6284 09:F5F3: F0 03        	beq	L159
  6285 09:F5F5: 82 BA FF     	brl	L10114
  6286                        L159:
  6287                        L10113:
  6288                        	.line	844
  6289                        ;      {
  6290 09:F5F8: 38           	sec
  6291 09:F5F9: A9 01 00     	lda	#$1
  6292 09:F5FC: E5 05        	sbc	<L152+nb_found_1
  6293 09:F5FE: 70 03        	bvs	L160
  6294 09:F600: 49 00 80     	eor	#$8000
  6295                        L160:
  6296 09:F603: 10 03        	bpl	L161
  6297 09:F605: 82 00 00     	brl	L10118
  6298                        L161:
  6299                        	.line	845
  6300                        ;        ////sprintf(&record_list[strlen(record_li
                    st)]," (%d)",nb_found);
  6301                        ;      }
  6302                        	.line	847
  6303                        ;    }
  6304                        L10118:
  6305                        	.line	848
  6306                        L10107:
  6307 09:F608: A0 11 00     	ldy	#$11
  6308 09:F60B: B7 07        	lda	[<L152+current_record_1],Y
  6309 09:F60D: 85 01        	sta	<R0
  6310 09:F60F: A0 13 00     	ldy	#$13
  6311 09:F612: B7 07        	lda	[<L152+current_record_1],Y
  6312 09:F614: 85 03        	sta	<R0+2
  6313 09:F616: A5 01        	lda	<R0
  6314 09:F618: 85 07        	sta	<L152+current_record_1
  6315 09:F61A: A5 03        	lda	<R0+2
  6316 09:F61C: 85 09        	sta	<L152+current_record_1+2
  6317                        L10110:
  6318 09:F61E: A5 07        	lda	<L152+current_record_1
  6319 09:F620: 05 09        	ora	<L152+current_record_1+2
  6320 09:F622: F0 03        	beq	L162
  6321 09:F624: 82 23 FF     	brl	L10109
  6322                        L162:
  6323                        L10108:
  6324                        ;
  Thu Dec  3 2020 22:25                                                Page 153


  6325                        ;  /* Renvoie la liste */
  6326                        ;  return(record_list);
  6327                        	.line	851
  6328 09:F627: A6 11        	ldx	<L152+record_list_1+2
  6329 09:F629: A5 0F        	lda	<L152+record_list_1
  6330                        L163:
  6331 09:F62B: A8           	tay
  6332 09:F62C: A5 14        	lda	<L151+2
  6333 09:F62E: 85 18        	sta	<L151+2+4
  6334 09:F630: A5 13        	lda	<L151+1
  6335 09:F632: 85 17        	sta	<L151+1+4
  6336 09:F634: 2B           	pld
  6337 09:F635: 3B           	tsc
  6338 09:F636: 18           	clc
  6339 09:F637: 69 16 00     	adc	#L151+4
  6340 09:F63A: 1B           	tcs
  6341 09:F63B: 98           	tya
  6342 09:F63C: 6B           	rtl
  6343                        ;}
  6344                        	.line	852
  6345                        	.endblock	852
  6346             00000012   L151	equ	18
  6347             00000005   L152	equ	5
  6348 09:F63D:              	ends
  6349                        	efunc
  6350                        	.endfunc	852,5,18
  6351                        	.line	852
  6352                        	data
  6353                        L150:
  6354 00:1E1F: 00 20 2B 20  	db	$00,$20,$2B,$20,$00
       00:1E23: 00 
  6355 00:1E24:              	ends
  6356                        ;
  6357                        ;
  6358                        ;/************************************************
                    ******************/
  6359                        ;/*  DumpLCONSTRecord() :  Dump des informations d
                    u Record LCONST. */
  6360                        ;/************************************************
                    ******************/
  6361                        ;static void DumpLCONSTRecord(struct omf_body_reco
                    rd *current_record, FIL *fd, int segment_num)
  6362                        ;{
  6363                        	.line	858
  6364                        	.line	859
  6365                        	LOADER
  6366                        	func
  6367                        	.function	859
  6368                        ~~DumpLCONSTRecord:
  6369                        	longa	on
  6370                        	longi	on
  6371 09:F63D: 3B           	tsc
  6372 09:F63E: 38           	sec
  6373 09:F63F: E9 1A 00     	sbc	#L165
  6374 09:F642: 1B           	tcs
  6375 09:F643: 0B           	phd
  6376 09:F644: 5B           	tcd
  6377             00000004   current_record_0	set	4
  Thu Dec  3 2020 22:25                                                Page 154


  6378             00000008   fd_0	set	8
  6379             0000000C   segment_num_0	set	12
  6380                        	.block	859
  6381                        ;  struct record_LCONST *current_LCONST;
  6382                        ;  int i, j, nb_item;
  6383                        ;  
  6384                        ;  //char buffer[2048];
  6385                        ;  LPSTR buffer = k_mem_allocate_heap(2048);
  6386                        ;
  6387                        ;  /* Rcupre la structure ddie */
  6388                        ;  current_LCONST = (struct record_LCONST *) curre
                    nt_record->record_data;
  6389             00000000   current_LCONST_1	set	0
  6390             00000004   i_1	set	4
  6391             00000006   j_1	set	6
  6392             00000008   nb_item_1	set	8
  6393             0000000A   buffer_1	set	10
  6394                        	.sym	current_LCONST,0,138,1,32,92
  6395                        	.sym	i,4,5,1,16
  6396                        	.sym	j,6,5,1,16
  6397                        	.sym	nb_item,8,5,1,16
  6398                        	.sym	buffer,10,142,1,32
  6399                        	.sym	current_record,4,138,6,32,67
  6400                        	.sym	fd,8,138,6,32,104
  6401                        	.sym	segment_num,12,5,6,16
  6402 09:F645: F4 00 08     	pea	#<$800
  6403 09:F648: 22 xx xx xx  	jsl	~~k_mem_allocate_heap
  6404 09:F64C: 85 17        	sta	<L166+buffer_1
  6405 09:F64E: 86 19        	stx	<L166+buffer_1+2
  6406                        	.line	867
  6407 09:F650: A0 0B 00     	ldy	#$b
  6408 09:F653: B7 1E        	lda	[<L165+current_record_0],Y
  6409 09:F655: 85 0D        	sta	<L166+current_LCONST_1
  6410 09:F657: A0 0D 00     	ldy	#$d
  6411 09:F65A: B7 1E        	lda	[<L165+current_record_0],Y
  6412 09:F65C: 85 0F        	sta	<L166+current_LCONST_1+2
  6413                        ;  
  6414                        ;  /** Dump les donnes en Hexa **/
  6415                        ;  for(i=0; i< (int) current_LCONST->ByteCnt; i+=n
                    b_item)
  6416                        	.line	870
  6417 09:F65E: 64 11        	stz	<L166+i_1
  6418 09:F660: 82 F1 00     	brl	L10122
  6419                        L10121:
  6420                        ;    {
  6421                        	.line	871
  6422                        ;      /* 1 Ligne de 32 bytes */
  6423                        ;      nb_item = ((i+32) > (int) current_LCONST->B
                    yteCnt) ? (current_LCONST->ByteCnt - i) : 32;
  6424                        	.line	873
  6425 09:F663: 18           	clc
  6426 09:F664: A9 20 00     	lda	#$20
  6427 09:F667: 65 11        	adc	<L166+i_1
  6428 09:F669: 85 01        	sta	<R0
  6429 09:F66B: 38           	sec
  6430 09:F66C: A0 09 00     	ldy	#$9
  6431 09:F66F: B7 0D        	lda	[<L166+current_LCONST_1],Y
  6432 09:F671: E5 01        	sbc	<R0
  Thu Dec  3 2020 22:25                                                Page 155


  6433 09:F673: 70 03        	bvs	L169
  6434 09:F675: 49 00 80     	eor	#$8000
  6435                        L169:
  6436 09:F678: 10 03        	bpl	L170
  6437 09:F67A: 82 25 00     	brl	L168
  6438                        L170:
  6439 09:F67D: A0 00 00     	ldy	#$0
  6440 09:F680: A5 11        	lda	<L166+i_1
  6441 09:F682: 10 01        	bpl	L171
  6442 09:F684: 88           	dey
  6443                        L171:
  6444 09:F685: 85 01        	sta	<R0
  6445 09:F687: 84 03        	sty	<R0+2
  6446 09:F689: 38           	sec
  6447 09:F68A: A0 09 00     	ldy	#$9
  6448 09:F68D: B7 0D        	lda	[<L166+current_LCONST_1],Y
  6449 09:F68F: E5 01        	sbc	<R0
  6450 09:F691: 85 05        	sta	<R1
  6451 09:F693: A0 0B 00     	ldy	#$b
  6452 09:F696: B7 0D        	lda	[<L166+current_LCONST_1],Y
  6453 09:F698: E5 03        	sbc	<R0+2
  6454 09:F69A: 85 07        	sta	<R1+2
  6455 09:F69C: A6 07        	ldx	<R1+2
  6456 09:F69E: A5 05        	lda	<R1
  6457 09:F6A0: 80 07        	bra	L172
  6458                        L168:
  6459 09:F6A2: A9 00 00     	lda	#$0
  6460 09:F6A5: AA           	tax
  6461 09:F6A6: A9 20 00     	lda	#$20
  6462                        L172:
  6463 09:F6A9: 85 01        	sta	<R0
  6464 09:F6AB: 86 03        	stx	<R0+2
  6465 09:F6AD: A5 01        	lda	<R0
  6466 09:F6AF: 85 15        	sta	<L166+nb_item_1
  6467                        ;      for(j=0; j<nb_item; j++)
  6468                        	.line	874
  6469 09:F6B1: 64 13        	stz	<L166+j_1
  6470 09:F6B3: 82 2C 00     	brl	L10126
  6471                        L10125:
  6472                        ;        {
  6473                        	.line	875
  6474                        ;          ////sprintf(&buffer[j*3],"%02X",current
                    _LCONST->data[i+j]);
  6475                        ;          k_strcat(buffer,(j == 15) ? "." : " ");
  6476                        	.line	877
  6477 09:F6B6: A5 13        	lda	<L166+j_1
  6478 09:F6B8: C9 0F 00     	cmp	#<$f
  6479 09:F6BB: F0 03        	beq	L174
  6480 09:F6BD: 82 09 00     	brl	L173
  6481                        L174:
  6482 09:F6C0: A9 xx xx     	lda	#^L164
  6483 09:F6C3: AA           	tax
  6484 09:F6C4: A9 xx xx     	lda	#<L164
  6485 09:F6C7: 80 07        	bra	L175
  6486                        L173:
  6487 09:F6C9: A9 xx xx     	lda	#^L164+2
  6488 09:F6CC: AA           	tax
  6489 09:F6CD: A9 xx xx     	lda	#<L164+2
  Thu Dec  3 2020 22:25                                                Page 156


  6490                        L175:
  6491 09:F6D0: 85 01        	sta	<R0
  6492 09:F6D2: 86 03        	stx	<R0+2
  6493 09:F6D4: D4 03        	pei	<R0+2
  6494 09:F6D6: D4 01        	pei	<R0
  6495 09:F6D8: D4 19        	pei	<L166+buffer_1+2
  6496 09:F6DA: D4 17        	pei	<L166+buffer_1
  6497 09:F6DC: 22 xx xx xx  	jsl	~~k_strcat
  6498                        ;        }
  6499                        	.line	878
  6500                        L10123:
  6501 09:F6E0: E6 13        	inc	<L166+j_1
  6502                        L10126:
  6503 09:F6E2: 38           	sec
  6504 09:F6E3: A5 13        	lda	<L166+j_1
  6505 09:F6E5: E5 15        	sbc	<L166+nb_item_1
  6506 09:F6E7: 70 03        	bvs	L176
  6507 09:F6E9: 49 00 80     	eor	#$8000
  6508                        L176:
  6509 09:F6EC: 30 03        	bmi	L177
  6510 09:F6EE: 82 C5 FF     	brl	L10125
  6511                        L177:
  6512                        L10124:
  6513                        ;        
  6514                        ;      /* Dump dans le fichier */
  6515                        ;      f_printf(fd,"  %06X  %02X  %06X  %06X   %s\
                    n",current_LCONST->FileOffset+i,segment_num,current_LCONST->
                    SegmentOffset+i,i,buffer);
  6516                        	.line	881
  6517 09:F6F1: D4 19        	pei	<L166+buffer_1+2
  6518 09:F6F3: D4 17        	pei	<L166+buffer_1
  6519 09:F6F5: D4 11        	pei	<L166+i_1
  6520 09:F6F7: A0 00 00     	ldy	#$0
  6521 09:F6FA: A5 11        	lda	<L166+i_1
  6522 09:F6FC: 10 01        	bpl	L178
  6523 09:F6FE: 88           	dey
  6524                        L178:
  6525 09:F6FF: 85 01        	sta	<R0
  6526 09:F701: 84 03        	sty	<R0+2
  6527 09:F703: 18           	clc
  6528 09:F704: A5 01        	lda	<R0
  6529 09:F706: A0 04 00     	ldy	#$4
  6530 09:F709: 77 0D        	adc	[<L166+current_LCONST_1],Y
  6531 09:F70B: 85 05        	sta	<R1
  6532 09:F70D: A5 03        	lda	<R0+2
  6533 09:F70F: A0 06 00     	ldy	#$6
  6534 09:F712: 77 0D        	adc	[<L166+current_LCONST_1],Y
  6535 09:F714: 85 07        	sta	<R1+2
  6536 09:F716: D4 07        	pei	<R1+2
  6537 09:F718: D4 05        	pei	<R1
  6538 09:F71A: D4 26        	pei	<L165+segment_num_0
  6539 09:F71C: A0 00 00     	ldy	#$0
  6540 09:F71F: A5 11        	lda	<L166+i_1
  6541 09:F721: 10 01        	bpl	L179
  6542 09:F723: 88           	dey
  6543                        L179:
  6544 09:F724: 85 01        	sta	<R0
  6545 09:F726: 84 03        	sty	<R0+2
  Thu Dec  3 2020 22:25                                                Page 157


  6546 09:F728: 18           	clc
  6547 09:F729: A5 01        	lda	<R0
  6548 09:F72B: 67 0D        	adc	[<L166+current_LCONST_1]
  6549 09:F72D: 85 09        	sta	<R2
  6550 09:F72F: A5 03        	lda	<R0+2
  6551 09:F731: A0 02 00     	ldy	#$2
  6552 09:F734: 77 0D        	adc	[<L166+current_LCONST_1],Y
  6553 09:F736: 85 0B        	sta	<R2+2
  6554 09:F738: D4 0B        	pei	<R2+2
  6555 09:F73A: D4 09        	pei	<R2
  6556 09:F73C: F4 xx xx     	pea	#^L164+4
  6557 09:F73F: F4 xx xx     	pea	#<L164+4
  6558 09:F742: D4 24        	pei	<L165+fd_0+2
  6559 09:F744: D4 22        	pei	<L165+fd_0
  6560 09:F746: F4 1A 00     	pea	#26
  6561 09:F749: 22 xx xx xx  	jsl	~~f_printf
  6562                        ;    }
  6563                        	.line	882
  6564                        L10119:
  6565 09:F74D: 18           	clc
  6566 09:F74E: A5 11        	lda	<L166+i_1
  6567 09:F750: 65 15        	adc	<L166+nb_item_1
  6568 09:F752: 85 11        	sta	<L166+i_1
  6569                        L10122:
  6570 09:F754: 38           	sec
  6571 09:F755: A5 11        	lda	<L166+i_1
  6572 09:F757: A0 09 00     	ldy	#$9
  6573 09:F75A: F7 0D        	sbc	[<L166+current_LCONST_1],Y
  6574 09:F75C: 70 03        	bvs	L180
  6575 09:F75E: 49 00 80     	eor	#$8000
  6576                        L180:
  6577 09:F761: 30 03        	bmi	L181
  6578 09:F763: 82 FD FE     	brl	L10121
  6579                        L181:
  6580                        L10120:
  6581                        ;
  6582                        ;  k_mem_deallocate_heap(buffer);
  6583                        	.line	884
  6584 09:F766: D4 19        	pei	<L166+buffer_1+2
  6585 09:F768: D4 17        	pei	<L166+buffer_1
  6586 09:F76A: 22 xx xx xx  	jsl	~~k_mem_deallocate_heap
  6587                        ;}
  6588                        	.line	885
  6589                        L182:
  6590 09:F76E: A5 1C        	lda	<L165+2
  6591 09:F770: 85 26        	sta	<L165+2+10
  6592 09:F772: A5 1B        	lda	<L165+1
  6593 09:F774: 85 25        	sta	<L165+1+10
  6594 09:F776: 2B           	pld
  6595 09:F777: 3B           	tsc
  6596 09:F778: 18           	clc
  6597 09:F779: 69 24 00     	adc	#L165+10
  6598 09:F77C: 1B           	tcs
  6599 09:F77D: 6B           	rtl
  6600                        	.endblock	885
  6601             0000001A   L165	equ	26
  6602             0000000D   L166	equ	13
  6603 09:F77E:              	ends
  Thu Dec  3 2020 22:25                                                Page 158


  6604                        	efunc
  6605                        	.endfunc	885,13,26
  6606                        	.line	885
  6607                        	data
  6608                        L164:
  6609 00:1E24: 2E 00 20 00  	db	$2E,$00,$20,$00,$20,$20,$25,$30,$36,$58,
                    $20,$20,$25,$30,$32
       00:1E28: 20 20 25 30 
       00:1E2C: 36 58 20 20 
       00:1E30: 25 30 32 
  6610 00:1E33: 58 20 20 25  	db	$58,$20,$20,$25,$30,$36,$58,$20,$20,$25,
                    $30,$36,$58,$20,$20
       00:1E37: 30 36 58 20 
       00:1E3B: 20 25 30 36 
       00:1E3F: 58 20 20 
  6611 00:1E42: 20 25 73 0A  	db	$20,$25,$73,$0A,$00
       00:1E46: 00 
  6612 00:1E47:              	ends
  6613                        ;
  6614                        ;
  6615                        ;/************************************************
                    ****************/
  6616                        ;/*  DumpRELOCRecord() :  Dump des informations du
                     Record RELOC. */
  6617                        ;/************************************************
                    ****************/
  6618                        ;static void DumpRELOCRecord(struct omf_body_recor
                    d *current_record, FIL *fd, int segment_num)
  6619                        ;{
  6620                        	.line	891
  6621                        	.line	892
  6622                        	LOADER
  6623                        	func
  6624                        	.function	892
  6625                        ~~DumpRELOCRecord:
  6626                        	longa	on
  6627                        	longi	on
  6628 09:F77E: 3B           	tsc
  6629 09:F77F: 38           	sec
  6630 09:F780: E9 04 00     	sbc	#L184
  6631 09:F783: 1B           	tcs
  6632 09:F784: 0B           	phd
  6633 09:F785: 5B           	tcd
  6634             00000004   current_record_0	set	4
  6635             00000008   fd_0	set	8
  6636             0000000C   segment_num_0	set	12
  6637                        	.block	892
  6638                        ;  struct record_RELOC *current_RELOC;
  6639                        ;  
  6640                        ;  /* Rcupre la structure ddie */
  6641                        ;  current_RELOC = (struct record_RELOC *) current
                    _record->record_data;
  6642             00000000   current_RELOC_1	set	0
  6643                        	.sym	current_RELOC,0,138,1,32,78
  6644                        	.sym	current_record,4,138,6,32,67
  6645                        	.sym	fd,8,138,6,32,104
  6646                        	.sym	segment_num,12,5,6,16
  6647                        	.line	896
  Thu Dec  3 2020 22:25                                                Page 159


  6648 09:F786: A0 0B 00     	ldy	#$b
  6649 09:F789: B7 08        	lda	[<L184+current_record_0],Y
  6650 09:F78B: 85 01        	sta	<L185+current_RELOC_1
  6651 09:F78D: A0 0D 00     	ldy	#$d
  6652 09:F790: B7 08        	lda	[<L184+current_record_0],Y
  6653 09:F792: 85 03        	sta	<L185+current_RELOC_1+2
  6654                        ;  
  6655                        ;  /** Dump les donnes **/
  6656                        ;  f_printf(fd,"       # Byte to be relocated = %0
                    2X,   Bit Shift = %02X,   Offset Patch = %08X,   Reference =
                     %08X\n",
  6657                        	.line	899
  6658                        ;             current_RELOC->ByteCnt,current_RELOC
                    ->BitShiftCnt,current_RELOC->OffsetPatch,current_RELOC->Offs
                    etReference);
  6659 09:F794: A0 11 00     	ldy	#$11
  6660 09:F797: B7 01        	lda	[<L185+current_RELOC_1],Y
  6661 09:F799: 48           	pha
  6662 09:F79A: A0 0F 00     	ldy	#$f
  6663 09:F79D: B7 01        	lda	[<L185+current_RELOC_1],Y
  6664 09:F79F: 48           	pha
  6665 09:F7A0: A0 0D 00     	ldy	#$d
  6666 09:F7A3: B7 01        	lda	[<L185+current_RELOC_1],Y
  6667 09:F7A5: 48           	pha
  6668 09:F7A6: A0 0B 00     	ldy	#$b
  6669 09:F7A9: B7 01        	lda	[<L185+current_RELOC_1],Y
  6670 09:F7AB: 48           	pha
  6671 09:F7AC: A0 0A 00     	ldy	#$a
  6672 09:F7AF: B7 01        	lda	[<L185+current_RELOC_1],Y
  6673 09:F7B1: 29 FF 00     	and	#$ff
  6674 09:F7B4: 48           	pha
  6675 09:F7B5: A0 09 00     	ldy	#$9
  6676 09:F7B8: B7 01        	lda	[<L185+current_RELOC_1],Y
  6677 09:F7BA: 29 FF 00     	and	#$ff
  6678 09:F7BD: 48           	pha
  6679 09:F7BE: F4 xx xx     	pea	#^L183
  6680 09:F7C1: F4 xx xx     	pea	#<L183
  6681 09:F7C4: D4 0E        	pei	<L184+fd_0+2
  6682 09:F7C6: D4 0C        	pei	<L184+fd_0
  6683 09:F7C8: F4 16 00     	pea	#22
  6684 09:F7CB: 22 xx xx xx  	jsl	~~f_printf
  6685                        ;}
  6686                        	.line	901
  6687                        L187:
  6688 09:F7CF: A5 06        	lda	<L184+2
  6689 09:F7D1: 85 10        	sta	<L184+2+10
  6690 09:F7D3: A5 05        	lda	<L184+1
  6691 09:F7D5: 85 0F        	sta	<L184+1+10
  6692 09:F7D7: 2B           	pld
  6693 09:F7D8: 3B           	tsc
  6694 09:F7D9: 18           	clc
  6695 09:F7DA: 69 0E 00     	adc	#L184+10
  6696 09:F7DD: 1B           	tcs
  6697 09:F7DE: 6B           	rtl
  6698                        	.endblock	901
  6699             00000004   L184	equ	4
  6700             00000001   L185	equ	1
  6701 09:F7DF:              	ends
  Thu Dec  3 2020 22:25                                                Page 160


  6702                        	efunc
  6703                        	.endfunc	901,1,4
  6704                        	.line	901
  6705                        	data
  6706                        L183:
  6707 00:1E47: 20 20 20 20  	db	$20,$20,$20,$20,$20,$20,$20,$23,$20,$42,
                    $79,$74,$65,$20,$74
       00:1E4B: 20 20 20 23 
       00:1E4F: 20 42 79 74 
       00:1E53: 65 20 74 
  6708 00:1E56: 6F 20 62 65  	db	$6F,$20,$62,$65,$20,$72,$65,$6C,$6F,$63,
                    $61,$74,$65,$64,$20
       00:1E5A: 20 72 65 6C 
       00:1E5E: 6F 63 61 74 
       00:1E62: 65 64 20 
  6709 00:1E65: 3D 20 25 30  	db	$3D,$20,$25,$30,$32,$58,$2C,$20,$20,$20,
                    $42,$69,$74,$20,$53
       00:1E69: 32 58 2C 20 
       00:1E6D: 20 20 42 69 
       00:1E71: 74 20 53 
  6710 00:1E74: 68 69 66 74  	db	$68,$69,$66,$74,$20,$3D,$20,$25,$30,$32,
                    $58,$2C,$20,$20,$20
       00:1E78: 20 3D 20 25 
       00:1E7C: 30 32 58 2C 
       00:1E80: 20 20 20 
  6711 00:1E83: 4F 66 66 73  	db	$4F,$66,$66,$73,$65,$74,$20,$50,$61,$74,
                    $63,$68,$20,$3D,$20
       00:1E87: 65 74 20 50 
       00:1E8B: 61 74 63 68 
       00:1E8F: 20 3D 20 
  6712 00:1E92: 25 30 38 58  	db	$25,$30,$38,$58,$2C,$20,$20,$20,$52,$65,
                    $66,$65,$72,$65,$6E
       00:1E96: 2C 20 20 20 
       00:1E9A: 52 65 66 65 
       00:1E9E: 72 65 6E 
  6713 00:1EA1: 63 65 20 3D  	db	$63,$65,$20,$3D,$20,$25,$30,$38,$58,$0A,
                    $00
       00:1EA5: 20 25 30 38 
       00:1EA9: 58 0A 00 
  6714 00:1EAC:              	ends
  6715                        ;
  6716                        ;
  6717                        ;/************************************************
                    ******************/
  6718                        ;/*  DumpcRELOCRecord() :  Dump des informations d
                    u Record cRELOC. */
  6719                        ;/************************************************
                    ******************/
  6720                        ;static void DumpcRELOCRecord(struct omf_body_reco
                    rd *current_record, FIL *fd, int segment_num)
  6721                        ;{
  6722                        	.line	907
  6723                        	.line	908
  6724                        	LOADER
  6725                        	func
  6726                        	.function	908
  6727                        ~~DumpcRELOCRecord:
  6728                        	longa	on
  Thu Dec  3 2020 22:25                                                Page 161


  6729                        	longi	on
  6730 09:F7DF: 3B           	tsc
  6731 09:F7E0: 38           	sec
  6732 09:F7E1: E9 04 00     	sbc	#L189
  6733 09:F7E4: 1B           	tcs
  6734 09:F7E5: 0B           	phd
  6735 09:F7E6: 5B           	tcd
  6736             00000004   current_record_0	set	4
  6737             00000008   fd_0	set	8
  6738             0000000C   segment_num_0	set	12
  6739                        	.block	908
  6740                        ;  struct record_cRELOC *current_cRELOC;
  6741                        ;  
  6742                        ;  /* Rcupre la structure ddie */
  6743                        ;  current_cRELOC = (struct record_cRELOC *) curre
                    nt_record->record_data;
  6744             00000000   current_cRELOC_1	set	0
  6745                        	.sym	current_cRELOC,0,138,1,32,95
  6746                        	.sym	current_record,4,138,6,32,67
  6747                        	.sym	fd,8,138,6,32,104
  6748                        	.sym	segment_num,12,5,6,16
  6749                        	.line	912
  6750 09:F7E7: A0 0B 00     	ldy	#$b
  6751 09:F7EA: B7 08        	lda	[<L189+current_record_0],Y
  6752 09:F7EC: 85 01        	sta	<L190+current_cRELOC_1
  6753 09:F7EE: A0 0D 00     	ldy	#$d
  6754 09:F7F1: B7 08        	lda	[<L189+current_record_0],Y
  6755 09:F7F3: 85 03        	sta	<L190+current_cRELOC_1+2
  6756                        ;  
  6757                        ;  /** Dump les donnes **/
  6758                        ;  f_printf(fd,"       # Byte to be relocated = %0
                    2X,   Bit Shift = %02X,   Offset Patch = %04X,   Reference =
                     %04X\n",
  6759                        	.line	915
  6760                        ;             current_cRELOC->ByteCnt,current_cREL
                    OC->BitShiftCnt,current_cRELOC->OffsetPatch,current_cRELOC->
                    OffsetReference);
  6761 09:F7F5: A0 11 00     	ldy	#$11
  6762 09:F7F8: B7 01        	lda	[<L190+current_cRELOC_1],Y
  6763 09:F7FA: 48           	pha
  6764 09:F7FB: A0 0F 00     	ldy	#$f
  6765 09:F7FE: B7 01        	lda	[<L190+current_cRELOC_1],Y
  6766 09:F800: 48           	pha
  6767 09:F801: A0 0D 00     	ldy	#$d
  6768 09:F804: B7 01        	lda	[<L190+current_cRELOC_1],Y
  6769 09:F806: 48           	pha
  6770 09:F807: A0 0B 00     	ldy	#$b
  6771 09:F80A: B7 01        	lda	[<L190+current_cRELOC_1],Y
  6772 09:F80C: 48           	pha
  6773 09:F80D: A0 0A 00     	ldy	#$a
  6774 09:F810: B7 01        	lda	[<L190+current_cRELOC_1],Y
  6775 09:F812: 29 FF 00     	and	#$ff
  6776 09:F815: 48           	pha
  6777 09:F816: A0 09 00     	ldy	#$9
  6778 09:F819: B7 01        	lda	[<L190+current_cRELOC_1],Y
  6779 09:F81B: 29 FF 00     	and	#$ff
  6780 09:F81E: 48           	pha
  6781 09:F81F: F4 xx xx     	pea	#^L188
  Thu Dec  3 2020 22:25                                                Page 162


  6782 09:F822: F4 xx xx     	pea	#<L188
  6783 09:F825: D4 0E        	pei	<L189+fd_0+2
  6784 09:F827: D4 0C        	pei	<L189+fd_0
  6785 09:F829: F4 16 00     	pea	#22
  6786 09:F82C: 22 xx xx xx  	jsl	~~f_printf
  6787                        ;}
  6788                        	.line	917
  6789                        L192:
  6790 09:F830: A5 06        	lda	<L189+2
  6791 09:F832: 85 10        	sta	<L189+2+10
  6792 09:F834: A5 05        	lda	<L189+1
  6793 09:F836: 85 0F        	sta	<L189+1+10
  6794 09:F838: 2B           	pld
  6795 09:F839: 3B           	tsc
  6796 09:F83A: 18           	clc
  6797 09:F83B: 69 0E 00     	adc	#L189+10
  6798 09:F83E: 1B           	tcs
  6799 09:F83F: 6B           	rtl
  6800                        	.endblock	917
  6801             00000004   L189	equ	4
  6802             00000001   L190	equ	1
  6803 09:F840:              	ends
  6804                        	efunc
  6805                        	.endfunc	917,1,4
  6806                        	.line	917
  6807                        	data
  6808                        L188:
  6809 00:1EAC: 20 20 20 20  	db	$20,$20,$20,$20,$20,$20,$20,$23,$20,$42,
                    $79,$74,$65,$20,$74
       00:1EB0: 20 20 20 23 
       00:1EB4: 20 42 79 74 
       00:1EB8: 65 20 74 
  6810 00:1EBB: 6F 20 62 65  	db	$6F,$20,$62,$65,$20,$72,$65,$6C,$6F,$63,
                    $61,$74,$65,$64,$20
       00:1EBF: 20 72 65 6C 
       00:1EC3: 6F 63 61 74 
       00:1EC7: 65 64 20 
  6811 00:1ECA: 3D 20 25 30  	db	$3D,$20,$25,$30,$32,$58,$2C,$20,$20,$20,
                    $42,$69,$74,$20,$53
       00:1ECE: 32 58 2C 20 
       00:1ED2: 20 20 42 69 
       00:1ED6: 74 20 53 
  6812 00:1ED9: 68 69 66 74  	db	$68,$69,$66,$74,$20,$3D,$20,$25,$30,$32,
                    $58,$2C,$20,$20,$20
       00:1EDD: 20 3D 20 25 
       00:1EE1: 30 32 58 2C 
       00:1EE5: 20 20 20 
  6813 00:1EE8: 4F 66 66 73  	db	$4F,$66,$66,$73,$65,$74,$20,$50,$61,$74,
                    $63,$68,$20,$3D,$20
       00:1EEC: 65 74 20 50 
       00:1EF0: 61 74 63 68 
       00:1EF4: 20 3D 20 
  6814 00:1EF7: 25 30 34 58  	db	$25,$30,$34,$58,$2C,$20,$20,$20,$52,$65,
                    $66,$65,$72,$65,$6E
       00:1EFB: 2C 20 20 20 
       00:1EFF: 52 65 66 65 
       00:1F03: 72 65 6E 
  6815 00:1F06: 63 65 20 3D  	db	$63,$65,$20,$3D,$20,$25,$30,$34,$58,$0A,
  Thu Dec  3 2020 22:25                                                Page 163


                    $00
       00:1F0A: 20 25 30 34 
       00:1F0E: 58 0A 00 
  6816 00:1F11:              	ends
  6817                        ;
  6818                        ;
  6819                        ;/************************************************
                    **********************/
  6820                        ;/*  DumpINTERSEGRecord() :  Dump des informations
                     du Record INTERSEG. */
  6821                        ;/************************************************
                    **********************/
  6822                        ;static void DumpINTERSEGRecord(struct omf_body_re
                    cord *current_record, FIL *fd, int segment_num)
  6823                        ;{
  6824                        	.line	923
  6825                        	.line	924
  6826                        	LOADER
  6827                        	func
  6828                        	.function	924
  6829                        ~~DumpINTERSEGRecord:
  6830                        	longa	on
  6831                        	longi	on
  6832 09:F840: 3B           	tsc
  6833 09:F841: 38           	sec
  6834 09:F842: E9 04 00     	sbc	#L194
  6835 09:F845: 1B           	tcs
  6836 09:F846: 0B           	phd
  6837 09:F847: 5B           	tcd
  6838             00000004   current_record_0	set	4
  6839             00000008   fd_0	set	8
  6840             0000000C   segment_num_0	set	12
  6841                        	.block	924
  6842                        ;  struct record_INTERSEG *current_INTERSEG;
  6843                        ;  
  6844                        ;  /* Rcupre la structure ddie */
  6845                        ;  current_INTERSEG = (struct record_INTERSEG *) c
                    urrent_record->record_data;
  6846             00000000   current_INTERSEG_1	set	0
  6847                        	.sym	current_INTERSEG,0,138,1,32,79
  6848                        	.sym	current_record,4,138,6,32,67
  6849                        	.sym	fd,8,138,6,32,104
  6850                        	.sym	segment_num,12,5,6,16
  6851                        	.line	928
  6852 09:F848: A0 0B 00     	ldy	#$b
  6853 09:F84B: B7 08        	lda	[<L194+current_record_0],Y
  6854 09:F84D: 85 01        	sta	<L195+current_INTERSEG_1
  6855 09:F84F: A0 0D 00     	ldy	#$d
  6856 09:F852: B7 08        	lda	[<L194+current_record_0],Y
  6857 09:F854: 85 03        	sta	<L195+current_INTERSEG_1+2
  6858                        ;  
  6859                        ;  /** Dump les donnes **/
  6860                        ;  f_printf(fd,"       # Byte to be relocated = %0
                    2X,   Bit Shift = %02X,   Offset Patch = %08X,   Reference =
                     %08X,   File Number = %04X,   Segment Number = %04X\n",
  6861                        	.line	931
  6862                        ;             current_INTERSEG->ByteCnt,current_IN
                    TERSEG->BitShiftCnt,current_INTERSEG->OffsetPatch,current_IN
  Thu Dec  3 2020 22:25                                                Page 164


                    TERSEG->OffsetReference,current_INTERSEG->FileNum,current_IN
                    TERSEG->SegNum);
  6863 09:F856: A0 11 00     	ldy	#$11
  6864 09:F859: B7 01        	lda	[<L195+current_INTERSEG_1],Y
  6865 09:F85B: 48           	pha
  6866 09:F85C: A0 0F 00     	ldy	#$f
  6867 09:F85F: B7 01        	lda	[<L195+current_INTERSEG_1],Y
  6868 09:F861: 48           	pha
  6869 09:F862: A0 15 00     	ldy	#$15
  6870 09:F865: B7 01        	lda	[<L195+current_INTERSEG_1],Y
  6871 09:F867: 48           	pha
  6872 09:F868: A0 13 00     	ldy	#$13
  6873 09:F86B: B7 01        	lda	[<L195+current_INTERSEG_1],Y
  6874 09:F86D: 48           	pha
  6875 09:F86E: A0 0D 00     	ldy	#$d
  6876 09:F871: B7 01        	lda	[<L195+current_INTERSEG_1],Y
  6877 09:F873: 48           	pha
  6878 09:F874: A0 0B 00     	ldy	#$b
  6879 09:F877: B7 01        	lda	[<L195+current_INTERSEG_1],Y
  6880 09:F879: 48           	pha
  6881 09:F87A: A0 0A 00     	ldy	#$a
  6882 09:F87D: B7 01        	lda	[<L195+current_INTERSEG_1],Y
  6883 09:F87F: 29 FF 00     	and	#$ff
  6884 09:F882: 48           	pha
  6885 09:F883: A0 09 00     	ldy	#$9
  6886 09:F886: B7 01        	lda	[<L195+current_INTERSEG_1],Y
  6887 09:F888: 29 FF 00     	and	#$ff
  6888 09:F88B: 48           	pha
  6889 09:F88C: F4 xx xx     	pea	#^L193
  6890 09:F88F: F4 xx xx     	pea	#<L193
  6891 09:F892: D4 0E        	pei	<L194+fd_0+2
  6892 09:F894: D4 0C        	pei	<L194+fd_0
  6893 09:F896: F4 1A 00     	pea	#26
  6894 09:F899: 22 xx xx xx  	jsl	~~f_printf
  6895                        ;}
  6896                        	.line	933
  6897                        L197:
  6898 09:F89D: A5 06        	lda	<L194+2
  6899 09:F89F: 85 10        	sta	<L194+2+10
  6900 09:F8A1: A5 05        	lda	<L194+1
  6901 09:F8A3: 85 0F        	sta	<L194+1+10
  6902 09:F8A5: 2B           	pld
  6903 09:F8A6: 3B           	tsc
  6904 09:F8A7: 18           	clc
  6905 09:F8A8: 69 0E 00     	adc	#L194+10
  6906 09:F8AB: 1B           	tcs
  6907 09:F8AC: 6B           	rtl
  6908                        	.endblock	933
  6909             00000004   L194	equ	4
  6910             00000001   L195	equ	1
  6911 09:F8AD:              	ends
  6912                        	efunc
  6913                        	.endfunc	933,1,4
  6914                        	.line	933
  6915                        	data
  6916                        L193:
  6917 00:1F11: 20 20 20 20  	db	$20,$20,$20,$20,$20,$20,$20,$23,$20,$42,
                    $79,$74,$65,$20,$74
  Thu Dec  3 2020 22:25                                                Page 165


       00:1F15: 20 20 20 23 
       00:1F19: 20 42 79 74 
       00:1F1D: 65 20 74 
  6918 00:1F20: 6F 20 62 65  	db	$6F,$20,$62,$65,$20,$72,$65,$6C,$6F,$63,
                    $61,$74,$65,$64,$20
       00:1F24: 20 72 65 6C 
       00:1F28: 6F 63 61 74 
       00:1F2C: 65 64 20 
  6919 00:1F2F: 3D 20 25 30  	db	$3D,$20,$25,$30,$32,$58,$2C,$20,$20,$20,
                    $42,$69,$74,$20,$53
       00:1F33: 32 58 2C 20 
       00:1F37: 20 20 42 69 
       00:1F3B: 74 20 53 
  6920 00:1F3E: 68 69 66 74  	db	$68,$69,$66,$74,$20,$3D,$20,$25,$30,$32,
                    $58,$2C,$20,$20,$20
       00:1F42: 20 3D 20 25 
       00:1F46: 30 32 58 2C 
       00:1F4A: 20 20 20 
  6921 00:1F4D: 4F 66 66 73  	db	$4F,$66,$66,$73,$65,$74,$20,$50,$61,$74,
                    $63,$68,$20,$3D,$20
       00:1F51: 65 74 20 50 
       00:1F55: 61 74 63 68 
       00:1F59: 20 3D 20 
  6922 00:1F5C: 25 30 38 58  	db	$25,$30,$38,$58,$2C,$20,$20,$20,$52,$65,
                    $66,$65,$72,$65,$6E
       00:1F60: 2C 20 20 20 
       00:1F64: 52 65 66 65 
       00:1F68: 72 65 6E 
  6923 00:1F6B: 63 65 20 3D  	db	$63,$65,$20,$3D,$20,$25,$30,$38,$58,$2C,
                    $20,$20,$20,$46,$69
       00:1F6F: 20 25 30 38 
       00:1F73: 58 2C 20 20 
       00:1F77: 20 46 69 
  6924 00:1F7A: 6C 65 20 4E  	db	$6C,$65,$20,$4E,$75,$6D,$62,$65,$72,$20,
                    $3D,$20,$25,$30,$34
       00:1F7E: 75 6D 62 65 
       00:1F82: 72 20 3D 20 
       00:1F86: 25 30 34 
  6925 00:1F89: 58 2C 20 20  	db	$58,$2C,$20,$20,$20,$53,$65,$67,$6D,$65,
                    $6E,$74,$20,$4E,$75
       00:1F8D: 20 53 65 67 
       00:1F91: 6D 65 6E 74 
       00:1F95: 20 4E 75 
  6926 00:1F98: 6D 62 65 72  	db	$6D,$62,$65,$72,$20,$3D,$20,$25,$30,$34,
                    $58,$0A,$00
       00:1F9C: 20 3D 20 25 
       00:1FA0: 30 34 58 0A 
       00:1FA4: 00 
  6927 00:1FA5:              	ends
  6928                        ;
  6929                        ;
  6930                        ;/************************************************
                    ************************/
  6931                        ;/*  DumpcINTERSEGRecord() :  Dump des information
                    s du Record cINTERSEG. */
  6932                        ;/************************************************
                    ************************/
  6933                        ;static void DumpcINTERSEGRecord(struct omf_body_r
  Thu Dec  3 2020 22:25                                                Page 166


                    ecord *current_record, FIL *fd, int segment_num)
  6934                        ;{
  6935                        	.line	939
  6936                        	.line	940
  6937                        	LOADER
  6938                        	func
  6939                        	.function	940
  6940                        ~~DumpcINTERSEGRecord:
  6941                        	longa	on
  6942                        	longi	on
  6943 09:F8AD: 3B           	tsc
  6944 09:F8AE: 38           	sec
  6945 09:F8AF: E9 04 00     	sbc	#L199
  6946 09:F8B2: 1B           	tcs
  6947 09:F8B3: 0B           	phd
  6948 09:F8B4: 5B           	tcd
  6949             00000004   current_record_0	set	4
  6950             00000008   fd_0	set	8
  6951             0000000C   segment_num_0	set	12
  6952                        	.block	940
  6953                        ;  struct record_cINTERSEG *current_cINTERSEG;
  6954                        ;  
  6955                        ;  /* Rcupre la structure ddie */
  6956                        ;  current_cINTERSEG = (struct record_cINTERSEG *)
                     current_record->record_data;
  6957             00000000   current_cINTERSEG_1	set	0
  6958                        	.sym	current_cINTERSEG,0,138,1,32,96
  6959                        	.sym	current_record,4,138,6,32,67
  6960                        	.sym	fd,8,138,6,32,104
  6961                        	.sym	segment_num,12,5,6,16
  6962                        	.line	944
  6963 09:F8B5: A0 0B 00     	ldy	#$b
  6964 09:F8B8: B7 08        	lda	[<L199+current_record_0],Y
  6965 09:F8BA: 85 01        	sta	<L200+current_cINTERSEG_1
  6966 09:F8BC: A0 0D 00     	ldy	#$d
  6967 09:F8BF: B7 08        	lda	[<L199+current_record_0],Y
  6968 09:F8C1: 85 03        	sta	<L200+current_cINTERSEG_1+2
  6969                        ;  
  6970                        ;  /** Dump les donnes **/
  6971                        ;  f_printf(fd,"       # Byte to be relocated = %0
                    2X,   Bit Shift = %02X,   Offset Patch = %04X,   Reference =
                     %04X,   Segment Number = %02X\n",
  6972                        	.line	947
  6973                        ;             current_cINTERSEG->ByteCnt,current_c
                    INTERSEG->BitShiftCnt,current_cINTERSEG->OffsetPatch,current
                    _cINTERSEG->OffsetReference,current_cINTERSEG->SegNum);
  6974 09:F8C3: A0 11 00     	ldy	#$11
  6975 09:F8C6: B7 01        	lda	[<L200+current_cINTERSEG_1],Y
  6976 09:F8C8: 29 FF 00     	and	#$ff
  6977 09:F8CB: 48           	pha
  6978 09:F8CC: A0 14 00     	ldy	#$14
  6979 09:F8CF: B7 01        	lda	[<L200+current_cINTERSEG_1],Y
  6980 09:F8D1: 48           	pha
  6981 09:F8D2: A0 12 00     	ldy	#$12
  6982 09:F8D5: B7 01        	lda	[<L200+current_cINTERSEG_1],Y
  6983 09:F8D7: 48           	pha
  6984 09:F8D8: A0 0D 00     	ldy	#$d
  6985 09:F8DB: B7 01        	lda	[<L200+current_cINTERSEG_1],Y
  Thu Dec  3 2020 22:25                                                Page 167


  6986 09:F8DD: 48           	pha
  6987 09:F8DE: A0 0B 00     	ldy	#$b
  6988 09:F8E1: B7 01        	lda	[<L200+current_cINTERSEG_1],Y
  6989 09:F8E3: 48           	pha
  6990 09:F8E4: A0 0A 00     	ldy	#$a
  6991 09:F8E7: B7 01        	lda	[<L200+current_cINTERSEG_1],Y
  6992 09:F8E9: 29 FF 00     	and	#$ff
  6993 09:F8EC: 48           	pha
  6994 09:F8ED: A0 09 00     	ldy	#$9
  6995 09:F8F0: B7 01        	lda	[<L200+current_cINTERSEG_1],Y
  6996 09:F8F2: 29 FF 00     	and	#$ff
  6997 09:F8F5: 48           	pha
  6998 09:F8F6: F4 xx xx     	pea	#^L198
  6999 09:F8F9: F4 xx xx     	pea	#<L198
  7000 09:F8FC: D4 0E        	pei	<L199+fd_0+2
  7001 09:F8FE: D4 0C        	pei	<L199+fd_0
  7002 09:F900: F4 18 00     	pea	#24
  7003 09:F903: 22 xx xx xx  	jsl	~~f_printf
  7004                        ;}
  7005                        	.line	949
  7006                        L202:
  7007 09:F907: A5 06        	lda	<L199+2
  7008 09:F909: 85 10        	sta	<L199+2+10
  7009 09:F90B: A5 05        	lda	<L199+1
  7010 09:F90D: 85 0F        	sta	<L199+1+10
  7011 09:F90F: 2B           	pld
  7012 09:F910: 3B           	tsc
  7013 09:F911: 18           	clc
  7014 09:F912: 69 0E 00     	adc	#L199+10
  7015 09:F915: 1B           	tcs
  7016 09:F916: 6B           	rtl
  7017                        	.endblock	949
  7018             00000004   L199	equ	4
  7019             00000001   L200	equ	1
  7020 09:F917:              	ends
  7021                        	efunc
  7022                        	.endfunc	949,1,4
  7023                        	.line	949
  7024                        	data
  7025                        L198:
  7026 00:1FA5: 20 20 20 20  	db	$20,$20,$20,$20,$20,$20,$20,$23,$20,$42,
                    $79,$74,$65,$20,$74
       00:1FA9: 20 20 20 23 
       00:1FAD: 20 42 79 74 
       00:1FB1: 65 20 74 
  7027 00:1FB4: 6F 20 62 65  	db	$6F,$20,$62,$65,$20,$72,$65,$6C,$6F,$63,
                    $61,$74,$65,$64,$20
       00:1FB8: 20 72 65 6C 
       00:1FBC: 6F 63 61 74 
       00:1FC0: 65 64 20 
  7028 00:1FC3: 3D 20 25 30  	db	$3D,$20,$25,$30,$32,$58,$2C,$20,$20,$20,
                    $42,$69,$74,$20,$53
       00:1FC7: 32 58 2C 20 
       00:1FCB: 20 20 42 69 
       00:1FCF: 74 20 53 
  7029 00:1FD2: 68 69 66 74  	db	$68,$69,$66,$74,$20,$3D,$20,$25,$30,$32,
                    $58,$2C,$20,$20,$20
       00:1FD6: 20 3D 20 25 
  Thu Dec  3 2020 22:25                                                Page 168


       00:1FDA: 30 32 58 2C 
       00:1FDE: 20 20 20 
  7030 00:1FE1: 4F 66 66 73  	db	$4F,$66,$66,$73,$65,$74,$20,$50,$61,$74,
                    $63,$68,$20,$3D,$20
       00:1FE5: 65 74 20 50 
       00:1FE9: 61 74 63 68 
       00:1FED: 20 3D 20 
  7031 00:1FF0: 25 30 34 58  	db	$25,$30,$34,$58,$2C,$20,$20,$20,$52,$65,
                    $66,$65,$72,$65,$6E
       00:1FF4: 2C 20 20 20 
       00:1FF8: 52 65 66 65 
       00:1FFC: 72 65 6E 
  7032 00:1FFF: 63 65 20 3D  	db	$63,$65,$20,$3D,$20,$25,$30,$34,$58,$2C,
                    $20,$20,$20,$53,$65
       00:2003: 20 25 30 34 
       00:2007: 58 2C 20 20 
       00:200B: 20 53 65 
  7033 00:200E: 67 6D 65 6E  	db	$67,$6D,$65,$6E,$74,$20,$4E,$75,$6D,$62,
                    $65,$72,$20,$3D,$20
       00:2012: 74 20 4E 75 
       00:2016: 6D 62 65 72 
       00:201A: 20 3D 20 
  7034 00:201D: 25 30 32 58  	db	$25,$30,$32,$58,$0A,$00
       00:2021: 0A 00 
  7035 00:2023:              	ends
  7036                        ;
  7037                        ;
  7038                        ;/************************************************
                    ****************/
  7039                        ;/*  DumpSUPERRecord() :  Dump des informations du
                     Record SUPER. */
  7040                        ;/************************************************
                    ****************/
  7041                        ;static void DumpSUPERRecord(struct omf_body_recor
                    d *current_record, FIL *fd, int segment_num)
  7042                        ;{
  7043                        	.line	955
  7044                        	.line	956
  7045                        	LOADER
  7046                        	func
  7047                        	.function	956
  7048                        ~~DumpSUPERRecord:
  7049                        	longa	on
  7050                        	longi	on
  7051 09:F917: 3B           	tsc
  7052 09:F918: 38           	sec
  7053 09:F919: E9 36 00     	sbc	#L204
  7054 09:F91C: 1B           	tcs
  7055 09:F91D: 0B           	phd
  7056 09:F91E: 5B           	tcd
  7057             00000004   current_record_0	set	4
  7058             00000008   fd_0	set	8
  7059             0000000C   segment_num_0	set	12
  7060                        	.block	956
  7061                        ;  int i;
  7062                        ;  struct record_SUPER *current_SUPER;
  7063                        ;  struct subrecord_SuperReloc2 *current_SuperRelo
                    c2;
  Thu Dec  3 2020 22:25                                                Page 169


  7064                        ;  struct subrecord_SuperReloc3 *current_SuperRelo
                    c3;
  7065                        ;  struct subrecord_SuperInterseg1 *current_SuperI
                    nterseg1;
  7066                        ;  struct subrecord_SuperInterseg212 *current_Supe
                    rInterseg212;
  7067                        ;  struct subrecord_SuperInterseg1324 *current_Sup
                    erInterseg1324;
  7068                        ;  struct subrecord_SuperInterseg2536 *current_Sup
                    erInterseg2536;
  7069                        ;
  7070                        ;  /* Rcupre la structure ddie */
  7071                        ;  current_SUPER = (struct record_SUPER *) current
                    _record->record_data;
  7072             00000000   i_1	set	0
  7073             00000002   current_SUPER_1	set	2
  7074             00000006   current_SuperReloc2_1	set	6
  7075             0000000A   current_SuperReloc3_1	set	10
  7076             0000000E   current_SuperInterseg1_1	set	14
  7077             00000012   current_SuperInterseg212_1	set	18
  7078             00000016   current_SuperInterseg1324_1	set	22
  7079             0000001A   current_SuperInterseg2536_1	set	26
  7080                        	.sym	i,0,5,1,16
  7081                        	.sym	current_SUPER,2,138,1,32,97
  7082                        	.sym	current_SuperReloc2,6,138,1,32,68
  7083                        	.sym	current_SuperReloc3,10,138,1,32,69
  7084                        	.sym	current_SuperInterseg1,14,138,1,32,70
  7085                        	.sym	current_SuperInterseg212,18,138,1,32,71
  7086                        	.sym	current_SuperInterseg1324,22,138,1,32,72
  7087                        	.sym	current_SuperInterseg2536,26,138,1,32,73
  7088                        	.sym	current_record,4,138,6,32,67
  7089                        	.sym	fd,8,138,6,32,104
  7090                        	.sym	segment_num,12,5,6,16
  7091                        	.line	967
  7092 09:F91F: A0 0B 00     	ldy	#$b
  7093 09:F922: B7 3A        	lda	[<L204+current_record_0],Y
  7094 09:F924: 85 1B        	sta	<L205+current_SUPER_1
  7095 09:F926: A0 0D 00     	ldy	#$d
  7096 09:F929: B7 3A        	lda	[<L204+current_record_0],Y
  7097 09:F92B: 85 1D        	sta	<L205+current_SUPER_1+2
  7098                        ;    
  7099                        ;  /** On Dump le contenu **/
  7100                        ;  if(current_SUPER->RecordType == 0x00)    /* Sup
                    erReloc2 */
  7101                        	.line	970
  7102                        ;    {
  7103 09:F92D: A0 0D 00     	ldy	#$d
  7104 09:F930: B7 1B        	lda	[<L205+current_SUPER_1],Y
  7105 09:F932: 29 FF 00     	and	#$ff
  7106 09:F935: F0 03        	beq	L207
  7107 09:F937: 82 EF 00     	brl	L10127
  7108                        L207:
  7109                        	.line	971
  7110                        ;      for(current_SuperReloc2=current_SUPER->firs
                    t_SuperReloc2; current_SuperReloc2; current_SuperReloc2=curr
                    ent_SuperReloc2->next)
  7111                        	.line	972
  7112 09:F93A: A0 10 00     	ldy	#$10
  Thu Dec  3 2020 22:25                                                Page 170


  7113 09:F93D: B7 1B        	lda	[<L205+current_SUPER_1],Y
  7114 09:F93F: 85 1F        	sta	<L205+current_SuperReloc2_1
  7115 09:F941: A0 12 00     	ldy	#$12
  7116 09:F944: B7 1B        	lda	[<L205+current_SUPER_1],Y
  7117 09:F946: 85 21        	sta	<L205+current_SuperReloc2_1+2
  7118 09:F948: 82 D2 00     	brl	L10131
  7119                        L10130:
  7120                        ;        for(i=0; i<current_SuperReloc2->nb_addres
                    s; i++)
  7121                        	.line	973
  7122 09:F94B: 64 19        	stz	<L205+i_1
  7123 09:F94D: 82 A5 00     	brl	L10135
  7124                        L10134:
  7125                        ;          f_printf(fd,"       # Byte to be reloca
                    ted = %02X,   Bit Shift = %02X,   Offset Patch = %04X,   Ref
                    erence = %04X\n",
  7126                        	.line	974
  7127                        ;                     current_SuperReloc2->ByteCnt
                    ,
  7128                        ;                     current_SuperReloc2->BitShif
                    tCnt,
  7129                        ;                     current_SuperReloc2->OffsetP
                    atch[i],
  7130                        ;                     current_SuperReloc2->OffsetR
                    eference[i]);
  7131 09:F950: A0 00 00     	ldy	#$0
  7132 09:F953: A5 19        	lda	<L205+i_1
  7133 09:F955: 10 01        	bpl	L208
  7134 09:F957: 88           	dey
  7135                        L208:
  7136 09:F958: 85 05        	sta	<R1
  7137 09:F95A: 84 07        	sty	<R1+2
  7138 09:F95C: D4 07        	pei	<R1+2
  7139 09:F95E: D4 05        	pei	<R1
  7140 09:F960: A9 02 00     	lda	#$2
  7141                        	xref	~~~lasl
  7142 09:F963: 22 xx xx xx  	jsl	~~~lasl
  7143 09:F967: 85 01        	sta	<R0
  7144 09:F969: 86 03        	stx	<R0+2
  7145 09:F96B: 18           	clc
  7146 09:F96C: A9 0D 04     	lda	#$40d
  7147 09:F96F: 65 1F        	adc	<L205+current_SuperReloc2_1
  7148 09:F971: 85 09        	sta	<R2
  7149 09:F973: A9 00 00     	lda	#$0
  7150 09:F976: 65 21        	adc	<L205+current_SuperReloc2_1+2
  7151 09:F978: 85 0B        	sta	<R2+2
  7152 09:F97A: 18           	clc
  7153 09:F97B: A5 09        	lda	<R2
  7154 09:F97D: 65 01        	adc	<R0
  7155 09:F97F: 85 0D        	sta	<R3
  7156 09:F981: A5 0B        	lda	<R2+2
  7157 09:F983: 65 03        	adc	<R0+2
  7158 09:F985: 85 0F        	sta	<R3+2
  7159 09:F987: A0 02 00     	ldy	#$2
  7160 09:F98A: B7 0D        	lda	[<R3],Y
  7161 09:F98C: 48           	pha
  7162 09:F98D: A7 0D        	lda	[<R3]
  7163 09:F98F: 48           	pha
  Thu Dec  3 2020 22:25                                                Page 171


  7164 09:F990: A0 00 00     	ldy	#$0
  7165 09:F993: A5 19        	lda	<L205+i_1
  7166 09:F995: 10 01        	bpl	L209
  7167 09:F997: 88           	dey
  7168                        L209:
  7169 09:F998: 85 09        	sta	<R2
  7170 09:F99A: 84 0B        	sty	<R2+2
  7171 09:F99C: D4 0B        	pei	<R2+2
  7172 09:F99E: D4 09        	pei	<R2
  7173 09:F9A0: A9 02 00     	lda	#$2
  7174                        	xref	~~~lasl
  7175 09:F9A3: 22 xx xx xx  	jsl	~~~lasl
  7176 09:F9A7: 85 01        	sta	<R0
  7177 09:F9A9: 86 03        	stx	<R0+2
  7178 09:F9AB: 18           	clc
  7179 09:F9AC: A9 0D 00     	lda	#$d
  7180 09:F9AF: 65 1F        	adc	<L205+current_SuperReloc2_1
  7181 09:F9B1: 85 0D        	sta	<R3
  7182 09:F9B3: A9 00 00     	lda	#$0
  7183 09:F9B6: 65 21        	adc	<L205+current_SuperReloc2_1+2
  7184 09:F9B8: 85 0F        	sta	<R3+2
  7185 09:F9BA: 18           	clc
  7186 09:F9BB: A5 0D        	lda	<R3
  7187 09:F9BD: 65 01        	adc	<R0
  7188 09:F9BF: 85 11        	sta	<17
  7189 09:F9C1: A5 0F        	lda	<R3+2
  7190 09:F9C3: 65 03        	adc	<R0+2
  7191 09:F9C5: 85 13        	sta	<17+2
  7192 09:F9C7: A0 02 00     	ldy	#$2
  7193 09:F9CA: B7 11        	lda	[<17],Y
  7194 09:F9CC: 48           	pha
  7195 09:F9CD: A7 11        	lda	[<17]
  7196 09:F9CF: 48           	pha
  7197 09:F9D0: A0 0A 00     	ldy	#$a
  7198 09:F9D3: B7 1F        	lda	[<L205+current_SuperReloc2_1],Y
  7199 09:F9D5: 29 FF 00     	and	#$ff
  7200 09:F9D8: 48           	pha
  7201 09:F9D9: A0 09 00     	ldy	#$9
  7202 09:F9DC: B7 1F        	lda	[<L205+current_SuperReloc2_1],Y
  7203 09:F9DE: 29 FF 00     	and	#$ff
  7204 09:F9E1: 48           	pha
  7205 09:F9E2: F4 xx xx     	pea	#^L203
  7206 09:F9E5: F4 xx xx     	pea	#<L203
  7207 09:F9E8: D4 40        	pei	<L204+fd_0+2
  7208 09:F9EA: D4 3E        	pei	<L204+fd_0
  7209 09:F9EC: F4 16 00     	pea	#22
  7210 09:F9EF: 22 xx xx xx  	jsl	~~f_printf
  7211                        L10132:
  7212 09:F9F3: E6 19        	inc	<L205+i_1
  7213                        L10135:
  7214 09:F9F5: 38           	sec
  7215 09:F9F6: A5 19        	lda	<L205+i_1
  7216 09:F9F8: A0 0B 00     	ldy	#$b
  7217 09:F9FB: F7 1F        	sbc	[<L205+current_SuperReloc2_1],Y
  7218 09:F9FD: 70 03        	bvs	L210
  7219 09:F9FF: 49 00 80     	eor	#$8000
  7220                        L210:
  7221 09:FA02: 30 03        	bmi	L211
  Thu Dec  3 2020 22:25                                                Page 172


  7222 09:FA04: 82 49 FF     	brl	L10134
  7223                        L211:
  7224                        L10133:
  7225                        L10128:
  7226 09:FA07: A0 0D 08     	ldy	#$80d
  7227 09:FA0A: B7 1F        	lda	[<L205+current_SuperReloc2_1],Y
  7228 09:FA0C: 85 01        	sta	<R0
  7229 09:FA0E: A0 0F 08     	ldy	#$80f
  7230 09:FA11: B7 1F        	lda	[<L205+current_SuperReloc2_1],Y
  7231 09:FA13: 85 03        	sta	<R0+2
  7232 09:FA15: A5 01        	lda	<R0
  7233 09:FA17: 85 1F        	sta	<L205+current_SuperReloc2_1
  7234 09:FA19: A5 03        	lda	<R0+2
  7235 09:FA1B: 85 21        	sta	<L205+current_SuperReloc2_1+2
  7236                        L10131:
  7237 09:FA1D: A5 1F        	lda	<L205+current_SuperReloc2_1
  7238 09:FA1F: 05 21        	ora	<L205+current_SuperReloc2_1+2
  7239 09:FA21: F0 03        	beq	L212
  7240 09:FA23: 82 25 FF     	brl	L10130
  7241                        L212:
  7242                        L10129:
  7243                        ;    }
  7244                        	.line	979
  7245                        ;  else if(current_SUPER->RecordType == 0x01)    /
                    * SuperReloc3 */
  7246 09:FA26: 82 C6 05     	brl	L10136
  7247                        L10127:
  7248                        	.line	980
  7249                        ;    {
  7250 09:FA29: E2 20        	sep	#$20
  7251                        	longa	off
  7252 09:FA2B: A0 0D 00     	ldy	#$d
  7253 09:FA2E: B7 1B        	lda	[<L205+current_SUPER_1],Y
  7254 09:FA30: C9 01        	cmp	#<$1
  7255 09:FA32: C2 20        	rep	#$20
  7256                        	longa	on
  7257 09:FA34: F0 03        	beq	L213
  7258 09:FA36: 82 EF 00     	brl	L10137
  7259                        L213:
  7260                        	.line	981
  7261                        ;      for(current_SuperReloc3=current_SUPER->firs
                    t_SuperReloc3; current_SuperReloc3; current_SuperReloc3=curr
                    ent_SuperReloc3->next)
  7262                        	.line	982
  7263 09:FA39: A0 1A 00     	ldy	#$1a
  7264 09:FA3C: B7 1B        	lda	[<L205+current_SUPER_1],Y
  7265 09:FA3E: 85 23        	sta	<L205+current_SuperReloc3_1
  7266 09:FA40: A0 1C 00     	ldy	#$1c
  7267 09:FA43: B7 1B        	lda	[<L205+current_SUPER_1],Y
  7268 09:FA45: 85 25        	sta	<L205+current_SuperReloc3_1+2
  7269 09:FA47: 82 D2 00     	brl	L10141
  7270                        L10140:
  7271                        ;        for(i=0; i<current_SuperReloc3->nb_addres
                    s; i++)
  7272                        	.line	983
  7273 09:FA4A: 64 19        	stz	<L205+i_1
  7274 09:FA4C: 82 A5 00     	brl	L10145
  7275                        L10144:
  Thu Dec  3 2020 22:25                                                Page 173


  7276                        ;          f_printf(fd,"       # Byte to be reloca
                    ted = %02X,   Bit Shift = %02X,   Offset Patch = %04X,   Ref
                    erence = %04X\n",
  7277                        	.line	984
  7278                        ;                     current_SuperReloc3->ByteCnt
                    ,
  7279                        ;                     current_SuperReloc3->BitShif
                    tCnt,
  7280                        ;                     current_SuperReloc3->OffsetP
                    atch[i],
  7281                        ;                     current_SuperReloc3->OffsetR
                    eference[i]);
  7282 09:FA4F: A0 00 00     	ldy	#$0
  7283 09:FA52: A5 19        	lda	<L205+i_1
  7284 09:FA54: 10 01        	bpl	L214
  7285 09:FA56: 88           	dey
  7286                        L214:
  7287 09:FA57: 85 05        	sta	<R1
  7288 09:FA59: 84 07        	sty	<R1+2
  7289 09:FA5B: D4 07        	pei	<R1+2
  7290 09:FA5D: D4 05        	pei	<R1
  7291 09:FA5F: A9 02 00     	lda	#$2
  7292                        	xref	~~~lasl
  7293 09:FA62: 22 xx xx xx  	jsl	~~~lasl
  7294 09:FA66: 85 01        	sta	<R0
  7295 09:FA68: 86 03        	stx	<R0+2
  7296 09:FA6A: 18           	clc
  7297 09:FA6B: A9 0D 04     	lda	#$40d
  7298 09:FA6E: 65 23        	adc	<L205+current_SuperReloc3_1
  7299 09:FA70: 85 09        	sta	<R2
  7300 09:FA72: A9 00 00     	lda	#$0
  7301 09:FA75: 65 25        	adc	<L205+current_SuperReloc3_1+2
  7302 09:FA77: 85 0B        	sta	<R2+2
  7303 09:FA79: 18           	clc
  7304 09:FA7A: A5 09        	lda	<R2
  7305 09:FA7C: 65 01        	adc	<R0
  7306 09:FA7E: 85 0D        	sta	<R3
  7307 09:FA80: A5 0B        	lda	<R2+2
  7308 09:FA82: 65 03        	adc	<R0+2
  7309 09:FA84: 85 0F        	sta	<R3+2
  7310 09:FA86: A0 02 00     	ldy	#$2
  7311 09:FA89: B7 0D        	lda	[<R3],Y
  7312 09:FA8B: 48           	pha
  7313 09:FA8C: A7 0D        	lda	[<R3]
  7314 09:FA8E: 48           	pha
  7315 09:FA8F: A0 00 00     	ldy	#$0
  7316 09:FA92: A5 19        	lda	<L205+i_1
  7317 09:FA94: 10 01        	bpl	L215
  7318 09:FA96: 88           	dey
  7319                        L215:
  7320 09:FA97: 85 09        	sta	<R2
  7321 09:FA99: 84 0B        	sty	<R2+2
  7322 09:FA9B: D4 0B        	pei	<R2+2
  7323 09:FA9D: D4 09        	pei	<R2
  7324 09:FA9F: A9 02 00     	lda	#$2
  7325                        	xref	~~~lasl
  7326 09:FAA2: 22 xx xx xx  	jsl	~~~lasl
  7327 09:FAA6: 85 01        	sta	<R0
  Thu Dec  3 2020 22:25                                                Page 174


  7328 09:FAA8: 86 03        	stx	<R0+2
  7329 09:FAAA: 18           	clc
  7330 09:FAAB: A9 0D 00     	lda	#$d
  7331 09:FAAE: 65 23        	adc	<L205+current_SuperReloc3_1
  7332 09:FAB0: 85 0D        	sta	<R3
  7333 09:FAB2: A9 00 00     	lda	#$0
  7334 09:FAB5: 65 25        	adc	<L205+current_SuperReloc3_1+2
  7335 09:FAB7: 85 0F        	sta	<R3+2
  7336 09:FAB9: 18           	clc
  7337 09:FABA: A5 0D        	lda	<R3
  7338 09:FABC: 65 01        	adc	<R0
  7339 09:FABE: 85 11        	sta	<17
  7340 09:FAC0: A5 0F        	lda	<R3+2
  7341 09:FAC2: 65 03        	adc	<R0+2
  7342 09:FAC4: 85 13        	sta	<17+2
  7343 09:FAC6: A0 02 00     	ldy	#$2
  7344 09:FAC9: B7 11        	lda	[<17],Y
  7345 09:FACB: 48           	pha
  7346 09:FACC: A7 11        	lda	[<17]
  7347 09:FACE: 48           	pha
  7348 09:FACF: A0 0A 00     	ldy	#$a
  7349 09:FAD2: B7 23        	lda	[<L205+current_SuperReloc3_1],Y
  7350 09:FAD4: 29 FF 00     	and	#$ff
  7351 09:FAD7: 48           	pha
  7352 09:FAD8: A0 09 00     	ldy	#$9
  7353 09:FADB: B7 23        	lda	[<L205+current_SuperReloc3_1],Y
  7354 09:FADD: 29 FF 00     	and	#$ff
  7355 09:FAE0: 48           	pha
  7356 09:FAE1: F4 xx xx     	pea	#^L203+101
  7357 09:FAE4: F4 xx xx     	pea	#<L203+101
  7358 09:FAE7: D4 40        	pei	<L204+fd_0+2
  7359 09:FAE9: D4 3E        	pei	<L204+fd_0
  7360 09:FAEB: F4 16 00     	pea	#22
  7361 09:FAEE: 22 xx xx xx  	jsl	~~f_printf
  7362                        L10142:
  7363 09:FAF2: E6 19        	inc	<L205+i_1
  7364                        L10145:
  7365 09:FAF4: 38           	sec
  7366 09:FAF5: A5 19        	lda	<L205+i_1
  7367 09:FAF7: A0 0B 00     	ldy	#$b
  7368 09:FAFA: F7 23        	sbc	[<L205+current_SuperReloc3_1],Y
  7369 09:FAFC: 70 03        	bvs	L216
  7370 09:FAFE: 49 00 80     	eor	#$8000
  7371                        L216:
  7372 09:FB01: 30 03        	bmi	L217
  7373 09:FB03: 82 49 FF     	brl	L10144
  7374                        L217:
  7375                        L10143:
  7376                        L10138:
  7377 09:FB06: A0 0D 08     	ldy	#$80d
  7378 09:FB09: B7 23        	lda	[<L205+current_SuperReloc3_1],Y
  7379 09:FB0B: 85 01        	sta	<R0
  7380 09:FB0D: A0 0F 08     	ldy	#$80f
  7381 09:FB10: B7 23        	lda	[<L205+current_SuperReloc3_1],Y
  7382 09:FB12: 85 03        	sta	<R0+2
  7383 09:FB14: A5 01        	lda	<R0
  7384 09:FB16: 85 23        	sta	<L205+current_SuperReloc3_1
  7385 09:FB18: A5 03        	lda	<R0+2
  Thu Dec  3 2020 22:25                                                Page 175


  7386 09:FB1A: 85 25        	sta	<L205+current_SuperReloc3_1+2
  7387                        L10141:
  7388 09:FB1C: A5 23        	lda	<L205+current_SuperReloc3_1
  7389 09:FB1E: 05 25        	ora	<L205+current_SuperReloc3_1+2
  7390 09:FB20: F0 03        	beq	L218
  7391 09:FB22: 82 25 FF     	brl	L10140
  7392                        L218:
  7393                        L10139:
  7394                        ;    }
  7395                        	.line	989
  7396                        ;  else if(current_SUPER->RecordType == 0x02)    /
                    * Super Interseg1 */
  7397 09:FB25: 82 C7 04     	brl	L10146
  7398                        L10137:
  7399                        	.line	990
  7400                        ;    {
  7401 09:FB28: E2 20        	sep	#$20
  7402                        	longa	off
  7403 09:FB2A: A0 0D 00     	ldy	#$d
  7404 09:FB2D: B7 1B        	lda	[<L205+current_SUPER_1],Y
  7405 09:FB2F: C9 02        	cmp	#<$2
  7406 09:FB31: C2 20        	rep	#$20
  7407                        	longa	on
  7408 09:FB33: F0 03        	beq	L219
  7409 09:FB35: 82 2F 01     	brl	L10147
  7410                        L219:
  7411                        	.line	991
  7412                        ;      for(current_SuperInterseg1=current_SUPER->f
                    irst_SuperInterseg1; current_SuperInterseg1; current_SuperIn
                    terseg1=current_SuperInterseg1->next)
  7413                        	.line	992
  7414 09:FB38: A0 24 00     	ldy	#$24
  7415 09:FB3B: B7 1B        	lda	[<L205+current_SUPER_1],Y
  7416 09:FB3D: 85 27        	sta	<L205+current_SuperInterseg1_1
  7417 09:FB3F: A0 26 00     	ldy	#$26
  7418 09:FB42: B7 1B        	lda	[<L205+current_SUPER_1],Y
  7419 09:FB44: 85 29        	sta	<L205+current_SuperInterseg1_1+2
  7420 09:FB46: 82 12 01     	brl	L10151
  7421                        L10150:
  7422                        ;        for(i=0; i<current_SuperInterseg1->nb_add
                    ress; i++)
  7423                        	.line	993
  7424 09:FB49: 64 19        	stz	<L205+i_1
  7425 09:FB4B: 82 E5 00     	brl	L10155
  7426                        L10154:
  7427                        ;          f_printf(fd,"       # Byte to be reloca
                    ted = %02X,   Bit Shift = %02X,   Offset Patch = %04X,   Ref
                    erence = %04X,   Segment Number = %04X,   File Number = %04X
                    \n",
  7428                        	.line	994
  7429                        ;                     current_SuperInterseg1->Byte
                    Cnt,
  7430                        ;                     current_SuperInterseg1->BitS
                    hiftCnt,
  7431                        ;                     current_SuperInterseg1->Offs
                    etPatch[i],
  7432                        ;                     current_SuperInterseg1->Offs
                    etReference[i],
  Thu Dec  3 2020 22:25                                                Page 176


  7433                        ;                     current_SuperInterseg1->SegN
                    um[i],
  7434                        ;                     current_SuperInterseg1->File
                    Num);
  7435 09:FB4E: A0 0B 00     	ldy	#$b
  7436 09:FB51: B7 27        	lda	[<L205+current_SuperInterseg1_1],Y
  7437 09:FB53: 48           	pha
  7438 09:FB54: A0 00 00     	ldy	#$0
  7439 09:FB57: A5 19        	lda	<L205+i_1
  7440 09:FB59: 10 01        	bpl	L220
  7441 09:FB5B: 88           	dey
  7442                        L220:
  7443 09:FB5C: 85 05        	sta	<R1
  7444 09:FB5E: 84 07        	sty	<R1+2
  7445 09:FB60: D4 07        	pei	<R1+2
  7446 09:FB62: D4 05        	pei	<R1
  7447 09:FB64: A9 01 00     	lda	#$1
  7448                        	xref	~~~lasl
  7449 09:FB67: 22 xx xx xx  	jsl	~~~lasl
  7450 09:FB6B: 85 01        	sta	<R0
  7451 09:FB6D: 86 03        	stx	<R0+2
  7452 09:FB6F: 18           	clc
  7453 09:FB70: A9 0F 08     	lda	#$80f
  7454 09:FB73: 65 27        	adc	<L205+current_SuperInterseg1_1
  7455 09:FB75: 85 09        	sta	<R2
  7456 09:FB77: A9 00 00     	lda	#$0
  7457 09:FB7A: 65 29        	adc	<L205+current_SuperInterseg1_1+2
  7458 09:FB7C: 85 0B        	sta	<R2+2
  7459 09:FB7E: 18           	clc
  7460 09:FB7F: A5 09        	lda	<R2
  7461 09:FB81: 65 01        	adc	<R0
  7462 09:FB83: 85 0D        	sta	<R3
  7463 09:FB85: A5 0B        	lda	<R2+2
  7464 09:FB87: 65 03        	adc	<R0+2
  7465 09:FB89: 85 0F        	sta	<R3+2
  7466 09:FB8B: A7 0D        	lda	[<R3]
  7467 09:FB8D: 48           	pha
  7468 09:FB8E: A0 00 00     	ldy	#$0
  7469 09:FB91: A5 19        	lda	<L205+i_1
  7470 09:FB93: 10 01        	bpl	L221
  7471 09:FB95: 88           	dey
  7472                        L221:
  7473 09:FB96: 85 09        	sta	<R2
  7474 09:FB98: 84 0B        	sty	<R2+2
  7475 09:FB9A: D4 0B        	pei	<R2+2
  7476 09:FB9C: D4 09        	pei	<R2
  7477 09:FB9E: A9 02 00     	lda	#$2
  7478                        	xref	~~~lasl
  7479 09:FBA1: 22 xx xx xx  	jsl	~~~lasl
  7480 09:FBA5: 85 01        	sta	<R0
  7481 09:FBA7: 86 03        	stx	<R0+2
  7482 09:FBA9: 18           	clc
  7483 09:FBAA: A9 0F 04     	lda	#$40f
  7484 09:FBAD: 65 27        	adc	<L205+current_SuperInterseg1_1
  7485 09:FBAF: 85 0D        	sta	<R3
  7486 09:FBB1: A9 00 00     	lda	#$0
  7487 09:FBB4: 65 29        	adc	<L205+current_SuperInterseg1_1+2
  7488 09:FBB6: 85 0F        	sta	<R3+2
  Thu Dec  3 2020 22:25                                                Page 177


  7489 09:FBB8: 18           	clc
  7490 09:FBB9: A5 0D        	lda	<R3
  7491 09:FBBB: 65 01        	adc	<R0
  7492 09:FBBD: 85 11        	sta	<17
  7493 09:FBBF: A5 0F        	lda	<R3+2
  7494 09:FBC1: 65 03        	adc	<R0+2
  7495 09:FBC3: 85 13        	sta	<17+2
  7496 09:FBC5: A0 02 00     	ldy	#$2
  7497 09:FBC8: B7 11        	lda	[<17],Y
  7498 09:FBCA: 48           	pha
  7499 09:FBCB: A7 11        	lda	[<17]
  7500 09:FBCD: 48           	pha
  7501 09:FBCE: A0 00 00     	ldy	#$0
  7502 09:FBD1: A5 19        	lda	<L205+i_1
  7503 09:FBD3: 10 01        	bpl	L222
  7504 09:FBD5: 88           	dey
  7505                        L222:
  7506 09:FBD6: 85 0D        	sta	<R3
  7507 09:FBD8: 84 0F        	sty	<R3+2
  7508 09:FBDA: D4 0F        	pei	<R3+2
  7509 09:FBDC: D4 0D        	pei	<R3
  7510 09:FBDE: A9 02 00     	lda	#$2
  7511                        	xref	~~~lasl
  7512 09:FBE1: 22 xx xx xx  	jsl	~~~lasl
  7513 09:FBE5: 85 01        	sta	<R0
  7514 09:FBE7: 86 03        	stx	<R0+2
  7515 09:FBE9: 18           	clc
  7516 09:FBEA: A9 0F 00     	lda	#$f
  7517 09:FBED: 65 27        	adc	<L205+current_SuperInterseg1_1
  7518 09:FBEF: 85 11        	sta	<17
  7519 09:FBF1: A9 00 00     	lda	#$0
  7520 09:FBF4: 65 29        	adc	<L205+current_SuperInterseg1_1+2
  7521 09:FBF6: 85 13        	sta	<17+2
  7522 09:FBF8: 18           	clc
  7523 09:FBF9: A5 11        	lda	<17
  7524 09:FBFB: 65 01        	adc	<R0
  7525 09:FBFD: 85 15        	sta	<21
  7526 09:FBFF: A5 13        	lda	<17+2
  7527 09:FC01: 65 03        	adc	<R0+2
  7528 09:FC03: 85 17        	sta	<21+2
  7529 09:FC05: A0 02 00     	ldy	#$2
  7530 09:FC08: B7 15        	lda	[<21],Y
  7531 09:FC0A: 48           	pha
  7532 09:FC0B: A7 15        	lda	[<21]
  7533 09:FC0D: 48           	pha
  7534 09:FC0E: A0 0A 00     	ldy	#$a
  7535 09:FC11: B7 27        	lda	[<L205+current_SuperInterseg1_1],Y
  7536 09:FC13: 29 FF 00     	and	#$ff
  7537 09:FC16: 48           	pha
  7538 09:FC17: A0 09 00     	ldy	#$9
  7539 09:FC1A: B7 27        	lda	[<L205+current_SuperInterseg1_1],Y
  7540 09:FC1C: 29 FF 00     	and	#$ff
  7541 09:FC1F: 48           	pha
  7542 09:FC20: F4 xx xx     	pea	#^L203+202
  7543 09:FC23: F4 xx xx     	pea	#<L203+202
  7544 09:FC26: D4 40        	pei	<L204+fd_0+2
  7545 09:FC28: D4 3E        	pei	<L204+fd_0
  7546 09:FC2A: F4 1A 00     	pea	#26
  Thu Dec  3 2020 22:25                                                Page 178


  7547 09:FC2D: 22 xx xx xx  	jsl	~~f_printf
  7548                        L10152:
  7549 09:FC31: E6 19        	inc	<L205+i_1
  7550                        L10155:
  7551 09:FC33: 38           	sec
  7552 09:FC34: A5 19        	lda	<L205+i_1
  7553 09:FC36: A0 0D 00     	ldy	#$d
  7554 09:FC39: F7 27        	sbc	[<L205+current_SuperInterseg1_1],Y
  7555 09:FC3B: 70 03        	bvs	L223
  7556 09:FC3D: 49 00 80     	eor	#$8000
  7557                        L223:
  7558 09:FC40: 30 03        	bmi	L224
  7559 09:FC42: 82 09 FF     	brl	L10154
  7560                        L224:
  7561                        L10153:
  7562                        L10148:
  7563 09:FC45: A0 0F 0A     	ldy	#$a0f
  7564 09:FC48: B7 27        	lda	[<L205+current_SuperInterseg1_1],Y
  7565 09:FC4A: 85 01        	sta	<R0
  7566 09:FC4C: A0 11 0A     	ldy	#$a11
  7567 09:FC4F: B7 27        	lda	[<L205+current_SuperInterseg1_1],Y
  7568 09:FC51: 85 03        	sta	<R0+2
  7569 09:FC53: A5 01        	lda	<R0
  7570 09:FC55: 85 27        	sta	<L205+current_SuperInterseg1_1
  7571 09:FC57: A5 03        	lda	<R0+2
  7572 09:FC59: 85 29        	sta	<L205+current_SuperInterseg1_1+2
  7573                        L10151:
  7574 09:FC5B: A5 27        	lda	<L205+current_SuperInterseg1_1
  7575 09:FC5D: 05 29        	ora	<L205+current_SuperInterseg1_1+2
  7576 09:FC5F: F0 03        	beq	L225
  7577 09:FC61: 82 E5 FE     	brl	L10150
  7578                        L225:
  7579                        L10149:
  7580                        ;    }
  7581                        	.line	1001
  7582                        ;  else if(current_SUPER->RecordType >= 0x03 && cu
                    rrent_SUPER->RecordType <= 0x0D)    /* Super Interseg 2-12 *
                    /
  7583 09:FC64: 82 88 03     	brl	L10156
  7584                        L10147:
  7585                        	.line	1002
  7586                        ;    {
  7587 09:FC67: E2 20        	sep	#$20
  7588                        	longa	off
  7589 09:FC69: A0 0D 00     	ldy	#$d
  7590 09:FC6C: B7 1B        	lda	[<L205+current_SUPER_1],Y
  7591 09:FC6E: C9 03        	cmp	#<$3
  7592 09:FC70: C2 20        	rep	#$20
  7593                        	longa	on
  7594 09:FC72: B0 03        	bcs	L226
  7595 09:FC74: 82 3F 01     	brl	L10157
  7596                        L226:
  7597 09:FC77: E2 20        	sep	#$20
  7598                        	longa	off
  7599 09:FC79: A9 0D        	lda	#$d
  7600 09:FC7B: A0 0D 00     	ldy	#$d
  7601 09:FC7E: D7 1B        	cmp	[<L205+current_SUPER_1],Y
  7602 09:FC80: C2 20        	rep	#$20
  Thu Dec  3 2020 22:25                                                Page 179


  7603                        	longa	on
  7604 09:FC82: B0 03        	bcs	L227
  7605 09:FC84: 82 2F 01     	brl	L10157
  7606                        L227:
  7607                        	.line	1003
  7608                        ;      for(current_SuperInterseg212=current_SUPER-
                    >first_SuperInterseg212; current_SuperInterseg212; current_S
                    uperInterseg212=current_SuperInterseg212->next)
  7609                        	.line	1004
  7610 09:FC87: A0 2E 00     	ldy	#$2e
  7611 09:FC8A: B7 1B        	lda	[<L205+current_SUPER_1],Y
  7612 09:FC8C: 85 2B        	sta	<L205+current_SuperInterseg212_1
  7613 09:FC8E: A0 30 00     	ldy	#$30
  7614 09:FC91: B7 1B        	lda	[<L205+current_SUPER_1],Y
  7615 09:FC93: 85 2D        	sta	<L205+current_SuperInterseg212_1+2
  7616 09:FC95: 82 12 01     	brl	L10161
  7617                        L10160:
  7618                        ;        for(i=0; i<current_SuperInterseg212->nb_a
                    ddress; i++)
  7619                        	.line	1005
  7620 09:FC98: 64 19        	stz	<L205+i_1
  7621 09:FC9A: 82 E5 00     	brl	L10165
  7622                        L10164:
  7623                        ;          f_printf(fd,"       # Byte to be reloca
                    ted = %02X,   Bit Shift = %02X,   Offset Patch = %04X,   Ref
                    erence = %02X,   Segment Number = %04X,   File Number = %04X
                    \n",
  7624                        	.line	1006
  7625                        ;                     current_SuperInterseg212->By
                    teCnt,
  7626                        ;                     current_SuperInterseg212->Bi
                    tShiftCnt,
  7627                        ;                     current_SuperInterseg212->Of
                    fsetPatch[i],
  7628                        ;                     current_SuperInterseg212->Of
                    fsetReference[i],
  7629                        ;                     current_SuperInterseg212->Se
                    gNum[i],
  7630                        ;                     current_SuperInterseg212->Fi
                    leNum);
  7631 09:FC9D: A0 0B 00     	ldy	#$b
  7632 09:FCA0: B7 2B        	lda	[<L205+current_SuperInterseg212_1],Y
  7633 09:FCA2: 48           	pha
  7634 09:FCA3: A0 00 00     	ldy	#$0
  7635 09:FCA6: A5 19        	lda	<L205+i_1
  7636 09:FCA8: 10 01        	bpl	L228
  7637 09:FCAA: 88           	dey
  7638                        L228:
  7639 09:FCAB: 85 05        	sta	<R1
  7640 09:FCAD: 84 07        	sty	<R1+2
  7641 09:FCAF: D4 07        	pei	<R1+2
  7642 09:FCB1: D4 05        	pei	<R1
  7643 09:FCB3: A9 01 00     	lda	#$1
  7644                        	xref	~~~lasl
  7645 09:FCB6: 22 xx xx xx  	jsl	~~~lasl
  7646 09:FCBA: 85 01        	sta	<R0
  7647 09:FCBC: 86 03        	stx	<R0+2
  7648 09:FCBE: 18           	clc
  Thu Dec  3 2020 22:25                                                Page 180


  7649 09:FCBF: A9 0F 08     	lda	#$80f
  7650 09:FCC2: 65 2B        	adc	<L205+current_SuperInterseg212_1
  7651 09:FCC4: 85 09        	sta	<R2
  7652 09:FCC6: A9 00 00     	lda	#$0
  7653 09:FCC9: 65 2D        	adc	<L205+current_SuperInterseg212_1+2
  7654 09:FCCB: 85 0B        	sta	<R2+2
  7655 09:FCCD: 18           	clc
  7656 09:FCCE: A5 09        	lda	<R2
  7657 09:FCD0: 65 01        	adc	<R0
  7658 09:FCD2: 85 0D        	sta	<R3
  7659 09:FCD4: A5 0B        	lda	<R2+2
  7660 09:FCD6: 65 03        	adc	<R0+2
  7661 09:FCD8: 85 0F        	sta	<R3+2
  7662 09:FCDA: A7 0D        	lda	[<R3]
  7663 09:FCDC: 48           	pha
  7664 09:FCDD: A0 00 00     	ldy	#$0
  7665 09:FCE0: A5 19        	lda	<L205+i_1
  7666 09:FCE2: 10 01        	bpl	L229
  7667 09:FCE4: 88           	dey
  7668                        L229:
  7669 09:FCE5: 85 09        	sta	<R2
  7670 09:FCE7: 84 0B        	sty	<R2+2
  7671 09:FCE9: D4 0B        	pei	<R2+2
  7672 09:FCEB: D4 09        	pei	<R2
  7673 09:FCED: A9 02 00     	lda	#$2
  7674                        	xref	~~~lasl
  7675 09:FCF0: 22 xx xx xx  	jsl	~~~lasl
  7676 09:FCF4: 85 01        	sta	<R0
  7677 09:FCF6: 86 03        	stx	<R0+2
  7678 09:FCF8: 18           	clc
  7679 09:FCF9: A9 0F 04     	lda	#$40f
  7680 09:FCFC: 65 2B        	adc	<L205+current_SuperInterseg212_1
  7681 09:FCFE: 85 0D        	sta	<R3
  7682 09:FD00: A9 00 00     	lda	#$0
  7683 09:FD03: 65 2D        	adc	<L205+current_SuperInterseg212_1+2
  7684 09:FD05: 85 0F        	sta	<R3+2
  7685 09:FD07: 18           	clc
  7686 09:FD08: A5 0D        	lda	<R3
  7687 09:FD0A: 65 01        	adc	<R0
  7688 09:FD0C: 85 11        	sta	<17
  7689 09:FD0E: A5 0F        	lda	<R3+2
  7690 09:FD10: 65 03        	adc	<R0+2
  7691 09:FD12: 85 13        	sta	<17+2
  7692 09:FD14: A0 02 00     	ldy	#$2
  7693 09:FD17: B7 11        	lda	[<17],Y
  7694 09:FD19: 48           	pha
  7695 09:FD1A: A7 11        	lda	[<17]
  7696 09:FD1C: 48           	pha
  7697 09:FD1D: A0 00 00     	ldy	#$0
  7698 09:FD20: A5 19        	lda	<L205+i_1
  7699 09:FD22: 10 01        	bpl	L230
  7700 09:FD24: 88           	dey
  7701                        L230:
  7702 09:FD25: 85 0D        	sta	<R3
  7703 09:FD27: 84 0F        	sty	<R3+2
  7704 09:FD29: D4 0F        	pei	<R3+2
  7705 09:FD2B: D4 0D        	pei	<R3
  7706 09:FD2D: A9 02 00     	lda	#$2
  Thu Dec  3 2020 22:25                                                Page 181


  7707                        	xref	~~~lasl
  7708 09:FD30: 22 xx xx xx  	jsl	~~~lasl
  7709 09:FD34: 85 01        	sta	<R0
  7710 09:FD36: 86 03        	stx	<R0+2
  7711 09:FD38: 18           	clc
  7712 09:FD39: A9 0F 00     	lda	#$f
  7713 09:FD3C: 65 2B        	adc	<L205+current_SuperInterseg212_1
  7714 09:FD3E: 85 11        	sta	<17
  7715 09:FD40: A9 00 00     	lda	#$0
  7716 09:FD43: 65 2D        	adc	<L205+current_SuperInterseg212_1+2
  7717 09:FD45: 85 13        	sta	<17+2
  7718 09:FD47: 18           	clc
  7719 09:FD48: A5 11        	lda	<17
  7720 09:FD4A: 65 01        	adc	<R0
  7721 09:FD4C: 85 15        	sta	<21
  7722 09:FD4E: A5 13        	lda	<17+2
  7723 09:FD50: 65 03        	adc	<R0+2
  7724 09:FD52: 85 17        	sta	<21+2
  7725 09:FD54: A0 02 00     	ldy	#$2
  7726 09:FD57: B7 15        	lda	[<21],Y
  7727 09:FD59: 48           	pha
  7728 09:FD5A: A7 15        	lda	[<21]
  7729 09:FD5C: 48           	pha
  7730 09:FD5D: A0 0A 00     	ldy	#$a
  7731 09:FD60: B7 2B        	lda	[<L205+current_SuperInterseg212_1],Y
  7732 09:FD62: 29 FF 00     	and	#$ff
  7733 09:FD65: 48           	pha
  7734 09:FD66: A0 09 00     	ldy	#$9
  7735 09:FD69: B7 2B        	lda	[<L205+current_SuperInterseg212_1],Y
  7736 09:FD6B: 29 FF 00     	and	#$ff
  7737 09:FD6E: 48           	pha
  7738 09:FD6F: F4 xx xx     	pea	#^L203+350
  7739 09:FD72: F4 xx xx     	pea	#<L203+350
  7740 09:FD75: D4 40        	pei	<L204+fd_0+2
  7741 09:FD77: D4 3E        	pei	<L204+fd_0
  7742 09:FD79: F4 1A 00     	pea	#26
  7743 09:FD7C: 22 xx xx xx  	jsl	~~f_printf
  7744                        L10162:
  7745 09:FD80: E6 19        	inc	<L205+i_1
  7746                        L10165:
  7747 09:FD82: 38           	sec
  7748 09:FD83: A5 19        	lda	<L205+i_1
  7749 09:FD85: A0 0D 00     	ldy	#$d
  7750 09:FD88: F7 2B        	sbc	[<L205+current_SuperInterseg212_1],Y
  7751 09:FD8A: 70 03        	bvs	L231
  7752 09:FD8C: 49 00 80     	eor	#$8000
  7753                        L231:
  7754 09:FD8F: 30 03        	bmi	L232
  7755 09:FD91: 82 09 FF     	brl	L10164
  7756                        L232:
  7757                        L10163:
  7758                        L10158:
  7759 09:FD94: A0 0F 0A     	ldy	#$a0f
  7760 09:FD97: B7 2B        	lda	[<L205+current_SuperInterseg212_1],Y
  7761 09:FD99: 85 01        	sta	<R0
  7762 09:FD9B: A0 11 0A     	ldy	#$a11
  7763 09:FD9E: B7 2B        	lda	[<L205+current_SuperInterseg212_1],Y
  7764 09:FDA0: 85 03        	sta	<R0+2
  Thu Dec  3 2020 22:25                                                Page 182


  7765 09:FDA2: A5 01        	lda	<R0
  7766 09:FDA4: 85 2B        	sta	<L205+current_SuperInterseg212_1
  7767 09:FDA6: A5 03        	lda	<R0+2
  7768 09:FDA8: 85 2D        	sta	<L205+current_SuperInterseg212_1+2
  7769                        L10161:
  7770 09:FDAA: A5 2B        	lda	<L205+current_SuperInterseg212_1
  7771 09:FDAC: 05 2D        	ora	<L205+current_SuperInterseg212_1+2
  7772 09:FDAE: F0 03        	beq	L233
  7773 09:FDB0: 82 E5 FE     	brl	L10160
  7774                        L233:
  7775                        L10159:
  7776                        ;    }
  7777                        	.line	1013
  7778                        ;  else if(current_SUPER->RecordType >= 0x0E && cu
                    rrent_SUPER->RecordType <= 0x19)    /* Super Interseg 13-24 
                    */
  7779 09:FDB3: 82 39 02     	brl	L10166
  7780                        L10157:
  7781                        	.line	1014
  7782                        ;    {
  7783 09:FDB6: E2 20        	sep	#$20
  7784                        	longa	off
  7785 09:FDB8: A0 0D 00     	ldy	#$d
  7786 09:FDBB: B7 1B        	lda	[<L205+current_SUPER_1],Y
  7787 09:FDBD: C9 0E        	cmp	#<$e
  7788 09:FDBF: C2 20        	rep	#$20
  7789                        	longa	on
  7790 09:FDC1: B0 03        	bcs	L234
  7791 09:FDC3: 82 0E 01     	brl	L10167
  7792                        L234:
  7793 09:FDC6: E2 20        	sep	#$20
  7794                        	longa	off
  7795 09:FDC8: A9 19        	lda	#$19
  7796 09:FDCA: A0 0D 00     	ldy	#$d
  7797 09:FDCD: D7 1B        	cmp	[<L205+current_SUPER_1],Y
  7798 09:FDCF: C2 20        	rep	#$20
  7799                        	longa	on
  7800 09:FDD1: B0 03        	bcs	L235
  7801 09:FDD3: 82 FE 00     	brl	L10167
  7802                        L235:
  7803                        	.line	1015
  7804                        ;      for(current_SuperInterseg1324=current_SUPER
                    ->first_SuperInterseg1324; current_SuperInterseg1324; curren
                    t_SuperInterseg1324=current_SuperInterseg1324->next)
  7805                        	.line	1016
  7806 09:FDD6: A0 38 00     	ldy	#$38
  7807 09:FDD9: B7 1B        	lda	[<L205+current_SUPER_1],Y
  7808 09:FDDB: 85 2F        	sta	<L205+current_SuperInterseg1324_1
  7809 09:FDDD: A0 3A 00     	ldy	#$3a
  7810 09:FDE0: B7 1B        	lda	[<L205+current_SUPER_1],Y
  7811 09:FDE2: 85 31        	sta	<L205+current_SuperInterseg1324_1+2
  7812 09:FDE4: 82 E1 00     	brl	L10171
  7813                        L10170:
  7814                        ;        for(i=0; i<current_SuperInterseg1324->nb_
                    address; i++)
  7815                        	.line	1017
  7816 09:FDE7: 64 19        	stz	<L205+i_1
  7817 09:FDE9: 82 B4 00     	brl	L10175
  Thu Dec  3 2020 22:25                                                Page 183


  7818                        L10174:
  7819                        ;          f_printf(fd,"       # Byte to be reloca
                    ted = %02X,   Bit Shift = %02X,   Offset Patch = %04X,   Ref
                    erence = %04X,   Segment Number = %02X,   File Number = %04X
                    \n",
  7820                        	.line	1018
  7821                        ;                     current_SuperInterseg1324->B
                    yteCnt,
  7822                        ;                     current_SuperInterseg1324->B
                    itShiftCnt,
  7823                        ;                     current_SuperInterseg1324->O
                    ffsetPatch[i],
  7824                        ;                     current_SuperInterseg1324->O
                    ffsetReference[i],
  7825                        ;                     current_SuperInterseg1324->S
                    egNum,
  7826                        ;                     current_SuperInterseg1324->F
                    ileNum); 
  7827 09:FDEC: A0 0C 00     	ldy	#$c
  7828 09:FDEF: B7 2F        	lda	[<L205+current_SuperInterseg1324_1],Y
  7829 09:FDF1: 48           	pha
  7830 09:FDF2: A0 0B 00     	ldy	#$b
  7831 09:FDF5: B7 2F        	lda	[<L205+current_SuperInterseg1324_1],Y
  7832 09:FDF7: 29 FF 00     	and	#$ff
  7833 09:FDFA: 48           	pha
  7834 09:FDFB: A0 00 00     	ldy	#$0
  7835 09:FDFE: A5 19        	lda	<L205+i_1
  7836 09:FE00: 10 01        	bpl	L236
  7837 09:FE02: 88           	dey
  7838                        L236:
  7839 09:FE03: 85 05        	sta	<R1
  7840 09:FE05: 84 07        	sty	<R1+2
  7841 09:FE07: D4 07        	pei	<R1+2
  7842 09:FE09: D4 05        	pei	<R1
  7843 09:FE0B: A9 02 00     	lda	#$2
  7844                        	xref	~~~lasl
  7845 09:FE0E: 22 xx xx xx  	jsl	~~~lasl
  7846 09:FE12: 85 01        	sta	<R0
  7847 09:FE14: 86 03        	stx	<R0+2
  7848 09:FE16: 18           	clc
  7849 09:FE17: A9 10 04     	lda	#$410
  7850 09:FE1A: 65 2F        	adc	<L205+current_SuperInterseg1324_1
  7851 09:FE1C: 85 09        	sta	<R2
  7852 09:FE1E: A9 00 00     	lda	#$0
  7853 09:FE21: 65 31        	adc	<L205+current_SuperInterseg1324_1+2
  7854 09:FE23: 85 0B        	sta	<R2+2
  7855 09:FE25: 18           	clc
  7856 09:FE26: A5 09        	lda	<R2
  7857 09:FE28: 65 01        	adc	<R0
  7858 09:FE2A: 85 0D        	sta	<R3
  7859 09:FE2C: A5 0B        	lda	<R2+2
  7860 09:FE2E: 65 03        	adc	<R0+2
  7861 09:FE30: 85 0F        	sta	<R3+2
  7862 09:FE32: A0 02 00     	ldy	#$2
  7863 09:FE35: B7 0D        	lda	[<R3],Y
  7864 09:FE37: 48           	pha
  7865 09:FE38: A7 0D        	lda	[<R3]
  7866 09:FE3A: 48           	pha
  Thu Dec  3 2020 22:25                                                Page 184


  7867 09:FE3B: A0 00 00     	ldy	#$0
  7868 09:FE3E: A5 19        	lda	<L205+i_1
  7869 09:FE40: 10 01        	bpl	L237
  7870 09:FE42: 88           	dey
  7871                        L237:
  7872 09:FE43: 85 09        	sta	<R2
  7873 09:FE45: 84 0B        	sty	<R2+2
  7874 09:FE47: D4 0B        	pei	<R2+2
  7875 09:FE49: D4 09        	pei	<R2
  7876 09:FE4B: A9 02 00     	lda	#$2
  7877                        	xref	~~~lasl
  7878 09:FE4E: 22 xx xx xx  	jsl	~~~lasl
  7879 09:FE52: 85 01        	sta	<R0
  7880 09:FE54: 86 03        	stx	<R0+2
  7881 09:FE56: 18           	clc
  7882 09:FE57: A9 10 00     	lda	#$10
  7883 09:FE5A: 65 2F        	adc	<L205+current_SuperInterseg1324_1
  7884 09:FE5C: 85 0D        	sta	<R3
  7885 09:FE5E: A9 00 00     	lda	#$0
  7886 09:FE61: 65 31        	adc	<L205+current_SuperInterseg1324_1+2
  7887 09:FE63: 85 0F        	sta	<R3+2
  7888 09:FE65: 18           	clc
  7889 09:FE66: A5 0D        	lda	<R3
  7890 09:FE68: 65 01        	adc	<R0
  7891 09:FE6A: 85 11        	sta	<17
  7892 09:FE6C: A5 0F        	lda	<R3+2
  7893 09:FE6E: 65 03        	adc	<R0+2
  7894 09:FE70: 85 13        	sta	<17+2
  7895 09:FE72: A0 02 00     	ldy	#$2
  7896 09:FE75: B7 11        	lda	[<17],Y
  7897 09:FE77: 48           	pha
  7898 09:FE78: A7 11        	lda	[<17]
  7899 09:FE7A: 48           	pha
  7900 09:FE7B: A0 0A 00     	ldy	#$a
  7901 09:FE7E: B7 2F        	lda	[<L205+current_SuperInterseg1324_1],Y
  7902 09:FE80: 29 FF 00     	and	#$ff
  7903 09:FE83: 48           	pha
  7904 09:FE84: A0 09 00     	ldy	#$9
  7905 09:FE87: B7 2F        	lda	[<L205+current_SuperInterseg1324_1],Y
  7906 09:FE89: 29 FF 00     	and	#$ff
  7907 09:FE8C: 48           	pha
  7908 09:FE8D: F4 xx xx     	pea	#^L203+498
  7909 09:FE90: F4 xx xx     	pea	#<L203+498
  7910 09:FE93: D4 40        	pei	<L204+fd_0+2
  7911 09:FE95: D4 3E        	pei	<L204+fd_0
  7912 09:FE97: F4 1A 00     	pea	#26
  7913 09:FE9A: 22 xx xx xx  	jsl	~~f_printf
  7914                        L10172:
  7915 09:FE9E: E6 19        	inc	<L205+i_1
  7916                        L10175:
  7917 09:FEA0: 38           	sec
  7918 09:FEA1: A5 19        	lda	<L205+i_1
  7919 09:FEA3: A0 0E 00     	ldy	#$e
  7920 09:FEA6: F7 2F        	sbc	[<L205+current_SuperInterseg1324_1],Y
  7921 09:FEA8: 70 03        	bvs	L238
  7922 09:FEAA: 49 00 80     	eor	#$8000
  7923                        L238:
  7924 09:FEAD: 30 03        	bmi	L239
  Thu Dec  3 2020 22:25                                                Page 185


  7925 09:FEAF: 82 3A FF     	brl	L10174
  7926                        L239:
  7927                        L10173:
  7928                        L10168:
  7929 09:FEB2: A0 10 08     	ldy	#$810
  7930 09:FEB5: B7 2F        	lda	[<L205+current_SuperInterseg1324_1],Y
  7931 09:FEB7: 85 01        	sta	<R0
  7932 09:FEB9: A0 12 08     	ldy	#$812
  7933 09:FEBC: B7 2F        	lda	[<L205+current_SuperInterseg1324_1],Y
  7934 09:FEBE: 85 03        	sta	<R0+2
  7935 09:FEC0: A5 01        	lda	<R0
  7936 09:FEC2: 85 2F        	sta	<L205+current_SuperInterseg1324_1
  7937 09:FEC4: A5 03        	lda	<R0+2
  7938 09:FEC6: 85 31        	sta	<L205+current_SuperInterseg1324_1+2
  7939                        L10171:
  7940 09:FEC8: A5 2F        	lda	<L205+current_SuperInterseg1324_1
  7941 09:FECA: 05 31        	ora	<L205+current_SuperInterseg1324_1+2
  7942 09:FECC: F0 03        	beq	L240
  7943 09:FECE: 82 16 FF     	brl	L10170
  7944                        L240:
  7945                        L10169:
  7946                        ;  }
  7947                        	.line	1025
  7948                        ;  else if(current_SUPER->RecordType >= 0x1A && cu
                    rrent_SUPER->RecordType <= 0x25)    /* Super Interseg 25-36 
                    */
  7949 09:FED1: 82 1B 01     	brl	L10176
  7950                        L10167:
  7951                        	.line	1026
  7952                        ;    {
  7953 09:FED4: E2 20        	sep	#$20
  7954                        	longa	off
  7955 09:FED6: A0 0D 00     	ldy	#$d
  7956 09:FED9: B7 1B        	lda	[<L205+current_SUPER_1],Y
  7957 09:FEDB: C9 1A        	cmp	#<$1a
  7958 09:FEDD: C2 20        	rep	#$20
  7959                        	longa	on
  7960 09:FEDF: B0 03        	bcs	L241
  7961 09:FEE1: 82 0B 01     	brl	L10177
  7962                        L241:
  7963 09:FEE4: E2 20        	sep	#$20
  7964                        	longa	off
  7965 09:FEE6: A9 25        	lda	#$25
  7966 09:FEE8: A0 0D 00     	ldy	#$d
  7967 09:FEEB: D7 1B        	cmp	[<L205+current_SUPER_1],Y
  7968 09:FEED: C2 20        	rep	#$20
  7969                        	longa	on
  7970 09:FEEF: B0 03        	bcs	L242
  7971 09:FEF1: 82 FB 00     	brl	L10177
  7972                        L242:
  7973                        	.line	1027
  7974                        ;      for(current_SuperInterseg2536=current_SUPER
                    ->first_SuperInterseg2536; current_SuperInterseg2536; curren
                    t_SuperInterseg2536=current_SuperInterseg2536->next)
  7975                        	.line	1028
  7976 09:FEF4: A0 42 00     	ldy	#$42
  7977 09:FEF7: B7 1B        	lda	[<L205+current_SUPER_1],Y
  7978 09:FEF9: 85 33        	sta	<L205+current_SuperInterseg2536_1
  Thu Dec  3 2020 22:25                                                Page 186


  7979 09:FEFB: A0 44 00     	ldy	#$44
  7980 09:FEFE: B7 1B        	lda	[<L205+current_SUPER_1],Y
  7981 09:FF00: 85 35        	sta	<L205+current_SuperInterseg2536_1+2
  7982 09:FF02: 82 E1 00     	brl	L10181
  7983                        L10180:
  7984                        ;        for(i=0; i<current_SuperInterseg2536->nb_
                    address; i++)
  7985                        	.line	1029
  7986 09:FF05: 64 19        	stz	<L205+i_1
  7987 09:FF07: 82 B4 00     	brl	L10185
  7988                        L10184:
  7989                        ;          f_printf(fd,"       # Byte to be reloca
                    ted = %02X,   Bit Shift = %02X,   Offset Patch = %04X,   Ref
                    erence = %04X,   Segment Number = %02X,   File Number = %04X
                    \n",
  7990                        	.line	1030
  7991                        ;                     current_SuperInterseg2536->B
                    yteCnt,
  7992                        ;                     current_SuperInterseg2536->B
                    itShiftCnt,
  7993                        ;                     current_SuperInterseg2536->O
                    ffsetPatch[i],
  7994                        ;                     current_SuperInterseg2536->O
                    ffsetReference[i],
  7995                        ;                     current_SuperInterseg2536->S
                    egNum,
  7996                        ;                     current_SuperInterseg2536->F
                    ileNum);
  7997 09:FF0A: A0 0C 00     	ldy	#$c
  7998 09:FF0D: B7 33        	lda	[<L205+current_SuperInterseg2536_1],Y
  7999 09:FF0F: 48           	pha
  8000 09:FF10: A0 0B 00     	ldy	#$b
  8001 09:FF13: B7 33        	lda	[<L205+current_SuperInterseg2536_1],Y
  8002 09:FF15: 29 FF 00     	and	#$ff
  8003 09:FF18: 48           	pha
  8004 09:FF19: A0 00 00     	ldy	#$0
  8005 09:FF1C: A5 19        	lda	<L205+i_1
  8006 09:FF1E: 10 01        	bpl	L243
  8007 09:FF20: 88           	dey
  8008                        L243:
  8009 09:FF21: 85 05        	sta	<R1
  8010 09:FF23: 84 07        	sty	<R1+2
  8011 09:FF25: D4 07        	pei	<R1+2
  8012 09:FF27: D4 05        	pei	<R1
  8013 09:FF29: A9 02 00     	lda	#$2
  8014                        	xref	~~~lasl
  8015 09:FF2C: 22 xx xx xx  	jsl	~~~lasl
  8016 09:FF30: 85 01        	sta	<R0
  8017 09:FF32: 86 03        	stx	<R0+2
  8018 09:FF34: 18           	clc
  8019 09:FF35: A9 10 04     	lda	#$410
  8020 09:FF38: 65 33        	adc	<L205+current_SuperInterseg2536_1
  8021 09:FF3A: 85 09        	sta	<R2
  8022 09:FF3C: A9 00 00     	lda	#$0
  8023 09:FF3F: 65 35        	adc	<L205+current_SuperInterseg2536_1+2
  8024 09:FF41: 85 0B        	sta	<R2+2
  8025 09:FF43: 18           	clc
  8026 09:FF44: A5 09        	lda	<R2
  Thu Dec  3 2020 22:25                                                Page 187


  8027 09:FF46: 65 01        	adc	<R0
  8028 09:FF48: 85 0D        	sta	<R3
  8029 09:FF4A: A5 0B        	lda	<R2+2
  8030 09:FF4C: 65 03        	adc	<R0+2
  8031 09:FF4E: 85 0F        	sta	<R3+2
  8032 09:FF50: A0 02 00     	ldy	#$2
  8033 09:FF53: B7 0D        	lda	[<R3],Y
  8034 09:FF55: 48           	pha
  8035 09:FF56: A7 0D        	lda	[<R3]
  8036 09:FF58: 48           	pha
  8037 09:FF59: A0 00 00     	ldy	#$0
  8038 09:FF5C: A5 19        	lda	<L205+i_1
  8039 09:FF5E: 10 01        	bpl	L244
  8040 09:FF60: 88           	dey
  8041                        L244:
  8042 09:FF61: 85 09        	sta	<R2
  8043 09:FF63: 84 0B        	sty	<R2+2
  8044 09:FF65: D4 0B        	pei	<R2+2
  8045 09:FF67: D4 09        	pei	<R2
  8046 09:FF69: A9 02 00     	lda	#$2
  8047                        	xref	~~~lasl
  8048 09:FF6C: 22 xx xx xx  	jsl	~~~lasl
  8049 09:FF70: 85 01        	sta	<R0
  8050 09:FF72: 86 03        	stx	<R0+2
  8051 09:FF74: 18           	clc
  8052 09:FF75: A9 10 00     	lda	#$10
  8053 09:FF78: 65 33        	adc	<L205+current_SuperInterseg2536_1
  8054 09:FF7A: 85 0D        	sta	<R3
  8055 09:FF7C: A9 00 00     	lda	#$0
  8056 09:FF7F: 65 35        	adc	<L205+current_SuperInterseg2536_1+2
  8057 09:FF81: 85 0F        	sta	<R3+2
  8058 09:FF83: 18           	clc
  8059 09:FF84: A5 0D        	lda	<R3
  8060 09:FF86: 65 01        	adc	<R0
  8061 09:FF88: 85 11        	sta	<17
  8062 09:FF8A: A5 0F        	lda	<R3+2
  8063 09:FF8C: 65 03        	adc	<R0+2
  8064 09:FF8E: 85 13        	sta	<17+2
  8065 09:FF90: A0 02 00     	ldy	#$2
  8066 09:FF93: B7 11        	lda	[<17],Y
  8067 09:FF95: 48           	pha
  8068 09:FF96: A7 11        	lda	[<17]
  8069 09:FF98: 48           	pha
  8070 09:FF99: A0 0A 00     	ldy	#$a
  8071 09:FF9C: B7 33        	lda	[<L205+current_SuperInterseg2536_1],Y
  8072 09:FF9E: 29 FF 00     	and	#$ff
  8073 09:FFA1: 48           	pha
  8074 09:FFA2: A0 09 00     	ldy	#$9
  8075 09:FFA5: B7 33        	lda	[<L205+current_SuperInterseg2536_1],Y
  8076 09:FFA7: 29 FF 00     	and	#$ff
  8077 09:FFAA: 48           	pha
  8078 09:FFAB: F4 xx xx     	pea	#^L203+646
  8079 09:FFAE: F4 xx xx     	pea	#<L203+646
  8080 09:FFB1: D4 40        	pei	<L204+fd_0+2
  8081 09:FFB3: D4 3E        	pei	<L204+fd_0
  8082 09:FFB5: F4 1A 00     	pea	#26
  8083 09:FFB8: 22 xx xx xx  	jsl	~~f_printf
  8084                        L10182:
  Thu Dec  3 2020 22:25                                                Page 188


  8085 09:FFBC: E6 19        	inc	<L205+i_1
  8086                        L10185:
  8087 09:FFBE: 38           	sec
  8088 09:FFBF: A5 19        	lda	<L205+i_1
  8089 09:FFC1: A0 0E 00     	ldy	#$e
  8090 09:FFC4: F7 33        	sbc	[<L205+current_SuperInterseg2536_1],Y
  8091 09:FFC6: 70 03        	bvs	L245
  8092 09:FFC8: 49 00 80     	eor	#$8000
  8093                        L245:
  8094 09:FFCB: 30 03        	bmi	L246
  8095 09:FFCD: 82 3A FF     	brl	L10184
  8096                        L246:
  8097                        L10183:
  8098                        L10178:
  8099 09:FFD0: A0 10 08     	ldy	#$810
  8100 09:FFD3: B7 33        	lda	[<L205+current_SuperInterseg2536_1],Y
  8101 09:FFD5: 85 01        	sta	<R0
  8102 09:FFD7: A0 12 08     	ldy	#$812
  8103 09:FFDA: B7 33        	lda	[<L205+current_SuperInterseg2536_1],Y
  8104 09:FFDC: 85 03        	sta	<R0+2
  8105 09:FFDE: A5 01        	lda	<R0
  8106 09:FFE0: 85 33        	sta	<L205+current_SuperInterseg2536_1
  8107 09:FFE2: A5 03        	lda	<R0+2
  8108 09:FFE4: 85 35        	sta	<L205+current_SuperInterseg2536_1+2
  8109                        L10181:
  8110 09:FFE6: A5 33        	lda	<L205+current_SuperInterseg2536_1
  8111 09:FFE8: 05 35        	ora	<L205+current_SuperInterseg2536_1+2
  8112 09:FFEA: F0 03        	beq	L247
  8113 09:FFEC: 82 16 FF     	brl	L10180
  8114                        L247:
  8115                        L10179:
  8116                        ;    }
  8117                        	.line	1037
  8118                        ;}
  8119                        L10177:
  8120                        L10176:
  8121                        L10166:
  8122                        L10156:
  8123                        L10146:
  8124                        L10136:
  8125                        	.line	1038
  8126                        L248:
  8127 09:FFEF: A5 38        	lda	<L204+2
  8128 09:FFF1: 85 42        	sta	<L204+2+10
  8129 09:FFF3: A5 37        	lda	<L204+1
  8130 09:FFF5: 85 41        	sta	<L204+1+10
  8131 09:FFF7: 2B           	pld
  8132 09:FFF8: 3B           	tsc
  8133 09:FFF9: 18           	clc
  8134 09:FFFA: 69 40 00     	adc	#L204+10
  8135 09:FFFD: 1B           	tcs
  8136 09:FFFE: 6B           	rtl
  8137                        	.endblock	1038
  8138             00000036   L204	equ	54
  8139             00000019   L205	equ	25
  8140 09:FFFF:              	ends
  8141                        	efunc
  8142                        	.endfunc	1038,25,54
  Thu Dec  3 2020 22:25                                                Page 189


  8143                        	.line	1038
  8144                        	data
  8145                        L203:
  8146 00:2023: 20 20 20 20  	db	$20,$20,$20,$20,$20,$20,$20,$23,$20,$42,
                    $79,$74,$65,$20,$74
       00:2027: 20 20 20 23 
       00:202B: 20 42 79 74 
       00:202F: 65 20 74 
  8147 00:2032: 6F 20 62 65  	db	$6F,$20,$62,$65,$20,$72,$65,$6C,$6F,$63,
                    $61,$74,$65,$64,$20
       00:2036: 20 72 65 6C 
       00:203A: 6F 63 61 74 
       00:203E: 65 64 20 
  8148 00:2041: 3D 20 25 30  	db	$3D,$20,$25,$30,$32,$58,$2C,$20,$20,$20,
                    $42,$69,$74,$20,$53
       00:2045: 32 58 2C 20 
       00:2049: 20 20 42 69 
       00:204D: 74 20 53 
  8149 00:2050: 68 69 66 74  	db	$68,$69,$66,$74,$20,$3D,$20,$25,$30,$32,
                    $58,$2C,$20,$20,$20
       00:2054: 20 3D 20 25 
       00:2058: 30 32 58 2C 
       00:205C: 20 20 20 
  8150 00:205F: 4F 66 66 73  	db	$4F,$66,$66,$73,$65,$74,$20,$50,$61,$74,
                    $63,$68,$20,$3D,$20
       00:2063: 65 74 20 50 
       00:2067: 61 74 63 68 
       00:206B: 20 3D 20 
  8151 00:206E: 25 30 34 58  	db	$25,$30,$34,$58,$2C,$20,$20,$20,$52,$65,
                    $66,$65,$72,$65,$6E
       00:2072: 2C 20 20 20 
       00:2076: 52 65 66 65 
       00:207A: 72 65 6E 
  8152 00:207D: 63 65 20 3D  	db	$63,$65,$20,$3D,$20,$25,$30,$34,$58,$0A,
                    $00,$20,$20,$20,$20
       00:2081: 20 25 30 34 
       00:2085: 58 0A 00 20 
       00:2089: 20 20 20 
  8153 00:208C: 20 20 20 23  	db	$20,$20,$20,$23,$20,$42,$79,$74,$65,$20,
                    $74,$6F,$20,$62,$65
       00:2090: 20 42 79 74 
       00:2094: 65 20 74 6F 
       00:2098: 20 62 65 
  8154 00:209B: 20 72 65 6C  	db	$20,$72,$65,$6C,$6F,$63,$61,$74,$65,$64,
                    $20,$3D,$20,$25,$30
       00:209F: 6F 63 61 74 
       00:20A3: 65 64 20 3D 
       00:20A7: 20 25 30 
  8155 00:20AA: 32 58 2C 20  	db	$32,$58,$2C,$20,$20,$20,$42,$69,$74,$20,
                    $53,$68,$69,$66,$74
       00:20AE: 20 20 42 69 
       00:20B2: 74 20 53 68 
       00:20B6: 69 66 74 
  8156 00:20B9: 20 3D 20 25  	db	$20,$3D,$20,$25,$30,$32,$58,$2C,$20,$20,
                    $20,$4F,$66,$66,$73
       00:20BD: 30 32 58 2C 
       00:20C1: 20 20 20 4F 
       00:20C5: 66 66 73 
  Thu Dec  3 2020 22:25                                                Page 190


  8157 00:20C8: 65 74 20 50  	db	$65,$74,$20,$50,$61,$74,$63,$68,$20,$3D,
                    $20,$25,$30,$34,$58
       00:20CC: 61 74 63 68 
       00:20D0: 20 3D 20 25 
       00:20D4: 30 34 58 
  8158 00:20D7: 2C 20 20 20  	db	$2C,$20,$20,$20,$52,$65,$66,$65,$72,$65,
                    $6E,$63,$65,$20,$3D
       00:20DB: 52 65 66 65 
       00:20DF: 72 65 6E 63 
       00:20E3: 65 20 3D 
  8159 00:20E6: 20 25 30 34  	db	$20,$25,$30,$34,$58,$0A,$00,$20,$20,$20,
                    $20,$20,$20,$20,$23
       00:20EA: 58 0A 00 20 
       00:20EE: 20 20 20 20 
       00:20F2: 20 20 23 
  8160 00:20F5: 20 42 79 74  	db	$20,$42,$79,$74,$65,$20,$74,$6F,$20,$62,
                    $65,$20,$72,$65,$6C
       00:20F9: 65 20 74 6F 
       00:20FD: 20 62 65 20 
       00:2101: 72 65 6C 
  8161 00:2104: 6F 63 61 74  	db	$6F,$63,$61,$74,$65,$64,$20,$3D,$20,$25,
                    $30,$32,$58,$2C,$20
       00:2108: 65 64 20 3D 
       00:210C: 20 25 30 32 
       00:2110: 58 2C 20 
  8162 00:2113: 20 20 42 69  	db	$20,$20,$42,$69,$74,$20,$53,$68,$69,$66,
                    $74,$20,$3D,$20,$25
       00:2117: 74 20 53 68 
       00:211B: 69 66 74 20 
       00:211F: 3D 20 25 
  8163 00:2122: 30 32 58 2C  	db	$30,$32,$58,$2C,$20,$20,$20,$4F,$66,$66,
                    $73,$65,$74,$20,$50
       00:2126: 20 20 20 4F 
       00:212A: 66 66 73 65 
       00:212E: 74 20 50 
  8164 00:2131: 61 74 63 68  	db	$61,$74,$63,$68,$20,$3D,$20,$25,$30,$34,
                    $58,$2C,$20,$20,$20
       00:2135: 20 3D 20 25 
       00:2139: 30 34 58 2C 
       00:213D: 20 20 20 
  8165 00:2140: 52 65 66 65  	db	$52,$65,$66,$65,$72,$65,$6E,$63,$65,$20,
                    $3D,$20,$25,$30,$34
       00:2144: 72 65 6E 63 
       00:2148: 65 20 3D 20 
       00:214C: 25 30 34 
  8166 00:214F: 58 2C 20 20  	db	$58,$2C,$20,$20,$20,$53,$65,$67,$6D,$65,
                    $6E,$74,$20,$4E,$75
       00:2153: 20 53 65 67 
       00:2157: 6D 65 6E 74 
       00:215B: 20 4E 75 
  8167 00:215E: 6D 62 65 72  	db	$6D,$62,$65,$72,$20,$3D,$20,$25,$30,$34,
                    $58,$2C,$20,$20,$20
       00:2162: 20 3D 20 25 
       00:2166: 30 34 58 2C 
       00:216A: 20 20 20 
  8168 00:216D: 46 69 6C 65  	db	$46,$69,$6C,$65,$20,$4E,$75,$6D,$62,$65,
                    $72,$20,$3D,$20,$25
       00:2171: 20 4E 75 6D 
  Thu Dec  3 2020 22:25                                                Page 191


       00:2175: 62 65 72 20 
       00:2179: 3D 20 25 
  8169 00:217C: 30 34 58 0A  	db	$30,$34,$58,$0A,$00,$20,$20,$20,$20,$20,
                    $20,$20,$23,$20,$42
       00:2180: 00 20 20 20 
       00:2184: 20 20 20 20 
       00:2188: 23 20 42 
  8170 00:218B: 79 74 65 20  	db	$79,$74,$65,$20,$74,$6F,$20,$62,$65,$20,
                    $72,$65,$6C,$6F,$63
       00:218F: 74 6F 20 62 
       00:2193: 65 20 72 65 
       00:2197: 6C 6F 63 
  8171 00:219A: 61 74 65 64  	db	$61,$74,$65,$64,$20,$3D,$20,$25,$30,$32,
                    $58,$2C,$20,$20,$20
       00:219E: 20 3D 20 25 
       00:21A2: 30 32 58 2C 
       00:21A6: 20 20 20 
  8172 00:21A9: 42 69 74 20  	db	$42,$69,$74,$20,$53,$68,$69,$66,$74,$20,
                    $3D,$20,$25,$30,$32
       00:21AD: 53 68 69 66 
       00:21B1: 74 20 3D 20 
       00:21B5: 25 30 32 
  8173 00:21B8: 58 2C 20 20  	db	$58,$2C,$20,$20,$20,$4F,$66,$66,$73,$65,
                    $74,$20,$50,$61,$74
       00:21BC: 20 4F 66 66 
       00:21C0: 73 65 74 20 
       00:21C4: 50 61 74 
  8174 00:21C7: 63 68 20 3D  	db	$63,$68,$20,$3D,$20,$25,$30,$34,$58,$2C,
                    $20,$20,$20,$52,$65
       00:21CB: 20 25 30 34 
       00:21CF: 58 2C 20 20 
       00:21D3: 20 52 65 
  8175 00:21D6: 66 65 72 65  	db	$66,$65,$72,$65,$6E,$63,$65,$20,$3D,$20,
                    $25,$30,$32,$58,$2C
       00:21DA: 6E 63 65 20 
       00:21DE: 3D 20 25 30 
       00:21E2: 32 58 2C 
  8176 00:21E5: 20 20 20 53  	db	$20,$20,$20,$53,$65,$67,$6D,$65,$6E,$74,
                    $20,$4E,$75,$6D,$62
       00:21E9: 65 67 6D 65 
       00:21ED: 6E 74 20 4E 
       00:21F1: 75 6D 62 
  8177 00:21F4: 65 72 20 3D  	db	$65,$72,$20,$3D,$20,$25,$30,$34,$58,$2C,
                    $20,$20,$20,$46,$69
       00:21F8: 20 25 30 34 
       00:21FC: 58 2C 20 20 
       00:2200: 20 46 69 
  8178 00:2203: 6C 65 20 4E  	db	$6C,$65,$20,$4E,$75,$6D,$62,$65,$72,$20,
                    $3D,$20,$25,$30,$34
       00:2207: 75 6D 62 65 
       00:220B: 72 20 3D 20 
       00:220F: 25 30 34 
  8179 00:2212: 58 0A 00 20  	db	$58,$0A,$00,$20,$20,$20,$20,$20,$20,$20,
                    $23,$20,$42,$79,$74
       00:2216: 20 20 20 20 
       00:221A: 20 20 23 20 
       00:221E: 42 79 74 
  8180 00:2221: 65 20 74 6F  	db	$65,$20,$74,$6F,$20,$62,$65,$20,$72,$65,
  Thu Dec  3 2020 22:25                                                Page 192


                    $6C,$6F,$63,$61,$74
       00:2225: 20 62 65 20 
       00:2229: 72 65 6C 6F 
       00:222D: 63 61 74 
  8181 00:2230: 65 64 20 3D  	db	$65,$64,$20,$3D,$20,$25,$30,$32,$58,$2C,
                    $20,$20,$20,$42,$69
       00:2234: 20 25 30 32 
       00:2238: 58 2C 20 20 
       00:223C: 20 42 69 
  8182 00:223F: 74 20 53 68  	db	$74,$20,$53,$68,$69,$66,$74,$20,$3D,$20,
                    $25,$30,$32,$58,$2C
       00:2243: 69 66 74 20 
       00:2247: 3D 20 25 30 
       00:224B: 32 58 2C 
  8183 00:224E: 20 20 20 4F  	db	$20,$20,$20,$4F,$66,$66,$73,$65,$74,$20,
                    $50,$61,$74,$63,$68
       00:2252: 66 66 73 65 
       00:2256: 74 20 50 61 
       00:225A: 74 63 68 
  8184 00:225D: 20 3D 20 25  	db	$20,$3D,$20,$25,$30,$34,$58,$2C,$20,$20,
                    $20,$52,$65,$66,$65
       00:2261: 30 34 58 2C 
       00:2265: 20 20 20 52 
       00:2269: 65 66 65 
  8185 00:226C: 72 65 6E 63  	db	$72,$65,$6E,$63,$65,$20,$3D,$20,$25,$30,
                    $34,$58,$2C,$20,$20
       00:2270: 65 20 3D 20 
       00:2274: 25 30 34 58 
       00:2278: 2C 20 20 
  8186 00:227B: 20 53 65 67  	db	$20,$53,$65,$67,$6D,$65,$6E,$74,$20,$4E,
                    $75,$6D,$62,$65,$72
       00:227F: 6D 65 6E 74 
       00:2283: 20 4E 75 6D 
       00:2287: 62 65 72 
  8187 00:228A: 20 3D 20 25  	db	$20,$3D,$20,$25,$30,$32,$58,$2C,$20,$20,
                    $20,$46,$69,$6C,$65
       00:228E: 30 32 58 2C 
       00:2292: 20 20 20 46 
       00:2296: 69 6C 65 
  8188 00:2299: 20 4E 75 6D  	db	$20,$4E,$75,$6D,$62,$65,$72,$20,$3D,$20,
                    $25,$30,$34,$58,$0A
       00:229D: 62 65 72 20 
       00:22A1: 3D 20 25 30 
       00:22A5: 34 58 0A 
  8189 00:22A8: 00 20 20 20  	db	$00,$20,$20,$20,$20,$20,$20,$20,$23,$20,
                    $42,$79,$74,$65,$20
       00:22AC: 20 20 20 20 
       00:22B0: 23 20 42 79 
       00:22B4: 74 65 20 
  8190 00:22B7: 74 6F 20 62  	db	$74,$6F,$20,$62,$65,$20,$72,$65,$6C,$6F,
                    $63,$61,$74,$65,$64
       00:22BB: 65 20 72 65 
       00:22BF: 6C 6F 63 61 
       00:22C3: 74 65 64 
  8191 00:22C6: 20 3D 20 25  	db	$20,$3D,$20,$25,$30,$32,$58,$2C,$20,$20,
                    $20,$42,$69,$74,$20
       00:22CA: 30 32 58 2C 
       00:22CE: 20 20 20 42 
  Thu Dec  3 2020 22:25                                                Page 193


       00:22D2: 69 74 20 
  8192 00:22D5: 53 68 69 66  	db	$53,$68,$69,$66,$74,$20,$3D,$20,$25,$30,
                    $32,$58,$2C,$20,$20
       00:22D9: 74 20 3D 20 
       00:22DD: 25 30 32 58 
       00:22E1: 2C 20 20 
  8193 00:22E4: 20 4F 66 66  	db	$20,$4F,$66,$66,$73,$65,$74,$20,$50,$61,
                    $74,$63,$68,$20,$3D
       00:22E8: 73 65 74 20 
       00:22EC: 50 61 74 63 
       00:22F0: 68 20 3D 
  8194 00:22F3: 20 25 30 34  	db	$20,$25,$30,$34,$58,$2C,$20,$20,$20,$52,
                    $65,$66,$65,$72,$65
       00:22F7: 58 2C 20 20 
       00:22FB: 20 52 65 66 
       00:22FF: 65 72 65 
  8195 00:2302: 6E 63 65 20  	db	$6E,$63,$65,$20,$3D,$20,$25,$30,$34,$58,
                    $2C,$20,$20,$20,$53
       00:2306: 3D 20 25 30 
       00:230A: 34 58 2C 20 
       00:230E: 20 20 53 
  8196 00:2311: 65 67 6D 65  	db	$65,$67,$6D,$65,$6E,$74,$20,$4E,$75,$6D,
                    $62,$65,$72,$20,$3D
       00:2315: 6E 74 20 4E 
       00:2319: 75 6D 62 65 
       00:231D: 72 20 3D 
  8197 00:2320: 20 25 30 32  	db	$20,$25,$30,$32,$58,$2C,$20,$20,$20,$46,
                    $69,$6C,$65,$20,$4E
       00:2324: 58 2C 20 20 
       00:2328: 20 46 69 6C 
       00:232C: 65 20 4E 
  8198 00:232F: 75 6D 62 65  	db	$75,$6D,$62,$65,$72,$20,$3D,$20,$25,$30,
                    $34,$58,$0A,$00
       00:2333: 72 20 3D 20 
       00:2337: 25 30 34 58 
       00:233B: 0A 00 
  8199 00:233D:              	ends
  8200                        ;
  8201                        ;/************************************************
                    ************************/
  8202                        ;
  8203                        	.line	1040
  8204                        	.file	"G:\devprojects\c256Foenix\fxos\FXOSWork
                    space\FXOSv1\src\OMF_Dump.c",955
  8205                        	xref	~~f_printf
  8206                        	xref	~~f_close
  8207                        	xref	~~f_open
  8208                        	xref	~~GetRecordName
  8209                        	xref	~~my_stricmp
  8210                        	xref	~~k_free
  8211                        	xref	~~k_calloc
  8212                        	xref	~~k_mem_deallocate_heap
  8213                        	xref	~~k_mem_allocate_heap
  8214                        	xref	~~k_strcpy
  8215                        	xref	~~k_strcat
  8216                        	xref	~~strlen
  8217                        	udata
  8218                        ~~bit_shift
  Thu Dec  3 2020 22:25                                                Page 194


  8219 00:0000:              	ds	256
  8220 00:0100:              	ends
  8221                        	.sym	~~processHeader02,~~processHeader02,65,2
                    ,0
  8222                        	.sym	~~processHeader01,~~processHeader01,65,2
                    ,0
  8223                        	.sym	~~processHeader00,~~processHeader00,65,2
                    ,0
  8224                        	.sym	~~origin_tab,~~origin_tab,1134,3,32,11
  8225                        	.sym	~~bit_shift,~~bit_shift,110,3,0,256
  8226                        	.sym	~~DumpSUPERRecord,~~DumpSUPERRecord,65,3
                    ,0
  8227                        	.sym	~~DumpcINTERSEGRecord,~~DumpcINTERSEGRec
                    ord,65,3,0
  8228                        	.sym	~~DumpINTERSEGRecord,~~DumpINTERSEGRecor
                    d,65,3,0
  8229                        	.sym	~~DumpcRELOCRecord,~~DumpcRELOCRecord,65
                    ,3,0
  8230                        	.sym	~~DumpRELOCRecord,~~DumpRELOCRecord,65,3
                    ,0
  8231                        	.sym	~~DumpLCONSTRecord,~~DumpLCONSTRecord,65
                    ,3,0
  8232                        	.sym	~~GetRecordList,~~GetRecordList,1102,3,3
                    2
  8233                        	.sym	~~GetSegmentAlign,~~GetSegmentAlign,1102
                    ,3,32
  8234                        	.sym	~~GetSegmentKind,~~GetSegmentKind,1102,3
                    ,32
  8235                        	.sym	~~GetSegmentType,~~GetSegmentType,1102,3
                    ,32
  8236                        	.sym	~~DumpSegmentHeader,~~DumpSegmentHeader,
                    65,3,0
  8237                        	.sym	~~DumpExpressLoadData,~~DumpExpressLoadD
                    ata,65,3,0
  8238                        	.sym	~~f_printf,~~f_printf,69,18,0
  8239                        	.sym	~~f_close,~~f_close,69,18,0
  8240                        	.sym	~~f_open,~~f_open,69,18,0
  8241                        	.sym	FRESULT,0,5,14,16
  8242                        	.sym	MKFS_PARM,0,10,14,80,107
  8243                        	.sym	FILINFO,0,10,14,176,106
  8244                        	.sym	DIR,0,10,14,352,105
  8245                        	.sym	FIL,0,10,14,4400,104
  8246                        	.sym	FFOBJID,0,10,14,128,103
  8247                        	.sym	FATFS,0,10,14,4472,102
  8248                        	.sym	LBA_t,0,18,14,32
  8249                        	.sym	FSIZE_t,0,18,14,32
  8250                        	.sym	TCHAR,0,14,14,8
  8251                        	.sym	~~CreateDumpFile,~~CreateDumpFile,69,2,0
  8252                        	.sym	~~GetRecordName,~~GetRecordName,1102,18,
                    32
  8253                        	.sym	~~my_stricmp,~~my_stricmp,69,18,0
  8254                        	.sym	~~k_free,~~k_free,65,18,0
  8255                        	.sym	~~k_calloc,~~k_calloc,1089,18,32
  8256                        	.sym	~~k_mem_deallocate_heap,~~k_mem_dealloca
                    te_heap,65,18,0
  8257                        	.sym	~~k_mem_allocate_heap,~~k_mem_allocate_h
                    eap,1089,18,32
  8258                        	.sym	MemoryCallback,0,641,14,32
  Thu Dec  3 2020 22:25                                                Page 195


  8259                        	.sym	PFXMEMORYMAP,0,138,14,32,63
  8260                        	.sym	FXMEMORYMAP,0,10,14,2072,63
  8261                        	.sym	UMM_HEAP_INFO,0,10,14,256,62
  8262                        	.sym	PCOMMANDARGS,0,138,14,32,61
  8263                        	.sym	COMMANDARGS,0,10,14,64,61
  8264                        	.sym	PTOKENIZESTATE,0,133,14,32
  8265                        	.sym	TOKENIZESTATE,0,5,14,16
  8266                        	.sym	PTOKEN,0,138,14,32,60
  8267                        	.sym	TOKEN,0,10,14,64,60
  8268                        	.sym	PTOKENTYPE,0,133,14,32
  8269                        	.sym	TOKENTYPE,0,5,14,16
  8270                        	.sym	FXCommandHandler,0,656,14,32
  8271                        	.sym	PCONSOLECTX,0,138,14,32,59
  8272                        	.sym	CONSOLECTX,0,10,14,1144,59
  8273                        	.sym	PSPINNERCTX,0,138,14,32,58
  8274                        	.sym	SPINNERCTX,0,10,14,48,58
  8275                        	.sym	PMOUSE_MSG_STATE,0,138,14,32,57
  8276                        	.sym	MOUSE_MSG_STATE,0,10,14,184,57
  8277                        	.sym	PFXEVENTPROCESS,0,138,14,32,56
  8278                        	.sym	FXEVENTPROCESS,0,10,14,64,56
  8279                        	.sym	FXEventProc,0,641,14,32
  8280                        	.sym	PMOUSEMSGDATA,0,138,14,32,55
  8281                        	.sym	MOUSEMSGDATA,0,10,14,64,55
  8282                        	.sym	MSGIRQ,0,5,14,16
  8283                        	.sym	MAINLOOPARGS,0,10,14,16,54
  8284                        	.sym	PEACHCHILD_MSG,0,138,14,32,53
  8285                        	.sym	EACHCHILD_MSG,0,10,14,64,53
  8286                        	.sym	PCUR_PALETTE_MAP,0,138,14,32,52
  8287                        	.sym	CUR_PALETTE_MAP,0,10,14,400,52
  8288                        	.sym	PCLICKDETECTED,0,138,14,32,51
  8289                        	.sym	CLICKDETECTED,0,10,14,64,51
  8290                        	.sym	OBJECTCLICKED,0,641,14,32
  8291                        	.sym	~~k_strcpy,~~k_strcpy,1102,18,32
  8292                        	.sym	~~k_strcat,~~k_strcat,1102,18,32
  8293                        	.sym	PFXSTRING,0,138,14,32,50
  8294                        	.sym	FXSTRING,0,10,14,64,50
  8295                        	.sym	DEVICEDRIVER_COMMAND,0,656,14,32
  8296                        	.sym	DEVICEDRIVER_UNLOAD,0,654,14,32
  8297                        	.sym	DEVICEDRIVER_WRITE,0,656,14,32
  8298                        	.sym	DEVICEDRIVER_READ,0,656,14,32
  8299                        	.sym	DEVICEDRIVER_LOAD,0,654,14,32
  8300                        	.sym	PFX_BLOCK_DEVICE_DRIVER,0,138,14,32,49
  8301                        	.sym	FX_BLOCK_DEVICE_DRIVER,0,10,14,1448,49
  8302                        	.sym	PFX_DEVICE_DRIVER,0,138,14,32,48
  8303                        	.sym	FX_DEVICE_DRIVER,0,10,14,1416,48
  8304                        	.sym	PDEBUGBYTEBITS,0,138,14,32,47
  8305                        	.sym	DEBUGBYTEBITS,0,10,14,8,47
  8306                        	.sym	PFXENVIRONMENT,0,138,14,32,46
  8307                        	.sym	FXENVIRONMENT,0,10,14,96,46
  8308                        	.sym	PFXZERPOPAGE,0,138,14,32,45
  8309                        	.sym	FXZERPOPAGE,0,10,14,448,45
  8310                        	.sym	KERNELTRAPCALL,0,641,14,32
  8311                        	.sym	FOREACHNODEUNTIL,0,654,14,32
  8312                        	.sym	FOREACHNODE,0,641,14,32
  8313                        	.sym	~~strlen,~~strlen,80,18,0
  8314                        	.sym	Boolean_T,0,5,14,16
  8315                        	.sym	ldiv_t,0,10,14,64,43
  8316                        	.sym	div_t,0,10,14,32,42
  Thu Dec  3 2020 22:25                                                Page 196


  8317                        	.sym	wctype_t,0,16,14,16
  8318                        	.sym	wint_t,0,16,14,16
  8319                        	.sym	wchar_t,0,14,14,8
  8320                        	.sym	ptrdiff_t,0,7,14,32
  8321                        	.sym	size_t,0,16,14,16
  8322                        	.sym	PFXCOMBUFFER,0,138,14,32,41
  8323                        	.sym	FXCOMBUFFER,0,10,14,2080,41
  8324                        	.sym	PSUBMENULIST,0,138,14,32,40
  8325                        	.sym	SUBMENULIST,0,10,14,40,40
  8326                        	.sym	HSUBMENU,0,7,14,32
  8327                        	.sym	PSUBMENU,0,138,14,32,39
  8328                        	.sym	SUBMENU,0,10,14,64,39
  8329                        	.sym	MenuAction,0,641,14,32
  8330                        	.sym	PMENUANCHOR,0,138,14,32,38
  8331                        	.sym	MENUANCHOR,0,10,14,144,38
  8332                        	.sym	PTEXTBOX,0,138,14,32,37
  8333                        	.sym	TEXTBOX,0,10,14,144,37
  8334                        	.sym	PLISTBOX,0,138,14,32,36
  8335                        	.sym	LISTBOX,0,10,14,240,36
  8336                        	.sym	PSCROLLBAR,0,138,14,32,35
  8337                        	.sym	SCROLLBAR,0,10,14,192,35
  8338                        	.sym	PBUTTON,0,138,14,32,34
  8339                        	.sym	BUTTON,0,10,14,80,34
  8340                        	.sym	PMENUDROPDOWNDATA,0,138,14,32,33
  8341                        	.sym	MENUDROPDOWNDATA,0,10,14,3568,33
  8342                        	.sym	PMENUTAG,0,138,14,32,32
  8343                        	.sym	MENUTAG,0,10,14,112,32
  8344                        	.sym	PMENU,0,138,14,32,31
  8345                        	.sym	MENU,0,10,14,248,31
  8346                        	.sym	HMENURESOURCE,0,129,14,32
  8347                        	.sym	HTEXTBOX,0,7,14,32
  8348                        	.sym	PTEXTBOXX,0,138,14,32,30
  8349                        	.sym	TEXTBOXX,0,10,14,112,30
  8350                        	.sym	FONTMETRIC,0,10,14,32,29
  8351                        	.sym	TITLE,0,142,14,32
  8352                        	.sym	PHANDLE,0,1153,14,32
  8353                        	.sym	HANDLE,0,129,14,32
  8354                        	.sym	PWINDOWEX,0,138,14,32,28
  8355                        	.sym	WINDOWEX,0,10,14,2704,28
  8356                        	.sym	PWINDOW,0,138,14,32,27
  8357                        	.sym	WINDOW,0,10,14,2808,27
  8358                        	.sym	PDRAGDATA,0,138,14,32,26
  8359                        	.sym	DRAGDATA,0,10,14,136,26
  8360                        	.sym	PNCCLICKABLE,0,138,14,32,25
  8361                        	.sym	NCCLICKABLE,0,10,14,88,25
  8362                        	.sym	HCLICKABLE,0,7,14,32
  8363                        	.sym	PCLICKABLE,0,138,14,32,24
  8364                        	.sym	CLICKABLE,0,10,14,88,24
  8365                        	.sym	PWNDCLASS,0,138,14,32,23
  8366                        	.sym	WNDCLASS,0,10,14,256,23
  8367                        	.sym	HBRUSH,0,129,14,32
  8368                        	.sym	HCURSOR,0,129,14,32
  8369                        	.sym	HICON,0,129,14,32
  8370                        	.sym	HINSTANCE,0,129,14,32
  8371                        	.sym	FXWndProc,0,654,14,32
  8372                        	.sym	PRECT,0,138,14,32,22
  8373                        	.sym	RECT,0,10,14,64,22
  8374                        	.sym	PPOINT,0,138,14,32,21
  Thu Dec  3 2020 22:25                                                Page 197


  8375                        	.sym	POINT,0,10,14,32,21
  8376                        	.sym	PFXPROPERTY,0,138,14,32,19
  8377                        	.sym	FXPROPERTY,0,10,14,384,19
  8378                        	.sym	SCANCODE,0,14,14,8
  8379                        	.sym	KEYCODE,0,14,14,8
  8380                        	.sym	PFXPROCESSMESSAGE,0,138,14,32,18
  8381                        	.sym	FXPROCESSMESSAGE,0,10,14,112,18
  8382                        	.sym	PFXPROCESS,0,138,14,32,17
  8383                        	.sym	FXPROCESS,0,10,14,800,17
  8384                        	.sym	PDESKTOP_CONTROL,0,138,14,32,16
  8385                        	.sym	DESKTOP_CONTROL,0,10,14,392,16
  8386                        	.sym	PCONSOLE_CONTROL,0,138,14,32,15
  8387                        	.sym	CONSOLE_CONTROL,0,10,14,448,15
  8388                        	.sym	FXProcessProc,0,641,14,32
  8389                        	.sym	PFXCMDMESSAGE,0,138,14,32,14
  8390                        	.sym	FXCMDMESSAGE,0,10,14,304,14
  8391                        	.sym	PFXOSMESSAGE,0,138,14,32,13
  8392                        	.sym	FXOSMESSAGE,0,10,14,304,13
  8393                        	.sym	PINT_REGS,0,138,14,32,12
  8394                        	.sym	INT_REGS,0,10,14,104,12
  8395                        	.sym	TASK_STACK,0,10,14,32,11
  8396                        	.sym	TASK,0,10,14,48,10
  8397                        	.sym	PIRQDATA,0,138,14,32,9
  8398                        	.sym	IRQDATA,0,10,14,48,9
  8399                        	.sym	HMENU,0,129,14,32
  8400                        	.sym	HWND,0,129,14,32
  8401                        	.sym	MSGDATA,0,14,14,8
  8402                        	.sym	MSGDEST,0,18,14,32
  8403                        	.sym	MSGSRC,0,18,14,32
  8404                        	.sym	MSGTYPE,0,16,14,16
  8405                        	.sym	PROCESS_RESOURCE_LIST,0,138,14,32,3
  8406                        	.sym	PROCESS_TLS_LIST,0,138,14,32,3
  8407                        	.sym	SEMAPHORE_LIST,0,138,14,32,3
  8408                        	.sym	FILE_BLOCK_LIST,0,138,14,32,3
  8409                        	.sym	FILE_PATH_LIST,0,138,14,32,3
  8410                        	.sym	PROCEDURE_LIST,0,138,14,32,3
  8411                        	.sym	FILE_HANDLE,0,138,14,32,8
  8412                        	.sym	FILE_BLOCK,0,10,14,552,8
  8413                        	.sym	SEMAPHORE,0,10,14,16,7
  8414                        	.sym	PPROCESS_SIGNAL,0,138,14,32,6
  8415                        	.sym	PROCESS_SIGNAL,0,10,14,16,6
  8416                        	.sym	KRESULT,0,18,14,32
  8417                        	.sym	PKERNEL_ERROR,0,138,14,32,5
  8418                        	.sym	KERNEL_ERROR,0,10,14,32,5
  8419                        	.sym	PROCESS_STATUS,0,16,14,16
  8420                        	.sym	FILE_PATH_NAME,0,142,14,32
  8421                        	.sym	PROCESS_RESOURCE,0,129,14,32
  8422                        	.sym	PROCESS_TLS,0,129,14,32
  8423                        	.sym	PROCESS_CTX,0,129,14,32
  8424                        	.sym	USERID,0,16,14,16
  8425                        	.sym	PROCESS_ID,0,18,14,32
  8426                        	.sym	PROCESS_BANK,0,14,14,8
  8427                        	.sym	PFXQUEUE,0,138,14,32,4
  8428                        	.sym	FXQUEUE,0,10,14,80,4
  8429                        	.sym	PFXNODELIST,0,138,14,32,3
  8430                        	.sym	FXNODELIST,0,10,14,96,3
  8431                        	.sym	NodeListDeallocator,0,641,14,32
  8432                        	.sym	PFXNODE,0,138,14,32,2
  Thu Dec  3 2020 22:25                                                Page 198


  8433                        	.sym	FXNODE,0,10,14,384,2
  8434                        	.sym	PBYTEBITS,0,138,14,32,1
  8435                        	.sym	BYTEBITS,0,10,14,8,1
  8436                        	.sym	HCOLOR,0,129,14,32
  8437                        	.sym	HFONT,0,129,14,32
  8438                        	.sym	HDC,0,129,14,32
  8439                        	.sym	HPOINTER,0,129,14,32
  8440                        	.sym	uint32_t,0,18,14,32
  8441                        	.sym	uint8_t,0,14,14,8
  8442                        	.sym	PFAR,0,142,14,32
  8443                        	.sym	LPBOOL,0,142,14,32
  8444                        	.sym	BOOL,0,14,14,8
  8445                        	.sym	DWORD,0,18,14,32
  8446                        	.sym	ULONG,0,18,14,32
  8447                        	.sym	LPLONG,0,135,14,32
  8448                        	.sym	LONG,0,7,14,32
  8449                        	.sym	PUINT,0,144,14,32
  8450                        	.sym	USHORT,0,16,14,16
  8451                        	.sym	UINT,0,16,14,16
  8452                        	.sym	INT,0,5,14,16
  8453                        	.sym	WORD,0,5,14,16
  8454                        	.sym	PBYTE,0,142,14,32
  8455                        	.sym	BYTE,0,14,14,8
  8456                        	.sym	UCHAR,0,14,14,8
  8457                        	.sym	LPWCSTR,0,142,14,32
  8458                        	.sym	LPCSTR,0,142,14,32
  8459                        	.sym	LPSTR,0,142,14,32
  8460                        	.sym	LPCHAR,0,142,14,32
  8461                        	.sym	CHAR,0,14,14,8
  8462                        	.sym	LPVOID,0,129,14,32
  8463                        	.sym	VOID,0,1,14,32
  8464                        	end


      Lines assembled: 8464
      Errors: 0
